
C:/Users/villalba/Documents/pico/ece414_Villalba_Deadder_Li/Lab4/build/touchscreen_demo.elf:     file format elf32-littlearm

Sections:
Idx Name          Size      VMA       LMA       File off  Algn
  0 .boot2        00000100  10000000  10000000  00001000  2**0
                  CONTENTS, ALLOC, LOAD, READONLY, CODE
  1 .text         00006c88  10000100  10000100  00001100  2**3
                  CONTENTS, ALLOC, LOAD, READONLY, CODE
  2 .rodata       00000860  10006d88  10006d88  00007d88  2**3
                  CONTENTS, ALLOC, LOAD, READONLY, DATA
  3 .binary_info  00000020  100075e8  100075e8  000085e8  2**2
                  CONTENTS, ALLOC, LOAD, READONLY, DATA
  4 .ram_vector_table 000000c0  20000000  20000000  0000a000  2**2
                  ALLOC
  5 .data         000001a0  200000c0  10007608  000090c0  2**4
                  CONTENTS, ALLOC, LOAD, READONLY, CODE
  6 .uninitialized_data 0000000c  20000260  100077a8  00009260  2**2
                  ALLOC
  7 .scratch_x    00000000  20040000  20040000  00009260  2**0
                  CONTENTS
  8 .scratch_y    00000000  20041000  20041000  00009260  2**0
                  CONTENTS
  9 .bss          000003e8  20000270  20000270  0000a000  2**3
                  ALLOC
 10 .heap         00000800  20000658  20000658  00009260  2**2
                  CONTENTS, READONLY
 11 .stack_dummy  00000800  20041000  20041000  00009a60  2**5
                  CONTENTS, READONLY
 12 .ARM.attributes 00000028  00000000  00000000  0000a260  2**0
                  CONTENTS, READONLY
 13 .comment      00000049  00000000  00000000  0000a288  2**0
                  CONTENTS, READONLY
 14 .debug_frame  00000028  00000000  00000000  0000a2d4  2**2
                  CONTENTS, READONLY, DEBUGGING, OCTETS

C:/Users/villalba/Documents/pico/ece414_Villalba_Deadder_Li/Lab4/build/touchscreen_demo.elf:     file format elf32-littlearm


Disassembly of section .boot2:

10000000 <__boot2_start__>:
10000000:	4b32b500 	.word	0x4b32b500
10000004:	60582021 	.word	0x60582021
10000008:	21026898 	.word	0x21026898
1000000c:	60984388 	.word	0x60984388
10000010:	611860d8 	.word	0x611860d8
10000014:	4b2e6158 	.word	0x4b2e6158
10000018:	60992100 	.word	0x60992100
1000001c:	61592102 	.word	0x61592102
10000020:	22f02101 	.word	0x22f02101
10000024:	492b5099 	.word	0x492b5099
10000028:	21016019 	.word	0x21016019
1000002c:	20356099 	.word	0x20356099
10000030:	f844f000 	.word	0xf844f000
10000034:	42902202 	.word	0x42902202
10000038:	2106d014 	.word	0x2106d014
1000003c:	f0006619 	.word	0xf0006619
10000040:	6e19f834 	.word	0x6e19f834
10000044:	66192101 	.word	0x66192101
10000048:	66182000 	.word	0x66182000
1000004c:	f000661a 	.word	0xf000661a
10000050:	6e19f82c 	.word	0x6e19f82c
10000054:	6e196e19 	.word	0x6e196e19
10000058:	f0002005 	.word	0xf0002005
1000005c:	2101f82f 	.word	0x2101f82f
10000060:	d1f94208 	.word	0xd1f94208
10000064:	60992100 	.word	0x60992100
10000068:	6019491b 	.word	0x6019491b
1000006c:	60592100 	.word	0x60592100
10000070:	481b491a 	.word	0x481b491a
10000074:	21016001 	.word	0x21016001
10000078:	21eb6099 	.word	0x21eb6099
1000007c:	21a06619 	.word	0x21a06619
10000080:	f0006619 	.word	0xf0006619
10000084:	2100f812 	.word	0x2100f812
10000088:	49166099 	.word	0x49166099
1000008c:	60014814 	.word	0x60014814
10000090:	60992101 	.word	0x60992101
10000094:	2800bc01 	.word	0x2800bc01
10000098:	4700d000 	.word	0x4700d000
1000009c:	49134812 	.word	0x49134812
100000a0:	c8036008 	.word	0xc8036008
100000a4:	8808f380 	.word	0x8808f380
100000a8:	b5034708 	.word	0xb5034708
100000ac:	20046a99 	.word	0x20046a99
100000b0:	d0fb4201 	.word	0xd0fb4201
100000b4:	42012001 	.word	0x42012001
100000b8:	bd03d1f8 	.word	0xbd03d1f8
100000bc:	6618b502 	.word	0x6618b502
100000c0:	f7ff6618 	.word	0xf7ff6618
100000c4:	6e18fff2 	.word	0x6e18fff2
100000c8:	bd026e18 	.word	0xbd026e18
100000cc:	40020000 	.word	0x40020000
100000d0:	18000000 	.word	0x18000000
100000d4:	00070000 	.word	0x00070000
100000d8:	005f0300 	.word	0x005f0300
100000dc:	00002221 	.word	0x00002221
100000e0:	180000f4 	.word	0x180000f4
100000e4:	a0002022 	.word	0xa0002022
100000e8:	10000100 	.word	0x10000100
100000ec:	e000ed08 	.word	0xe000ed08
	...
100000fc:	7a4eb274 	.word	0x7a4eb274

Disassembly of section .text:

10000100 <__VECTOR_TABLE>:
10000100:	20042000 	.word	0x20042000
10000104:	100001f7 	.word	0x100001f7
10000108:	100001c3 	.word	0x100001c3
1000010c:	100001c5 	.word	0x100001c5
10000110:	100001c1 	.word	0x100001c1
10000114:	100001c1 	.word	0x100001c1
10000118:	100001c1 	.word	0x100001c1
1000011c:	100001c1 	.word	0x100001c1
10000120:	100001c1 	.word	0x100001c1
10000124:	100001c1 	.word	0x100001c1
10000128:	100001c1 	.word	0x100001c1
1000012c:	100001c7 	.word	0x100001c7
10000130:	100001c1 	.word	0x100001c1
10000134:	100001c1 	.word	0x100001c1
10000138:	100001c9 	.word	0x100001c9
1000013c:	100001cb 	.word	0x100001cb
10000140:	100001cd 	.word	0x100001cd
10000144:	100001cd 	.word	0x100001cd
10000148:	100001cd 	.word	0x100001cd
1000014c:	100001cd 	.word	0x100001cd
10000150:	100001cd 	.word	0x100001cd
10000154:	100001cd 	.word	0x100001cd
10000158:	100001cd 	.word	0x100001cd
1000015c:	100001cd 	.word	0x100001cd
10000160:	100001cd 	.word	0x100001cd
10000164:	100001cd 	.word	0x100001cd
10000168:	100001cd 	.word	0x100001cd
1000016c:	100001cd 	.word	0x100001cd
10000170:	100001cd 	.word	0x100001cd
10000174:	100001cd 	.word	0x100001cd
10000178:	100001cd 	.word	0x100001cd
1000017c:	100001cd 	.word	0x100001cd
10000180:	100001cd 	.word	0x100001cd
10000184:	100001cd 	.word	0x100001cd
10000188:	100001cd 	.word	0x100001cd
1000018c:	100001cd 	.word	0x100001cd
10000190:	100001cd 	.word	0x100001cd
10000194:	100001cd 	.word	0x100001cd
10000198:	100001cd 	.word	0x100001cd
1000019c:	100001cd 	.word	0x100001cd
100001a0:	100001cd 	.word	0x100001cd
100001a4:	100001cd 	.word	0x100001cd
100001a8:	100001cd 	.word	0x100001cd
100001ac:	100001cd 	.word	0x100001cd
100001b0:	100001cd 	.word	0x100001cd
100001b4:	100001cd 	.word	0x100001cd
100001b8:	100001cd 	.word	0x100001cd
100001bc:	100001cd 	.word	0x100001cd

100001c0 <isr_invalid>:
100001c0:	be00      	bkpt	0x0000

100001c2 <isr_nmi>:
100001c2:	be00      	bkpt	0x0000

100001c4 <isr_hardfault>:
100001c4:	be00      	bkpt	0x0000

100001c6 <isr_svcall>:
100001c6:	be00      	bkpt	0x0000

100001c8 <isr_pendsv>:
100001c8:	be00      	bkpt	0x0000

100001ca <isr_systick>:
100001ca:	be00      	bkpt	0x0000

100001cc <__unhandled_user_irq>:
100001cc:	f3ef 8005 	mrs	r0, IPSR
100001d0:	3810      	subs	r0, #16

100001d2 <unhandled_user_irq_num_in_r0>:
100001d2:	be00      	bkpt	0x0000

100001d4 <binary_info_header>:
100001d4:	7188ebf2 	.word	0x7188ebf2
100001d8:	100075e8 	.word	0x100075e8
100001dc:	10007608 	.word	0x10007608
100001e0:	10000234 	.word	0x10000234
100001e4:	e71aa390 	.word	0xe71aa390

100001e8 <_entry_point>:
100001e8:	2000      	movs	r0, #0
100001ea:	491f      	ldr	r1, [pc, #124]	; (10000268 <hold_non_core0_in_bootrom+0xa>)
100001ec:	6008      	str	r0, [r1, #0]
100001ee:	c806      	ldmia	r0!, {r1, r2}
100001f0:	f381 8808 	msr	MSP, r1
100001f4:	4710      	bx	r2

100001f6 <_reset_handler>:
100001f6:	481d      	ldr	r0, [pc, #116]	; (1000026c <hold_non_core0_in_bootrom+0xe>)
100001f8:	6800      	ldr	r0, [r0, #0]
100001fa:	2800      	cmp	r0, #0
100001fc:	d12f      	bne.n	1000025e <hold_non_core0_in_bootrom>
100001fe:	a40d      	add	r4, pc, #52	; (adr r4, 10000234 <data_cpy_table>)
10000200:	cc0e      	ldmia	r4!, {r1, r2, r3}
10000202:	2900      	cmp	r1, #0
10000204:	d002      	beq.n	1000020c <_reset_handler+0x16>
10000206:	f000 f812 	bl	1000022e <data_cpy>
1000020a:	e7f9      	b.n	10000200 <_reset_handler+0xa>
1000020c:	4918      	ldr	r1, [pc, #96]	; (10000270 <hold_non_core0_in_bootrom+0x12>)
1000020e:	4a19      	ldr	r2, [pc, #100]	; (10000274 <hold_non_core0_in_bootrom+0x16>)
10000210:	2000      	movs	r0, #0
10000212:	e000      	b.n	10000216 <bss_fill_test>

10000214 <bss_fill_loop>:
10000214:	c101      	stmia	r1!, {r0}

10000216 <bss_fill_test>:
10000216:	4291      	cmp	r1, r2
10000218:	d1fc      	bne.n	10000214 <bss_fill_loop>

1000021a <platform_entry>:
1000021a:	4917      	ldr	r1, [pc, #92]	; (10000278 <hold_non_core0_in_bootrom+0x1a>)
1000021c:	4788      	blx	r1
1000021e:	4917      	ldr	r1, [pc, #92]	; (1000027c <hold_non_core0_in_bootrom+0x1e>)
10000220:	4788      	blx	r1
10000222:	4917      	ldr	r1, [pc, #92]	; (10000280 <hold_non_core0_in_bootrom+0x22>)
10000224:	4788      	blx	r1
10000226:	be00      	bkpt	0x0000
10000228:	e7fd      	b.n	10000226 <platform_entry+0xc>

1000022a <data_cpy_loop>:
1000022a:	c901      	ldmia	r1!, {r0}
1000022c:	c201      	stmia	r2!, {r0}

1000022e <data_cpy>:
1000022e:	429a      	cmp	r2, r3
10000230:	d3fb      	bcc.n	1000022a <data_cpy_loop>
10000232:	4770      	bx	lr

10000234 <data_cpy_table>:
10000234:	10007608 	.word	0x10007608
10000238:	200000c0 	.word	0x200000c0
1000023c:	20000260 	.word	0x20000260
10000240:	100077a8 	.word	0x100077a8
10000244:	20040000 	.word	0x20040000
10000248:	20040000 	.word	0x20040000
1000024c:	100077a8 	.word	0x100077a8
10000250:	20041000 	.word	0x20041000
10000254:	20041000 	.word	0x20041000
10000258:	00000000 	.word	0x00000000
1000025c:	4770      	bx	lr

1000025e <hold_non_core0_in_bootrom>:
1000025e:	4809      	ldr	r0, [pc, #36]	; (10000284 <hold_non_core0_in_bootrom+0x26>)
10000260:	f005 fabc 	bl	100057dc <rom_func_lookup>
10000264:	4700      	bx	r0
10000266:	0000      	.short	0x0000
10000268:	e000ed08 	.word	0xe000ed08
1000026c:	d0000000 	.word	0xd0000000
10000270:	20000270 	.word	0x20000270
10000274:	20000658 	.word	0x20000658
10000278:	100040c5 	.word	0x100040c5
1000027c:	10000305 	.word	0x10000305
10000280:	100041b9 	.word	0x100041b9
10000284:	00005657 	.word	0x00005657

10000288 <__bi_50>:
10000288:	50520006 5360b3ab 10007558              ..RP..`SXu..

10000294 <__bi_38>:
10000294:	50520006 02031c86 10007568              ..RP....hu..

100002a0 <__bi_30>:
100002a0:	50520006 9da22254 1000757c              ..RPT"..|u..

100002ac <__bi_22>:
100002ac:	50520005 68f465de 100077a8              ..RP.e.h.w..

100002b8 <_init>:
100002b8:	b5f8      	push	{r3, r4, r5, r6, r7, lr}
100002ba:	46c0      	nop			; (mov r8, r8)

100002bc <__do_global_dtors_aux>:
100002bc:	b510      	push	{r4, lr}
100002be:	4c06      	ldr	r4, [pc, #24]	; (100002d8 <__do_global_dtors_aux+0x1c>)
100002c0:	7823      	ldrb	r3, [r4, #0]
100002c2:	2b00      	cmp	r3, #0
100002c4:	d107      	bne.n	100002d6 <__do_global_dtors_aux+0x1a>
100002c6:	4b05      	ldr	r3, [pc, #20]	; (100002dc <__do_global_dtors_aux+0x20>)
100002c8:	2b00      	cmp	r3, #0
100002ca:	d002      	beq.n	100002d2 <__do_global_dtors_aux+0x16>
100002cc:	4804      	ldr	r0, [pc, #16]	; (100002e0 <__do_global_dtors_aux+0x24>)
100002ce:	e000      	b.n	100002d2 <__do_global_dtors_aux+0x16>
100002d0:	bf00      	nop
100002d2:	2301      	movs	r3, #1
100002d4:	7023      	strb	r3, [r4, #0]
100002d6:	bd10      	pop	{r4, pc}
100002d8:	20000570 	.word	0x20000570
100002dc:	00000000 	.word	0x00000000
100002e0:	10006d88 	.word	0x10006d88

100002e4 <frame_dummy>:
100002e4:	4b04      	ldr	r3, [pc, #16]	; (100002f8 <frame_dummy+0x14>)
100002e6:	b510      	push	{r4, lr}
100002e8:	2b00      	cmp	r3, #0
100002ea:	d003      	beq.n	100002f4 <frame_dummy+0x10>
100002ec:	4903      	ldr	r1, [pc, #12]	; (100002fc <frame_dummy+0x18>)
100002ee:	4804      	ldr	r0, [pc, #16]	; (10000300 <frame_dummy+0x1c>)
100002f0:	e000      	b.n	100002f4 <frame_dummy+0x10>
100002f2:	bf00      	nop
100002f4:	bd10      	pop	{r4, pc}
100002f6:	46c0      	nop			; (mov r8, r8)
100002f8:	00000000 	.word	0x00000000
100002fc:	20000574 	.word	0x20000574
10000300:	10006d88 	.word	0x10006d88

10000304 <main>:
10000304:	b530      	push	{r4, r5, lr}
10000306:	b08d      	sub	sp, #52	; 0x34
10000308:	f006 fb52 	bl	100069b0 <adc_init>
1000030c:	f000 f9aa 	bl	10000664 <tft_init_hw>
10000310:	f000 ff46 	bl	100011a0 <tft_begin>
10000314:	2003      	movs	r0, #3
10000316:	f002 f9fd 	bl	10002714 <tft_setRotation>
1000031a:	2000      	movs	r0, #0
1000031c:	f002 f9e6 	bl	100026ec <tft_fillScreen>
10000320:	4d18      	ldr	r5, [pc, #96]	; (10000384 <main+0x80>)
10000322:	ac02      	add	r4, sp, #8
10000324:	2164      	movs	r1, #100	; 0x64
10000326:	2014      	movs	r0, #20
10000328:	f002 fba2 	bl	10002a70 <tft_setCursor>
1000032c:	4816      	ldr	r0, [pc, #88]	; (10000388 <main+0x84>)
1000032e:	f002 fbb3 	bl	10002a98 <tft_setTextColor>
10000332:	2003      	movs	r0, #3
10000334:	f002 fba6 	bl	10002a84 <tft_setTextSize>
10000338:	2000      	movs	r0, #0
1000033a:	f002 fbad 	bl	10002a98 <tft_setTextColor>
1000033e:	a804      	add	r0, sp, #16
10000340:	f002 fb2a 	bl	10002998 <tft_writeString>
10000344:	2300      	movs	r3, #0
10000346:	0020      	movs	r0, r4
10000348:	9302      	str	r3, [sp, #8]
1000034a:	80a3      	strh	r3, [r4, #4]
1000034c:	f000 f81e 	bl	1000038c <getPoint>
10000350:	2164      	movs	r1, #100	; 0x64
10000352:	2014      	movs	r0, #20
10000354:	f002 fb8c 	bl	10002a70 <tft_setCursor>
10000358:	480b      	ldr	r0, [pc, #44]	; (10000388 <main+0x84>)
1000035a:	f002 fb9d 	bl	10002a98 <tft_setTextColor>
1000035e:	2202      	movs	r2, #2
10000360:	5ea3      	ldrsh	r3, [r4, r2]
10000362:	2100      	movs	r1, #0
10000364:	5e62      	ldrsh	r2, [r4, r1]
10000366:	2004      	movs	r0, #4
10000368:	5e21      	ldrsh	r1, [r4, r0]
1000036a:	a804      	add	r0, sp, #16
1000036c:	9100      	str	r1, [sp, #0]
1000036e:	0029      	movs	r1, r5
10000370:	f005 f9fa 	bl	10005768 <__wrap_sprintf>
10000374:	a804      	add	r0, sp, #16
10000376:	f002 fb0f 	bl	10002998 <tft_writeString>
1000037a:	2064      	movs	r0, #100	; 0x64
1000037c:	f003 f8f4 	bl	10003568 <sleep_ms>
10000380:	e7d0      	b.n	10000324 <main+0x20>
10000382:	46c0      	nop			; (mov r8, r8)
10000384:	10006d88 	.word	0x10006d88
10000388:	0000ffff 	.word	0x0000ffff

1000038c <getPoint>:
1000038c:	b5f0      	push	{r4, r5, r6, r7, lr}
1000038e:	46d6      	mov	lr, sl
10000390:	464f      	mov	r7, r9
10000392:	4646      	mov	r6, r8
10000394:	b5c0      	push	{r6, r7, lr}
10000396:	4681      	mov	r9, r0
10000398:	b084      	sub	sp, #16
1000039a:	2015      	movs	r0, #21
1000039c:	f002 fbdc 	bl	10002b58 <gpio_init>
100003a0:	24d0      	movs	r4, #208	; 0xd0
100003a2:	2380      	movs	r3, #128	; 0x80
100003a4:	0624      	lsls	r4, r4, #24
100003a6:	039b      	lsls	r3, r3, #14
100003a8:	62a3      	str	r3, [r4, #40]	; 0x28
100003aa:	211f      	movs	r1, #31
100003ac:	201b      	movs	r0, #27
100003ae:	f002 fb7d 	bl	10002aac <gpio_set_function>
100003b2:	2200      	movs	r2, #0
100003b4:	2100      	movs	r1, #0
100003b6:	201b      	movs	r0, #27
100003b8:	f002 fb90 	bl	10002adc <gpio_set_pulls>
100003bc:	2100      	movs	r1, #0
100003be:	201b      	movs	r0, #27
100003c0:	f002 fbb6 	bl	10002b30 <gpio_set_input_enabled>
100003c4:	2380      	movs	r3, #128	; 0x80
100003c6:	4d98      	ldr	r5, [pc, #608]	; (10000628 <getPoint+0x29c>)
100003c8:	015b      	lsls	r3, r3, #5
100003ca:	682a      	ldr	r2, [r5, #0]
100003cc:	2016      	movs	r0, #22
100003ce:	4053      	eors	r3, r2
100003d0:	22e0      	movs	r2, #224	; 0xe0
100003d2:	01d2      	lsls	r2, r2, #7
100003d4:	4013      	ands	r3, r2
100003d6:	4a95      	ldr	r2, [pc, #596]	; (1000062c <getPoint+0x2a0>)
100003d8:	af04      	add	r7, sp, #16
100003da:	6013      	str	r3, [r2, #0]
100003dc:	f002 fbbc 	bl	10002b58 <gpio_init>
100003e0:	2380      	movs	r3, #128	; 0x80
100003e2:	03db      	lsls	r3, r3, #15
100003e4:	6263      	str	r3, [r4, #36]	; 0x24
100003e6:	201a      	movs	r0, #26
100003e8:	6163      	str	r3, [r4, #20]
100003ea:	f002 fbb5 	bl	10002b58 <gpio_init>
100003ee:	2380      	movs	r3, #128	; 0x80
100003f0:	04db      	lsls	r3, r3, #19
100003f2:	6263      	str	r3, [r4, #36]	; 0x24
100003f4:	61a3      	str	r3, [r4, #24]
100003f6:	4b8e      	ldr	r3, [pc, #568]	; (10000630 <getPoint+0x2a4>)
100003f8:	ac01      	add	r4, sp, #4
100003fa:	2280      	movs	r2, #128	; 0x80
100003fc:	0026      	movs	r6, r4
100003fe:	0021      	movs	r1, r4
10000400:	469c      	mov	ip, r3
10000402:	2004      	movs	r0, #4
10000404:	0052      	lsls	r2, r2, #1
10000406:	4663      	mov	r3, ip
10000408:	6018      	str	r0, [r3, #0]
1000040a:	682b      	ldr	r3, [r5, #0]
1000040c:	4213      	tst	r3, r2
1000040e:	d0fc      	beq.n	1000040a <getPoint+0x7e>
10000410:	686b      	ldr	r3, [r5, #4]
10000412:	041b      	lsls	r3, r3, #16
10000414:	0c1b      	lsrs	r3, r3, #16
10000416:	c108      	stmia	r1!, {r3}
10000418:	42b9      	cmp	r1, r7
1000041a:	d1f4      	bne.n	10000406 <getPoint+0x7a>
1000041c:	9a02      	ldr	r2, [sp, #8]
1000041e:	9b01      	ldr	r3, [sp, #4]
10000420:	4293      	cmp	r3, r2
10000422:	dc00      	bgt.n	10000426 <getPoint+0x9a>
10000424:	e0fb      	b.n	1000061e <getPoint+0x292>
10000426:	9302      	str	r3, [sp, #8]
10000428:	0023      	movs	r3, r4
1000042a:	601a      	str	r2, [r3, #0]
1000042c:	9d03      	ldr	r5, [sp, #12]
1000042e:	2202      	movs	r2, #2
10000430:	a902      	add	r1, sp, #8
10000432:	e000      	b.n	10000436 <getPoint+0xaa>
10000434:	2201      	movs	r2, #1
10000436:	4b7f      	ldr	r3, [pc, #508]	; (10000634 <getPoint+0x2a8>)
10000438:	18d3      	adds	r3, r2, r3
1000043a:	009b      	lsls	r3, r3, #2
1000043c:	58e0      	ldr	r0, [r4, r3]
1000043e:	4285      	cmp	r5, r0
10000440:	db00      	blt.n	10000444 <getPoint+0xb8>
10000442:	e0e6      	b.n	10000612 <getPoint+0x286>
10000444:	50c8      	str	r0, [r1, r3]
10000446:	2a01      	cmp	r2, #1
10000448:	d1f4      	bne.n	10000434 <getPoint+0xa8>
1000044a:	0022      	movs	r2, r4
1000044c:	6015      	str	r5, [r2, #0]
1000044e:	6862      	ldr	r2, [r4, #4]
10000450:	4b79      	ldr	r3, [pc, #484]	; (10000638 <getPoint+0x2ac>)
10000452:	2016      	movs	r0, #22
10000454:	1a9b      	subs	r3, r3, r2
10000456:	4698      	mov	r8, r3
10000458:	f002 fb7e 	bl	10002b58 <gpio_init>
1000045c:	23d0      	movs	r3, #208	; 0xd0
1000045e:	061b      	lsls	r3, r3, #24
10000460:	469a      	mov	sl, r3
10000462:	2380      	movs	r3, #128	; 0x80
10000464:	4652      	mov	r2, sl
10000466:	03db      	lsls	r3, r3, #15
10000468:	6293      	str	r3, [r2, #40]	; 0x28
1000046a:	211f      	movs	r1, #31
1000046c:	201a      	movs	r0, #26
1000046e:	f002 fb1d 	bl	10002aac <gpio_set_function>
10000472:	2200      	movs	r2, #0
10000474:	2100      	movs	r1, #0
10000476:	201a      	movs	r0, #26
10000478:	f002 fb30 	bl	10002adc <gpio_set_pulls>
1000047c:	2100      	movs	r1, #0
1000047e:	201a      	movs	r0, #26
10000480:	f002 fb56 	bl	10002b30 <gpio_set_input_enabled>
10000484:	22e0      	movs	r2, #224	; 0xe0
10000486:	4d68      	ldr	r5, [pc, #416]	; (10000628 <getPoint+0x29c>)
10000488:	01d2      	lsls	r2, r2, #7
1000048a:	682b      	ldr	r3, [r5, #0]
1000048c:	201b      	movs	r0, #27
1000048e:	4013      	ands	r3, r2
10000490:	4a66      	ldr	r2, [pc, #408]	; (1000062c <getPoint+0x2a0>)
10000492:	6013      	str	r3, [r2, #0]
10000494:	f002 fb60 	bl	10002b58 <gpio_init>
10000498:	2380      	movs	r3, #128	; 0x80
1000049a:	4652      	mov	r2, sl
1000049c:	051b      	lsls	r3, r3, #20
1000049e:	6253      	str	r3, [r2, #36]	; 0x24
100004a0:	2015      	movs	r0, #21
100004a2:	6153      	str	r3, [r2, #20]
100004a4:	f002 fb58 	bl	10002b58 <gpio_init>
100004a8:	2380      	movs	r3, #128	; 0x80
100004aa:	4652      	mov	r2, sl
100004ac:	039b      	lsls	r3, r3, #14
100004ae:	6253      	str	r3, [r2, #36]	; 0x24
100004b0:	6193      	str	r3, [r2, #24]
100004b2:	2280      	movs	r2, #128	; 0x80
100004b4:	2104      	movs	r1, #4
100004b6:	485e      	ldr	r0, [pc, #376]	; (10000630 <getPoint+0x2a4>)
100004b8:	0052      	lsls	r2, r2, #1
100004ba:	6001      	str	r1, [r0, #0]
100004bc:	682b      	ldr	r3, [r5, #0]
100004be:	4213      	tst	r3, r2
100004c0:	d0fc      	beq.n	100004bc <getPoint+0x130>
100004c2:	686b      	ldr	r3, [r5, #4]
100004c4:	041b      	lsls	r3, r3, #16
100004c6:	0c1b      	lsrs	r3, r3, #16
100004c8:	c608      	stmia	r6!, {r3}
100004ca:	42be      	cmp	r6, r7
100004cc:	d1f5      	bne.n	100004ba <getPoint+0x12e>
100004ce:	9a02      	ldr	r2, [sp, #8]
100004d0:	9b01      	ldr	r3, [sp, #4]
100004d2:	4293      	cmp	r3, r2
100004d4:	dc00      	bgt.n	100004d8 <getPoint+0x14c>
100004d6:	e0a4      	b.n	10000622 <getPoint+0x296>
100004d8:	9302      	str	r3, [sp, #8]
100004da:	0023      	movs	r3, r4
100004dc:	601a      	str	r2, [r3, #0]
100004de:	9e03      	ldr	r6, [sp, #12]
100004e0:	2202      	movs	r2, #2
100004e2:	a802      	add	r0, sp, #8
100004e4:	e000      	b.n	100004e8 <getPoint+0x15c>
100004e6:	2201      	movs	r2, #1
100004e8:	4b52      	ldr	r3, [pc, #328]	; (10000634 <getPoint+0x2a8>)
100004ea:	18d3      	adds	r3, r2, r3
100004ec:	009b      	lsls	r3, r3, #2
100004ee:	58e1      	ldr	r1, [r4, r3]
100004f0:	428e      	cmp	r6, r1
100004f2:	db00      	blt.n	100004f6 <getPoint+0x16a>
100004f4:	e090      	b.n	10000618 <getPoint+0x28c>
100004f6:	50c1      	str	r1, [r0, r3]
100004f8:	2a01      	cmp	r2, #1
100004fa:	d1f4      	bne.n	100004e6 <getPoint+0x15a>
100004fc:	0022      	movs	r2, r4
100004fe:	6016      	str	r6, [r2, #0]
10000500:	6863      	ldr	r3, [r4, #4]
10000502:	4c4d      	ldr	r4, [pc, #308]	; (10000638 <getPoint+0x2ac>)
10000504:	2016      	movs	r0, #22
10000506:	1ae4      	subs	r4, r4, r3
10000508:	26d0      	movs	r6, #208	; 0xd0
1000050a:	f002 fb25 	bl	10002b58 <gpio_init>
1000050e:	2380      	movs	r3, #128	; 0x80
10000510:	0636      	lsls	r6, r6, #24
10000512:	03db      	lsls	r3, r3, #15
10000514:	6273      	str	r3, [r6, #36]	; 0x24
10000516:	2015      	movs	r0, #21
10000518:	61b3      	str	r3, [r6, #24]
1000051a:	f002 fb1d 	bl	10002b58 <gpio_init>
1000051e:	2380      	movs	r3, #128	; 0x80
10000520:	039b      	lsls	r3, r3, #14
10000522:	6273      	str	r3, [r6, #36]	; 0x24
10000524:	211f      	movs	r1, #31
10000526:	6173      	str	r3, [r6, #20]
10000528:	201a      	movs	r0, #26
1000052a:	f002 fabf 	bl	10002aac <gpio_set_function>
1000052e:	2200      	movs	r2, #0
10000530:	2100      	movs	r1, #0
10000532:	201a      	movs	r0, #26
10000534:	f002 fad2 	bl	10002adc <gpio_set_pulls>
10000538:	2100      	movs	r1, #0
1000053a:	201a      	movs	r0, #26
1000053c:	f002 faf8 	bl	10002b30 <gpio_set_input_enabled>
10000540:	211f      	movs	r1, #31
10000542:	201b      	movs	r0, #27
10000544:	f002 fab2 	bl	10002aac <gpio_set_function>
10000548:	2200      	movs	r2, #0
1000054a:	2100      	movs	r1, #0
1000054c:	201b      	movs	r0, #27
1000054e:	f002 fac5 	bl	10002adc <gpio_set_pulls>
10000552:	2100      	movs	r1, #0
10000554:	201b      	movs	r0, #27
10000556:	f002 faeb 	bl	10002b30 <gpio_set_input_enabled>
1000055a:	21e0      	movs	r1, #224	; 0xe0
1000055c:	4a32      	ldr	r2, [pc, #200]	; (10000628 <getPoint+0x29c>)
1000055e:	01c9      	lsls	r1, r1, #7
10000560:	6813      	ldr	r3, [r2, #0]
10000562:	400b      	ands	r3, r1
10000564:	4931      	ldr	r1, [pc, #196]	; (1000062c <getPoint+0x2a0>)
10000566:	600b      	str	r3, [r1, #0]
10000568:	2104      	movs	r1, #4
1000056a:	4b31      	ldr	r3, [pc, #196]	; (10000630 <getPoint+0x2a4>)
1000056c:	6019      	str	r1, [r3, #0]
1000056e:	31fc      	adds	r1, #252	; 0xfc
10000570:	6813      	ldr	r3, [r2, #0]
10000572:	420b      	tst	r3, r1
10000574:	d0fc      	beq.n	10000570 <getPoint+0x1e4>
10000576:	2380      	movs	r3, #128	; 0x80
10000578:	6856      	ldr	r6, [r2, #4]
1000057a:	6812      	ldr	r2, [r2, #0]
1000057c:	015b      	lsls	r3, r3, #5
1000057e:	4053      	eors	r3, r2
10000580:	22e0      	movs	r2, #224	; 0xe0
10000582:	01d2      	lsls	r2, r2, #7
10000584:	4013      	ands	r3, r2
10000586:	4a29      	ldr	r2, [pc, #164]	; (1000062c <getPoint+0x2a0>)
10000588:	2180      	movs	r1, #128	; 0x80
1000058a:	6013      	str	r3, [r2, #0]
1000058c:	2204      	movs	r2, #4
1000058e:	4b28      	ldr	r3, [pc, #160]	; (10000630 <getPoint+0x2a4>)
10000590:	0436      	lsls	r6, r6, #16
10000592:	601a      	str	r2, [r3, #0]
10000594:	4a24      	ldr	r2, [pc, #144]	; (10000628 <getPoint+0x29c>)
10000596:	0c36      	lsrs	r6, r6, #16
10000598:	0049      	lsls	r1, r1, #1
1000059a:	6813      	ldr	r3, [r2, #0]
1000059c:	420b      	tst	r3, r1
1000059e:	d0fc      	beq.n	1000059a <getPoint+0x20e>
100005a0:	6850      	ldr	r0, [r2, #4]
100005a2:	0400      	lsls	r0, r0, #16
100005a4:	0c00      	lsrs	r0, r0, #16
100005a6:	f005 fffd 	bl	100065a4 <__wrap___aeabi_i2f>
100005aa:	1c07      	adds	r7, r0, #0
100005ac:	0030      	movs	r0, r6
100005ae:	f005 fff9 	bl	100065a4 <__wrap___aeabi_i2f>
100005b2:	1c01      	adds	r1, r0, #0
100005b4:	1c38      	adds	r0, r7, #0
100005b6:	f005 ffac 	bl	10006512 <__wrap___aeabi_fdiv>
100005ba:	21fe      	movs	r1, #254	; 0xfe
100005bc:	0589      	lsls	r1, r1, #22
100005be:	f005 ffa2 	bl	10006506 <__wrap___aeabi_fsub>
100005c2:	1c06      	adds	r6, r0, #0
100005c4:	4640      	mov	r0, r8
100005c6:	f005 ffed 	bl	100065a4 <__wrap___aeabi_i2f>
100005ca:	1c31      	adds	r1, r6, #0
100005cc:	f005 ffb5 	bl	1000653a <__wrap___aeabi_fmul>
100005d0:	491a      	ldr	r1, [pc, #104]	; (1000063c <getPoint+0x2b0>)
100005d2:	f005 ffb2 	bl	1000653a <__wrap___aeabi_fmul>
100005d6:	21e6      	movs	r1, #230	; 0xe6
100005d8:	0589      	lsls	r1, r1, #22
100005da:	f005 ffae 	bl	1000653a <__wrap___aeabi_fmul>
100005de:	4918      	ldr	r1, [pc, #96]	; (10000640 <getPoint+0x2b4>)
100005e0:	1c06      	adds	r6, r0, #0
100005e2:	f005 ffd9 	bl	10006598 <__wrap___aeabi_fcmpgt>
100005e6:	2800      	cmp	r0, #0
100005e8:	d111      	bne.n	1000060e <getPoint+0x282>
100005ea:	1c30      	adds	r0, r6, #0
100005ec:	f005 fffc 	bl	100065e8 <__wrap___aeabi_f2iz>
100005f0:	b206      	sxth	r6, r0
100005f2:	4814      	ldr	r0, [pc, #80]	; (10000644 <getPoint+0x2b8>)
100005f4:	f006 f9be 	bl	10006974 <__wrap_puts>
100005f8:	464b      	mov	r3, r9
100005fa:	4642      	mov	r2, r8
100005fc:	805c      	strh	r4, [r3, #2]
100005fe:	801a      	strh	r2, [r3, #0]
10000600:	809e      	strh	r6, [r3, #4]
10000602:	b004      	add	sp, #16
10000604:	bce0      	pop	{r5, r6, r7}
10000606:	46ba      	mov	sl, r7
10000608:	46b1      	mov	r9, r6
1000060a:	46a8      	mov	r8, r5
1000060c:	bdf0      	pop	{r4, r5, r6, r7, pc}
1000060e:	4e0e      	ldr	r6, [pc, #56]	; (10000648 <getPoint+0x2bc>)
10000610:	e7ef      	b.n	100005f2 <getPoint+0x266>
10000612:	0092      	lsls	r2, r2, #2
10000614:	18a2      	adds	r2, r4, r2
10000616:	e719      	b.n	1000044c <getPoint+0xc0>
10000618:	0092      	lsls	r2, r2, #2
1000061a:	18a2      	adds	r2, r4, r2
1000061c:	e76f      	b.n	100004fe <getPoint+0x172>
1000061e:	ab02      	add	r3, sp, #8
10000620:	e703      	b.n	1000042a <getPoint+0x9e>
10000622:	ab02      	add	r3, sp, #8
10000624:	e75a      	b.n	100004dc <getPoint+0x150>
10000626:	46c0      	nop			; (mov r8, r8)
10000628:	4004c000 	.word	0x4004c000
1000062c:	4004d000 	.word	0x4004d000
10000630:	4004e000 	.word	0x4004e000
10000634:	3fffffff 	.word	0x3fffffff
10000638:	00000fff 	.word	0x00000fff
1000063c:	43898000 	.word	0x43898000
10000640:	46fffe00 	.word	0x46fffe00
10000644:	10006d9c 	.word	0x10006d9c
10000648:	00007fff 	.word	0x00007fff

1000064c <pioPinHandler>:
1000064c:	2201      	movs	r2, #1
1000064e:	4b03      	ldr	r3, [pc, #12]	; (1000065c <pioPinHandler+0x10>)
10000650:	631a      	str	r2, [r3, #48]	; 0x30
10000652:	2200      	movs	r2, #0
10000654:	4b02      	ldr	r3, [pc, #8]	; (10000660 <pioPinHandler+0x14>)
10000656:	701a      	strb	r2, [r3, #0]
10000658:	4770      	bx	lr
1000065a:	46c0      	nop			; (mov r8, r8)
1000065c:	50200000 	.word	0x50200000
10000660:	20000198 	.word	0x20000198

10000664 <tft_init_hw>:
10000664:	b5f0      	push	{r4, r5, r6, r7, lr}
10000666:	46c6      	mov	lr, r8
10000668:	22f0      	movs	r2, #240	; 0xf0
1000066a:	b500      	push	{lr}
1000066c:	4b40      	ldr	r3, [pc, #256]	; (10000770 <tft_init_hw+0x10c>)
1000066e:	b084      	sub	sp, #16
10000670:	801a      	strh	r2, [r3, #0]
10000672:	4b40      	ldr	r3, [pc, #256]	; (10000774 <tft_init_hw+0x110>)
10000674:	3250      	adds	r2, #80	; 0x50
10000676:	2012      	movs	r0, #18
10000678:	801a      	strh	r2, [r3, #0]
1000067a:	24d0      	movs	r4, #208	; 0xd0
1000067c:	f002 fa6c 	bl	10002b58 <gpio_init>
10000680:	2380      	movs	r3, #128	; 0x80
10000682:	0624      	lsls	r4, r4, #24
10000684:	02db      	lsls	r3, r3, #11
10000686:	6263      	str	r3, [r4, #36]	; 0x24
10000688:	2014      	movs	r0, #20
1000068a:	6163      	str	r3, [r4, #20]
1000068c:	f002 fa64 	bl	10002b58 <gpio_init>
10000690:	2380      	movs	r3, #128	; 0x80
10000692:	035b      	lsls	r3, r3, #13
10000694:	6263      	str	r3, [r4, #36]	; 0x24
10000696:	2010      	movs	r0, #16
10000698:	f002 fa5e 	bl	10002b58 <gpio_init>
1000069c:	2380      	movs	r3, #128	; 0x80
1000069e:	4e36      	ldr	r6, [pc, #216]	; (10000778 <tft_init_hw+0x114>)
100006a0:	025b      	lsls	r3, r3, #9
100006a2:	6263      	str	r3, [r4, #36]	; 0x24
100006a4:	4935      	ldr	r1, [pc, #212]	; (1000077c <tft_init_hw+0x118>)
100006a6:	6830      	ldr	r0, [r6, #0]
100006a8:	4698      	mov	r8, r3
100006aa:	f006 f99d 	bl	100069e8 <pio_add_program>
100006ae:	4b34      	ldr	r3, [pc, #208]	; (10000780 <tft_init_hw+0x11c>)
100006b0:	01c2      	lsls	r2, r0, #7
100006b2:	6018      	str	r0, [r3, #0]
100006b4:	1d43      	adds	r3, r0, #5
100006b6:	031b      	lsls	r3, r3, #12
100006b8:	4313      	orrs	r3, r2
100006ba:	4a32      	ldr	r2, [pc, #200]	; (10000784 <tft_init_hw+0x120>)
100006bc:	6834      	ldr	r4, [r6, #0]
100006be:	4013      	ands	r3, r2
100006c0:	9301      	str	r3, [sp, #4]
100006c2:	4b31      	ldr	r3, [pc, #196]	; (10000788 <tft_init_hw+0x124>)
100006c4:	6875      	ldr	r5, [r6, #4]
100006c6:	9303      	str	r3, [sp, #12]
100006c8:	4b30      	ldr	r3, [pc, #192]	; (1000078c <tft_init_hw+0x128>)
100006ca:	0007      	movs	r7, r0
100006cc:	9302      	str	r3, [sp, #8]
100006ce:	4643      	mov	r3, r8
100006d0:	9300      	str	r3, [sp, #0]
100006d2:	23a0      	movs	r3, #160	; 0xa0
100006d4:	0029      	movs	r1, r5
100006d6:	0020      	movs	r0, r4
100006d8:	2200      	movs	r2, #0
100006da:	031b      	lsls	r3, r3, #12
100006dc:	f006 f9e8 	bl	10006ab0 <pio_sm_set_pins_with_mask>
100006e0:	23a0      	movs	r3, #160	; 0xa0
100006e2:	031b      	lsls	r3, r3, #12
100006e4:	001a      	movs	r2, r3
100006e6:	0029      	movs	r1, r5
100006e8:	0020      	movs	r0, r4
100006ea:	f006 fa33 	bl	10006b54 <pio_sm_set_pindirs_with_mask>
100006ee:	4b28      	ldr	r3, [pc, #160]	; (10000790 <tft_init_hw+0x12c>)
100006f0:	2013      	movs	r0, #19
100006f2:	18e3      	adds	r3, r4, r3
100006f4:	1e5a      	subs	r2, r3, #1
100006f6:	4193      	sbcs	r3, r2
100006f8:	3306      	adds	r3, #6
100006fa:	4698      	mov	r8, r3
100006fc:	0019      	movs	r1, r3
100006fe:	f002 f9d5 	bl	10002aac <gpio_set_function>
10000702:	4641      	mov	r1, r8
10000704:	2011      	movs	r0, #17
10000706:	f002 f9d1 	bl	10002aac <gpio_set_function>
1000070a:	2100      	movs	r1, #0
1000070c:	2011      	movs	r0, #17
1000070e:	f002 f9fd 	bl	10002b0c <gpio_set_outover>
10000712:	466b      	mov	r3, sp
10000714:	003a      	movs	r2, r7
10000716:	0029      	movs	r1, r5
10000718:	0020      	movs	r0, r4
1000071a:	f006 fa6d 	bl	10006bf8 <pio_sm_init>
1000071e:	006b      	lsls	r3, r5, #1
10000720:	195b      	adds	r3, r3, r5
10000722:	00db      	lsls	r3, r3, #3
10000724:	4a1b      	ldr	r2, [pc, #108]	; (10000794 <tft_init_hw+0x130>)
10000726:	18e3      	adds	r3, r4, r3
10000728:	33d8      	adds	r3, #216	; 0xd8
1000072a:	601a      	str	r2, [r3, #0]
1000072c:	4a1a      	ldr	r2, [pc, #104]	; (10000798 <tft_init_hw+0x134>)
1000072e:	2007      	movs	r0, #7
10000730:	601a      	str	r2, [r3, #0]
10000732:	2201      	movs	r2, #1
10000734:	0013      	movs	r3, r2
10000736:	40ab      	lsls	r3, r5
10000738:	6821      	ldr	r1, [r4, #0]
1000073a:	430b      	orrs	r3, r1
1000073c:	6023      	str	r3, [r4, #0]
1000073e:	6833      	ldr	r3, [r6, #0]
10000740:	4916      	ldr	r1, [pc, #88]	; (1000079c <tft_init_hw+0x138>)
10000742:	631a      	str	r2, [r3, #48]	; 0x30
10000744:	2280      	movs	r2, #128	; 0x80
10000746:	332d      	adds	r3, #45	; 0x2d
10000748:	0192      	lsls	r2, r2, #6
1000074a:	33ff      	adds	r3, #255	; 0xff
1000074c:	4313      	orrs	r3, r2
1000074e:	2280      	movs	r2, #128	; 0x80
10000750:	0052      	lsls	r2, r2, #1
10000752:	601a      	str	r2, [r3, #0]
10000754:	f002 fa92 	bl	10002c7c <irq_set_exclusive_handler>
10000758:	2101      	movs	r1, #1
1000075a:	2007      	movs	r0, #7
1000075c:	f002 fa74 	bl	10002c48 <irq_set_enabled>
10000760:	20fa      	movs	r0, #250	; 0xfa
10000762:	0040      	lsls	r0, r0, #1
10000764:	f002 ff00 	bl	10003568 <sleep_ms>
10000768:	b004      	add	sp, #16
1000076a:	bc80      	pop	{r7}
1000076c:	46b8      	mov	r8, r7
1000076e:	bdf0      	pop	{r4, r5, r6, r7, pc}
10000770:	20000646 	.word	0x20000646
10000774:	20000644 	.word	0x20000644
10000778:	2000019c 	.word	0x2000019c
1000077c:	100072a0 	.word	0x100072a0
10000780:	20000618 	.word	0x20000618
10000784:	9fffffff 	.word	0x9fffffff
10000788:	20104413 	.word	0x20104413
1000078c:	10060000 	.word	0x10060000
10000790:	afe00000 	.word	0xafe00000
10000794:	0000e026 	.word	0x0000e026
10000798:	0000e046 	.word	0x0000e046
1000079c:	1000064d 	.word	0x1000064d

100007a0 <tft_spiwrite16>:
100007a0:	2201      	movs	r2, #1
100007a2:	b570      	push	{r4, r5, r6, lr}
100007a4:	4d10      	ldr	r5, [pc, #64]	; (100007e8 <tft_spiwrite16+0x48>)
100007a6:	0a06      	lsrs	r6, r0, #8
100007a8:	686b      	ldr	r3, [r5, #4]
100007aa:	6829      	ldr	r1, [r5, #0]
100007ac:	1d1c      	adds	r4, r3, #4
100007ae:	3310      	adds	r3, #16
100007b0:	409a      	lsls	r2, r3
100007b2:	00a4      	lsls	r4, r4, #2
100007b4:	190c      	adds	r4, r1, r4
100007b6:	684b      	ldr	r3, [r1, #4]
100007b8:	421a      	tst	r2, r3
100007ba:	d1fc      	bne.n	100007b6 <tft_spiwrite16+0x16>
100007bc:	7026      	strb	r6, [r4, #0]
100007be:	cd12      	ldmia	r5!, {r1, r4}
100007c0:	0023      	movs	r3, r4
100007c2:	2201      	movs	r2, #1
100007c4:	3310      	adds	r3, #16
100007c6:	409a      	lsls	r2, r3
100007c8:	4d08      	ldr	r5, [pc, #32]	; (100007ec <tft_spiwrite16+0x4c>)
100007ca:	782b      	ldrb	r3, [r5, #0]
100007cc:	2b00      	cmp	r3, #0
100007ce:	d1fc      	bne.n	100007ca <tft_spiwrite16+0x2a>
100007d0:	3404      	adds	r4, #4
100007d2:	3301      	adds	r3, #1
100007d4:	00a4      	lsls	r4, r4, #2
100007d6:	702b      	strb	r3, [r5, #0]
100007d8:	b2c0      	uxtb	r0, r0
100007da:	190c      	adds	r4, r1, r4
100007dc:	684b      	ldr	r3, [r1, #4]
100007de:	4213      	tst	r3, r2
100007e0:	d1fc      	bne.n	100007dc <tft_spiwrite16+0x3c>
100007e2:	7020      	strb	r0, [r4, #0]
100007e4:	bd70      	pop	{r4, r5, r6, pc}
100007e6:	46c0      	nop			; (mov r8, r8)
100007e8:	2000019c 	.word	0x2000019c
100007ec:	20000198 	.word	0x20000198

100007f0 <tft_drawPixel.part.0>:
100007f0:	b5f0      	push	{r4, r5, r6, r7, lr}
100007f2:	23d0      	movs	r3, #208	; 0xd0
100007f4:	0015      	movs	r5, r2
100007f6:	2280      	movs	r2, #128	; 0x80
100007f8:	46c6      	mov	lr, r8
100007fa:	061b      	lsls	r3, r3, #24
100007fc:	0252      	lsls	r2, r2, #9
100007fe:	b500      	push	{lr}
10000800:	619a      	str	r2, [r3, #24]
10000802:	2280      	movs	r2, #128	; 0x80
10000804:	02d2      	lsls	r2, r2, #11
10000806:	619a      	str	r2, [r3, #24]
10000808:	2201      	movs	r2, #1
1000080a:	4e81      	ldr	r6, [pc, #516]	; (10000a10 <tft_drawPixel.part.0+0x220>)
1000080c:	000f      	movs	r7, r1
1000080e:	6873      	ldr	r3, [r6, #4]
10000810:	6831      	ldr	r1, [r6, #0]
10000812:	1d1c      	adds	r4, r3, #4
10000814:	3310      	adds	r3, #16
10000816:	409a      	lsls	r2, r3
10000818:	00a4      	lsls	r4, r4, #2
1000081a:	190c      	adds	r4, r1, r4
1000081c:	684b      	ldr	r3, [r1, #4]
1000081e:	421a      	tst	r2, r3
10000820:	d1fc      	bne.n	1000081c <tft_drawPixel.part.0+0x2c>
10000822:	232a      	movs	r3, #42	; 0x2a
10000824:	7023      	strb	r3, [r4, #0]
10000826:	46c0      	nop			; (mov r8, r8)
10000828:	46c0      	nop			; (mov r8, r8)
1000082a:	46c0      	nop			; (mov r8, r8)
1000082c:	46c0      	nop			; (mov r8, r8)
1000082e:	46c0      	nop			; (mov r8, r8)
10000830:	46c0      	nop			; (mov r8, r8)
10000832:	46c0      	nop			; (mov r8, r8)
10000834:	46c0      	nop			; (mov r8, r8)
10000836:	46c0      	nop			; (mov r8, r8)
10000838:	46c0      	nop			; (mov r8, r8)
1000083a:	46c0      	nop			; (mov r8, r8)
1000083c:	46c0      	nop			; (mov r8, r8)
1000083e:	46c0      	nop			; (mov r8, r8)
10000840:	46c0      	nop			; (mov r8, r8)
10000842:	46c0      	nop			; (mov r8, r8)
10000844:	46c0      	nop			; (mov r8, r8)
10000846:	46c0      	nop			; (mov r8, r8)
10000848:	46c0      	nop			; (mov r8, r8)
1000084a:	46c0      	nop			; (mov r8, r8)
1000084c:	46c0      	nop			; (mov r8, r8)
1000084e:	46c0      	nop			; (mov r8, r8)
10000850:	46c0      	nop			; (mov r8, r8)
10000852:	46c0      	nop			; (mov r8, r8)
10000854:	46c0      	nop			; (mov r8, r8)
10000856:	46c0      	nop			; (mov r8, r8)
10000858:	46c0      	nop			; (mov r8, r8)
1000085a:	46c0      	nop			; (mov r8, r8)
1000085c:	46c0      	nop			; (mov r8, r8)
1000085e:	46c0      	nop			; (mov r8, r8)
10000860:	46c0      	nop			; (mov r8, r8)
10000862:	46c0      	nop			; (mov r8, r8)
10000864:	46c0      	nop			; (mov r8, r8)
10000866:	46c0      	nop			; (mov r8, r8)
10000868:	46c0      	nop			; (mov r8, r8)
1000086a:	46c0      	nop			; (mov r8, r8)
1000086c:	46c0      	nop			; (mov r8, r8)
1000086e:	46c0      	nop			; (mov r8, r8)
10000870:	46c0      	nop			; (mov r8, r8)
10000872:	46c0      	nop			; (mov r8, r8)
10000874:	46c0      	nop			; (mov r8, r8)
10000876:	46c0      	nop			; (mov r8, r8)
10000878:	46c0      	nop			; (mov r8, r8)
1000087a:	46c0      	nop			; (mov r8, r8)
1000087c:	46c0      	nop			; (mov r8, r8)
1000087e:	46c0      	nop			; (mov r8, r8)
10000880:	46c0      	nop			; (mov r8, r8)
10000882:	46c0      	nop			; (mov r8, r8)
10000884:	46c0      	nop			; (mov r8, r8)
10000886:	46c0      	nop			; (mov r8, r8)
10000888:	46c0      	nop			; (mov r8, r8)
1000088a:	46c0      	nop			; (mov r8, r8)
1000088c:	46c0      	nop			; (mov r8, r8)
1000088e:	46c0      	nop			; (mov r8, r8)
10000890:	46c0      	nop			; (mov r8, r8)
10000892:	46c0      	nop			; (mov r8, r8)
10000894:	46c0      	nop			; (mov r8, r8)
10000896:	46c0      	nop			; (mov r8, r8)
10000898:	46c0      	nop			; (mov r8, r8)
1000089a:	46c0      	nop			; (mov r8, r8)
1000089c:	46c0      	nop			; (mov r8, r8)
1000089e:	46c0      	nop			; (mov r8, r8)
100008a0:	46c0      	nop			; (mov r8, r8)
100008a2:	46c0      	nop			; (mov r8, r8)
100008a4:	46c0      	nop			; (mov r8, r8)
100008a6:	4c5b      	ldr	r4, [pc, #364]	; (10000a14 <tft_drawPixel.part.0+0x224>)
100008a8:	7823      	ldrb	r3, [r4, #0]
100008aa:	2b00      	cmp	r3, #0
100008ac:	d1fc      	bne.n	100008a8 <tft_drawPixel.part.0+0xb8>
100008ae:	3301      	adds	r3, #1
100008b0:	7023      	strb	r3, [r4, #0]
100008b2:	2280      	movs	r2, #128	; 0x80
100008b4:	23d0      	movs	r3, #208	; 0xd0
100008b6:	2180      	movs	r1, #128	; 0x80
100008b8:	061b      	lsls	r3, r3, #24
100008ba:	02d2      	lsls	r2, r2, #11
100008bc:	0249      	lsls	r1, r1, #9
100008be:	615a      	str	r2, [r3, #20]
100008c0:	6159      	str	r1, [r3, #20]
100008c2:	619a      	str	r2, [r3, #24]
100008c4:	b283      	uxth	r3, r0
100008c6:	0018      	movs	r0, r3
100008c8:	4698      	mov	r8, r3
100008ca:	f7ff ff69 	bl	100007a0 <tft_spiwrite16>
100008ce:	46c0      	nop			; (mov r8, r8)
100008d0:	46c0      	nop			; (mov r8, r8)
100008d2:	46c0      	nop			; (mov r8, r8)
100008d4:	46c0      	nop			; (mov r8, r8)
100008d6:	46c0      	nop			; (mov r8, r8)
100008d8:	46c0      	nop			; (mov r8, r8)
100008da:	46c0      	nop			; (mov r8, r8)
100008dc:	46c0      	nop			; (mov r8, r8)
100008de:	46c0      	nop			; (mov r8, r8)
100008e0:	46c0      	nop			; (mov r8, r8)
100008e2:	46c0      	nop			; (mov r8, r8)
100008e4:	46c0      	nop			; (mov r8, r8)
100008e6:	46c0      	nop			; (mov r8, r8)
100008e8:	46c0      	nop			; (mov r8, r8)
100008ea:	46c0      	nop			; (mov r8, r8)
100008ec:	46c0      	nop			; (mov r8, r8)
100008ee:	46c0      	nop			; (mov r8, r8)
100008f0:	46c0      	nop			; (mov r8, r8)
100008f2:	46c0      	nop			; (mov r8, r8)
100008f4:	46c0      	nop			; (mov r8, r8)
100008f6:	46c0      	nop			; (mov r8, r8)
100008f8:	46c0      	nop			; (mov r8, r8)
100008fa:	46c0      	nop			; (mov r8, r8)
100008fc:	46c0      	nop			; (mov r8, r8)
100008fe:	46c0      	nop			; (mov r8, r8)
10000900:	46c0      	nop			; (mov r8, r8)
10000902:	46c0      	nop			; (mov r8, r8)
10000904:	46c0      	nop			; (mov r8, r8)
10000906:	46c0      	nop			; (mov r8, r8)
10000908:	46c0      	nop			; (mov r8, r8)
1000090a:	46c0      	nop			; (mov r8, r8)
1000090c:	46c0      	nop			; (mov r8, r8)
1000090e:	46c0      	nop			; (mov r8, r8)
10000910:	46c0      	nop			; (mov r8, r8)
10000912:	46c0      	nop			; (mov r8, r8)
10000914:	46c0      	nop			; (mov r8, r8)
10000916:	46c0      	nop			; (mov r8, r8)
10000918:	46c0      	nop			; (mov r8, r8)
1000091a:	46c0      	nop			; (mov r8, r8)
1000091c:	46c0      	nop			; (mov r8, r8)
1000091e:	46c0      	nop			; (mov r8, r8)
10000920:	46c0      	nop			; (mov r8, r8)
10000922:	46c0      	nop			; (mov r8, r8)
10000924:	46c0      	nop			; (mov r8, r8)
10000926:	46c0      	nop			; (mov r8, r8)
10000928:	46c0      	nop			; (mov r8, r8)
1000092a:	46c0      	nop			; (mov r8, r8)
1000092c:	46c0      	nop			; (mov r8, r8)
1000092e:	46c0      	nop			; (mov r8, r8)
10000930:	46c0      	nop			; (mov r8, r8)
10000932:	46c0      	nop			; (mov r8, r8)
10000934:	46c0      	nop			; (mov r8, r8)
10000936:	46c0      	nop			; (mov r8, r8)
10000938:	46c0      	nop			; (mov r8, r8)
1000093a:	46c0      	nop			; (mov r8, r8)
1000093c:	46c0      	nop			; (mov r8, r8)
1000093e:	46c0      	nop			; (mov r8, r8)
10000940:	46c0      	nop			; (mov r8, r8)
10000942:	46c0      	nop			; (mov r8, r8)
10000944:	46c0      	nop			; (mov r8, r8)
10000946:	46c0      	nop			; (mov r8, r8)
10000948:	46c0      	nop			; (mov r8, r8)
1000094a:	46c0      	nop			; (mov r8, r8)
1000094c:	46c0      	nop			; (mov r8, r8)
1000094e:	46c0      	nop			; (mov r8, r8)
10000950:	46c0      	nop			; (mov r8, r8)
10000952:	46c0      	nop			; (mov r8, r8)
10000954:	46c0      	nop			; (mov r8, r8)
10000956:	46c0      	nop			; (mov r8, r8)
10000958:	46c0      	nop			; (mov r8, r8)
1000095a:	46c0      	nop			; (mov r8, r8)
1000095c:	46c0      	nop			; (mov r8, r8)
1000095e:	46c0      	nop			; (mov r8, r8)
10000960:	46c0      	nop			; (mov r8, r8)
10000962:	46c0      	nop			; (mov r8, r8)
10000964:	46c0      	nop			; (mov r8, r8)
10000966:	46c0      	nop			; (mov r8, r8)
10000968:	46c0      	nop			; (mov r8, r8)
1000096a:	46c0      	nop			; (mov r8, r8)
1000096c:	46c0      	nop			; (mov r8, r8)
1000096e:	46c0      	nop			; (mov r8, r8)
10000970:	46c0      	nop			; (mov r8, r8)
10000972:	46c0      	nop			; (mov r8, r8)
10000974:	46c0      	nop			; (mov r8, r8)
10000976:	46c0      	nop			; (mov r8, r8)
10000978:	46c0      	nop			; (mov r8, r8)
1000097a:	46c0      	nop			; (mov r8, r8)
1000097c:	46c0      	nop			; (mov r8, r8)
1000097e:	46c0      	nop			; (mov r8, r8)
10000980:	46c0      	nop			; (mov r8, r8)
10000982:	46c0      	nop			; (mov r8, r8)
10000984:	46c0      	nop			; (mov r8, r8)
10000986:	46c0      	nop			; (mov r8, r8)
10000988:	46c0      	nop			; (mov r8, r8)
1000098a:	46c0      	nop			; (mov r8, r8)
1000098c:	46c0      	nop			; (mov r8, r8)
1000098e:	46c0      	nop			; (mov r8, r8)
10000990:	46c0      	nop			; (mov r8, r8)
10000992:	46c0      	nop			; (mov r8, r8)
10000994:	46c0      	nop			; (mov r8, r8)
10000996:	46c0      	nop			; (mov r8, r8)
10000998:	46c0      	nop			; (mov r8, r8)
1000099a:	46c0      	nop			; (mov r8, r8)
1000099c:	46c0      	nop			; (mov r8, r8)
1000099e:	46c0      	nop			; (mov r8, r8)
100009a0:	46c0      	nop			; (mov r8, r8)
100009a2:	46c0      	nop			; (mov r8, r8)
100009a4:	46c0      	nop			; (mov r8, r8)
100009a6:	46c0      	nop			; (mov r8, r8)
100009a8:	46c0      	nop			; (mov r8, r8)
100009aa:	46c0      	nop			; (mov r8, r8)
100009ac:	46c0      	nop			; (mov r8, r8)
100009ae:	46c0      	nop			; (mov r8, r8)
100009b0:	46c0      	nop			; (mov r8, r8)
100009b2:	46c0      	nop			; (mov r8, r8)
100009b4:	46c0      	nop			; (mov r8, r8)
100009b6:	46c0      	nop			; (mov r8, r8)
100009b8:	46c0      	nop			; (mov r8, r8)
100009ba:	46c0      	nop			; (mov r8, r8)
100009bc:	46c0      	nop			; (mov r8, r8)
100009be:	46c0      	nop			; (mov r8, r8)
100009c0:	46c0      	nop			; (mov r8, r8)
100009c2:	46c0      	nop			; (mov r8, r8)
100009c4:	46c0      	nop			; (mov r8, r8)
100009c6:	46c0      	nop			; (mov r8, r8)
100009c8:	46c0      	nop			; (mov r8, r8)
100009ca:	46c0      	nop			; (mov r8, r8)
100009cc:	46c0      	nop			; (mov r8, r8)
100009ce:	46c0      	nop			; (mov r8, r8)
100009d0:	46c0      	nop			; (mov r8, r8)
100009d2:	46c0      	nop			; (mov r8, r8)
100009d4:	46c0      	nop			; (mov r8, r8)
100009d6:	46c0      	nop			; (mov r8, r8)
100009d8:	46c0      	nop			; (mov r8, r8)
100009da:	46c0      	nop			; (mov r8, r8)
100009dc:	46c0      	nop			; (mov r8, r8)
100009de:	46c0      	nop			; (mov r8, r8)
100009e0:	46c0      	nop			; (mov r8, r8)
100009e2:	46c0      	nop			; (mov r8, r8)
100009e4:	46c0      	nop			; (mov r8, r8)
100009e6:	46c0      	nop			; (mov r8, r8)
100009e8:	46c0      	nop			; (mov r8, r8)
100009ea:	46c0      	nop			; (mov r8, r8)
100009ec:	46c0      	nop			; (mov r8, r8)
100009ee:	46c0      	nop			; (mov r8, r8)
100009f0:	46c0      	nop			; (mov r8, r8)
100009f2:	46c0      	nop			; (mov r8, r8)
100009f4:	46c0      	nop			; (mov r8, r8)
100009f6:	46c0      	nop			; (mov r8, r8)
100009f8:	46c0      	nop			; (mov r8, r8)
100009fa:	46c0      	nop			; (mov r8, r8)
100009fc:	46c0      	nop			; (mov r8, r8)
100009fe:	46c0      	nop			; (mov r8, r8)
10000a00:	46c0      	nop			; (mov r8, r8)
10000a02:	46c0      	nop			; (mov r8, r8)
10000a04:	46c0      	nop			; (mov r8, r8)
10000a06:	46c0      	nop			; (mov r8, r8)
10000a08:	46c0      	nop			; (mov r8, r8)
10000a0a:	46c0      	nop			; (mov r8, r8)
10000a0c:	46c0      	nop			; (mov r8, r8)
10000a0e:	e003      	b.n	10000a18 <tft_drawPixel.part.0+0x228>
10000a10:	2000019c 	.word	0x2000019c
10000a14:	20000198 	.word	0x20000198
10000a18:	7823      	ldrb	r3, [r4, #0]
10000a1a:	2b00      	cmp	r3, #0
10000a1c:	d1fc      	bne.n	10000a18 <tft_drawPixel.part.0+0x228>
10000a1e:	3301      	adds	r3, #1
10000a20:	7023      	strb	r3, [r4, #0]
10000a22:	4640      	mov	r0, r8
10000a24:	23d0      	movs	r3, #208	; 0xd0
10000a26:	2280      	movs	r2, #128	; 0x80
10000a28:	061b      	lsls	r3, r3, #24
10000a2a:	02d2      	lsls	r2, r2, #11
10000a2c:	3001      	adds	r0, #1
10000a2e:	615a      	str	r2, [r3, #20]
10000a30:	b280      	uxth	r0, r0
10000a32:	619a      	str	r2, [r3, #24]
10000a34:	f7ff feb4 	bl	100007a0 <tft_spiwrite16>
10000a38:	46c0      	nop			; (mov r8, r8)
10000a3a:	46c0      	nop			; (mov r8, r8)
10000a3c:	46c0      	nop			; (mov r8, r8)
10000a3e:	46c0      	nop			; (mov r8, r8)
10000a40:	46c0      	nop			; (mov r8, r8)
10000a42:	46c0      	nop			; (mov r8, r8)
10000a44:	46c0      	nop			; (mov r8, r8)
10000a46:	46c0      	nop			; (mov r8, r8)
10000a48:	46c0      	nop			; (mov r8, r8)
10000a4a:	46c0      	nop			; (mov r8, r8)
10000a4c:	46c0      	nop			; (mov r8, r8)
10000a4e:	46c0      	nop			; (mov r8, r8)
10000a50:	46c0      	nop			; (mov r8, r8)
10000a52:	46c0      	nop			; (mov r8, r8)
10000a54:	46c0      	nop			; (mov r8, r8)
10000a56:	46c0      	nop			; (mov r8, r8)
10000a58:	46c0      	nop			; (mov r8, r8)
10000a5a:	46c0      	nop			; (mov r8, r8)
10000a5c:	46c0      	nop			; (mov r8, r8)
10000a5e:	46c0      	nop			; (mov r8, r8)
10000a60:	46c0      	nop			; (mov r8, r8)
10000a62:	46c0      	nop			; (mov r8, r8)
10000a64:	46c0      	nop			; (mov r8, r8)
10000a66:	46c0      	nop			; (mov r8, r8)
10000a68:	46c0      	nop			; (mov r8, r8)
10000a6a:	46c0      	nop			; (mov r8, r8)
10000a6c:	46c0      	nop			; (mov r8, r8)
10000a6e:	46c0      	nop			; (mov r8, r8)
10000a70:	46c0      	nop			; (mov r8, r8)
10000a72:	46c0      	nop			; (mov r8, r8)
10000a74:	46c0      	nop			; (mov r8, r8)
10000a76:	46c0      	nop			; (mov r8, r8)
10000a78:	46c0      	nop			; (mov r8, r8)
10000a7a:	46c0      	nop			; (mov r8, r8)
10000a7c:	46c0      	nop			; (mov r8, r8)
10000a7e:	46c0      	nop			; (mov r8, r8)
10000a80:	46c0      	nop			; (mov r8, r8)
10000a82:	46c0      	nop			; (mov r8, r8)
10000a84:	46c0      	nop			; (mov r8, r8)
10000a86:	46c0      	nop			; (mov r8, r8)
10000a88:	46c0      	nop			; (mov r8, r8)
10000a8a:	46c0      	nop			; (mov r8, r8)
10000a8c:	46c0      	nop			; (mov r8, r8)
10000a8e:	46c0      	nop			; (mov r8, r8)
10000a90:	46c0      	nop			; (mov r8, r8)
10000a92:	46c0      	nop			; (mov r8, r8)
10000a94:	46c0      	nop			; (mov r8, r8)
10000a96:	46c0      	nop			; (mov r8, r8)
10000a98:	46c0      	nop			; (mov r8, r8)
10000a9a:	46c0      	nop			; (mov r8, r8)
10000a9c:	46c0      	nop			; (mov r8, r8)
10000a9e:	46c0      	nop			; (mov r8, r8)
10000aa0:	46c0      	nop			; (mov r8, r8)
10000aa2:	46c0      	nop			; (mov r8, r8)
10000aa4:	46c0      	nop			; (mov r8, r8)
10000aa6:	46c0      	nop			; (mov r8, r8)
10000aa8:	46c0      	nop			; (mov r8, r8)
10000aaa:	46c0      	nop			; (mov r8, r8)
10000aac:	46c0      	nop			; (mov r8, r8)
10000aae:	46c0      	nop			; (mov r8, r8)
10000ab0:	46c0      	nop			; (mov r8, r8)
10000ab2:	46c0      	nop			; (mov r8, r8)
10000ab4:	46c0      	nop			; (mov r8, r8)
10000ab6:	46c0      	nop			; (mov r8, r8)
10000ab8:	46c0      	nop			; (mov r8, r8)
10000aba:	46c0      	nop			; (mov r8, r8)
10000abc:	46c0      	nop			; (mov r8, r8)
10000abe:	46c0      	nop			; (mov r8, r8)
10000ac0:	46c0      	nop			; (mov r8, r8)
10000ac2:	46c0      	nop			; (mov r8, r8)
10000ac4:	46c0      	nop			; (mov r8, r8)
10000ac6:	46c0      	nop			; (mov r8, r8)
10000ac8:	46c0      	nop			; (mov r8, r8)
10000aca:	46c0      	nop			; (mov r8, r8)
10000acc:	46c0      	nop			; (mov r8, r8)
10000ace:	46c0      	nop			; (mov r8, r8)
10000ad0:	46c0      	nop			; (mov r8, r8)
10000ad2:	46c0      	nop			; (mov r8, r8)
10000ad4:	46c0      	nop			; (mov r8, r8)
10000ad6:	46c0      	nop			; (mov r8, r8)
10000ad8:	46c0      	nop			; (mov r8, r8)
10000ada:	46c0      	nop			; (mov r8, r8)
10000adc:	46c0      	nop			; (mov r8, r8)
10000ade:	46c0      	nop			; (mov r8, r8)
10000ae0:	46c0      	nop			; (mov r8, r8)
10000ae2:	46c0      	nop			; (mov r8, r8)
10000ae4:	46c0      	nop			; (mov r8, r8)
10000ae6:	46c0      	nop			; (mov r8, r8)
10000ae8:	46c0      	nop			; (mov r8, r8)
10000aea:	46c0      	nop			; (mov r8, r8)
10000aec:	46c0      	nop			; (mov r8, r8)
10000aee:	46c0      	nop			; (mov r8, r8)
10000af0:	46c0      	nop			; (mov r8, r8)
10000af2:	46c0      	nop			; (mov r8, r8)
10000af4:	46c0      	nop			; (mov r8, r8)
10000af6:	46c0      	nop			; (mov r8, r8)
10000af8:	46c0      	nop			; (mov r8, r8)
10000afa:	46c0      	nop			; (mov r8, r8)
10000afc:	46c0      	nop			; (mov r8, r8)
10000afe:	46c0      	nop			; (mov r8, r8)
10000b00:	46c0      	nop			; (mov r8, r8)
10000b02:	46c0      	nop			; (mov r8, r8)
10000b04:	46c0      	nop			; (mov r8, r8)
10000b06:	46c0      	nop			; (mov r8, r8)
10000b08:	46c0      	nop			; (mov r8, r8)
10000b0a:	46c0      	nop			; (mov r8, r8)
10000b0c:	46c0      	nop			; (mov r8, r8)
10000b0e:	46c0      	nop			; (mov r8, r8)
10000b10:	46c0      	nop			; (mov r8, r8)
10000b12:	46c0      	nop			; (mov r8, r8)
10000b14:	46c0      	nop			; (mov r8, r8)
10000b16:	46c0      	nop			; (mov r8, r8)
10000b18:	46c0      	nop			; (mov r8, r8)
10000b1a:	46c0      	nop			; (mov r8, r8)
10000b1c:	46c0      	nop			; (mov r8, r8)
10000b1e:	46c0      	nop			; (mov r8, r8)
10000b20:	46c0      	nop			; (mov r8, r8)
10000b22:	46c0      	nop			; (mov r8, r8)
10000b24:	46c0      	nop			; (mov r8, r8)
10000b26:	46c0      	nop			; (mov r8, r8)
10000b28:	46c0      	nop			; (mov r8, r8)
10000b2a:	46c0      	nop			; (mov r8, r8)
10000b2c:	46c0      	nop			; (mov r8, r8)
10000b2e:	46c0      	nop			; (mov r8, r8)
10000b30:	46c0      	nop			; (mov r8, r8)
10000b32:	46c0      	nop			; (mov r8, r8)
10000b34:	46c0      	nop			; (mov r8, r8)
10000b36:	46c0      	nop			; (mov r8, r8)
10000b38:	46c0      	nop			; (mov r8, r8)
10000b3a:	46c0      	nop			; (mov r8, r8)
10000b3c:	46c0      	nop			; (mov r8, r8)
10000b3e:	46c0      	nop			; (mov r8, r8)
10000b40:	46c0      	nop			; (mov r8, r8)
10000b42:	46c0      	nop			; (mov r8, r8)
10000b44:	46c0      	nop			; (mov r8, r8)
10000b46:	46c0      	nop			; (mov r8, r8)
10000b48:	46c0      	nop			; (mov r8, r8)
10000b4a:	46c0      	nop			; (mov r8, r8)
10000b4c:	46c0      	nop			; (mov r8, r8)
10000b4e:	46c0      	nop			; (mov r8, r8)
10000b50:	46c0      	nop			; (mov r8, r8)
10000b52:	46c0      	nop			; (mov r8, r8)
10000b54:	46c0      	nop			; (mov r8, r8)
10000b56:	46c0      	nop			; (mov r8, r8)
10000b58:	46c0      	nop			; (mov r8, r8)
10000b5a:	46c0      	nop			; (mov r8, r8)
10000b5c:	46c0      	nop			; (mov r8, r8)
10000b5e:	46c0      	nop			; (mov r8, r8)
10000b60:	46c0      	nop			; (mov r8, r8)
10000b62:	46c0      	nop			; (mov r8, r8)
10000b64:	46c0      	nop			; (mov r8, r8)
10000b66:	46c0      	nop			; (mov r8, r8)
10000b68:	46c0      	nop			; (mov r8, r8)
10000b6a:	46c0      	nop			; (mov r8, r8)
10000b6c:	46c0      	nop			; (mov r8, r8)
10000b6e:	46c0      	nop			; (mov r8, r8)
10000b70:	46c0      	nop			; (mov r8, r8)
10000b72:	46c0      	nop			; (mov r8, r8)
10000b74:	46c0      	nop			; (mov r8, r8)
10000b76:	46c0      	nop			; (mov r8, r8)
10000b78:	7823      	ldrb	r3, [r4, #0]
10000b7a:	2b00      	cmp	r3, #0
10000b7c:	d1fc      	bne.n	10000b78 <tft_drawPixel.part.0+0x388>
10000b7e:	23d0      	movs	r3, #208	; 0xd0
10000b80:	2280      	movs	r2, #128	; 0x80
10000b82:	2180      	movs	r1, #128	; 0x80
10000b84:	2001      	movs	r0, #1
10000b86:	061b      	lsls	r3, r3, #24
10000b88:	02d2      	lsls	r2, r2, #11
10000b8a:	0249      	lsls	r1, r1, #9
10000b8c:	7020      	strb	r0, [r4, #0]
10000b8e:	615a      	str	r2, [r3, #20]
10000b90:	6199      	str	r1, [r3, #24]
10000b92:	6871      	ldr	r1, [r6, #4]
10000b94:	619a      	str	r2, [r3, #24]
10000b96:	1d0b      	adds	r3, r1, #4
10000b98:	009b      	lsls	r3, r3, #2
10000b9a:	469c      	mov	ip, r3
10000b9c:	3110      	adds	r1, #16
10000b9e:	4088      	lsls	r0, r1
10000ba0:	6832      	ldr	r2, [r6, #0]
10000ba2:	4494      	add	ip, r2
10000ba4:	6853      	ldr	r3, [r2, #4]
10000ba6:	4218      	tst	r0, r3
10000ba8:	d1fc      	bne.n	10000ba4 <tft_drawPixel.part.0+0x3b4>
10000baa:	232b      	movs	r3, #43	; 0x2b
10000bac:	4662      	mov	r2, ip
10000bae:	7013      	strb	r3, [r2, #0]
10000bb0:	46c0      	nop			; (mov r8, r8)
10000bb2:	46c0      	nop			; (mov r8, r8)
10000bb4:	46c0      	nop			; (mov r8, r8)
10000bb6:	46c0      	nop			; (mov r8, r8)
10000bb8:	46c0      	nop			; (mov r8, r8)
10000bba:	46c0      	nop			; (mov r8, r8)
10000bbc:	46c0      	nop			; (mov r8, r8)
10000bbe:	46c0      	nop			; (mov r8, r8)
10000bc0:	46c0      	nop			; (mov r8, r8)
10000bc2:	46c0      	nop			; (mov r8, r8)
10000bc4:	46c0      	nop			; (mov r8, r8)
10000bc6:	46c0      	nop			; (mov r8, r8)
10000bc8:	46c0      	nop			; (mov r8, r8)
10000bca:	46c0      	nop			; (mov r8, r8)
10000bcc:	46c0      	nop			; (mov r8, r8)
10000bce:	46c0      	nop			; (mov r8, r8)
10000bd0:	46c0      	nop			; (mov r8, r8)
10000bd2:	46c0      	nop			; (mov r8, r8)
10000bd4:	46c0      	nop			; (mov r8, r8)
10000bd6:	46c0      	nop			; (mov r8, r8)
10000bd8:	46c0      	nop			; (mov r8, r8)
10000bda:	46c0      	nop			; (mov r8, r8)
10000bdc:	46c0      	nop			; (mov r8, r8)
10000bde:	46c0      	nop			; (mov r8, r8)
10000be0:	46c0      	nop			; (mov r8, r8)
10000be2:	46c0      	nop			; (mov r8, r8)
10000be4:	46c0      	nop			; (mov r8, r8)
10000be6:	46c0      	nop			; (mov r8, r8)
10000be8:	46c0      	nop			; (mov r8, r8)
10000bea:	46c0      	nop			; (mov r8, r8)
10000bec:	46c0      	nop			; (mov r8, r8)
10000bee:	46c0      	nop			; (mov r8, r8)
10000bf0:	46c0      	nop			; (mov r8, r8)
10000bf2:	46c0      	nop			; (mov r8, r8)
10000bf4:	46c0      	nop			; (mov r8, r8)
10000bf6:	46c0      	nop			; (mov r8, r8)
10000bf8:	46c0      	nop			; (mov r8, r8)
10000bfa:	46c0      	nop			; (mov r8, r8)
10000bfc:	46c0      	nop			; (mov r8, r8)
10000bfe:	46c0      	nop			; (mov r8, r8)
10000c00:	46c0      	nop			; (mov r8, r8)
10000c02:	46c0      	nop			; (mov r8, r8)
10000c04:	46c0      	nop			; (mov r8, r8)
10000c06:	46c0      	nop			; (mov r8, r8)
10000c08:	46c0      	nop			; (mov r8, r8)
10000c0a:	46c0      	nop			; (mov r8, r8)
10000c0c:	46c0      	nop			; (mov r8, r8)
10000c0e:	46c0      	nop			; (mov r8, r8)
10000c10:	46c0      	nop			; (mov r8, r8)
10000c12:	46c0      	nop			; (mov r8, r8)
10000c14:	46c0      	nop			; (mov r8, r8)
10000c16:	46c0      	nop			; (mov r8, r8)
10000c18:	46c0      	nop			; (mov r8, r8)
10000c1a:	46c0      	nop			; (mov r8, r8)
10000c1c:	46c0      	nop			; (mov r8, r8)
10000c1e:	46c0      	nop			; (mov r8, r8)
10000c20:	46c0      	nop			; (mov r8, r8)
10000c22:	46c0      	nop			; (mov r8, r8)
10000c24:	46c0      	nop			; (mov r8, r8)
10000c26:	46c0      	nop			; (mov r8, r8)
10000c28:	46c0      	nop			; (mov r8, r8)
10000c2a:	46c0      	nop			; (mov r8, r8)
10000c2c:	46c0      	nop			; (mov r8, r8)
10000c2e:	46c0      	nop			; (mov r8, r8)
10000c30:	46c0      	nop			; (mov r8, r8)
10000c32:	46c0      	nop			; (mov r8, r8)
10000c34:	46c0      	nop			; (mov r8, r8)
10000c36:	46c0      	nop			; (mov r8, r8)
10000c38:	46c0      	nop			; (mov r8, r8)
10000c3a:	46c0      	nop			; (mov r8, r8)
10000c3c:	46c0      	nop			; (mov r8, r8)
10000c3e:	46c0      	nop			; (mov r8, r8)
10000c40:	46c0      	nop			; (mov r8, r8)
10000c42:	46c0      	nop			; (mov r8, r8)
10000c44:	46c0      	nop			; (mov r8, r8)
10000c46:	46c0      	nop			; (mov r8, r8)
10000c48:	46c0      	nop			; (mov r8, r8)
10000c4a:	46c0      	nop			; (mov r8, r8)
10000c4c:	46c0      	nop			; (mov r8, r8)
10000c4e:	46c0      	nop			; (mov r8, r8)
10000c50:	46c0      	nop			; (mov r8, r8)
10000c52:	46c0      	nop			; (mov r8, r8)
10000c54:	46c0      	nop			; (mov r8, r8)
10000c56:	46c0      	nop			; (mov r8, r8)
10000c58:	46c0      	nop			; (mov r8, r8)
10000c5a:	46c0      	nop			; (mov r8, r8)
10000c5c:	46c0      	nop			; (mov r8, r8)
10000c5e:	46c0      	nop			; (mov r8, r8)
10000c60:	46c0      	nop			; (mov r8, r8)
10000c62:	46c0      	nop			; (mov r8, r8)
10000c64:	46c0      	nop			; (mov r8, r8)
10000c66:	46c0      	nop			; (mov r8, r8)
10000c68:	46c0      	nop			; (mov r8, r8)
10000c6a:	46c0      	nop			; (mov r8, r8)
10000c6c:	46c0      	nop			; (mov r8, r8)
10000c6e:	46c0      	nop			; (mov r8, r8)
10000c70:	7823      	ldrb	r3, [r4, #0]
10000c72:	2b00      	cmp	r3, #0
10000c74:	d1fc      	bne.n	10000c70 <tft_drawPixel.part.0+0x480>
10000c76:	3301      	adds	r3, #1
10000c78:	7023      	strb	r3, [r4, #0]
10000c7a:	2280      	movs	r2, #128	; 0x80
10000c7c:	23d0      	movs	r3, #208	; 0xd0
10000c7e:	2180      	movs	r1, #128	; 0x80
10000c80:	061b      	lsls	r3, r3, #24
10000c82:	02d2      	lsls	r2, r2, #11
10000c84:	0249      	lsls	r1, r1, #9
10000c86:	b2bf      	uxth	r7, r7
10000c88:	615a      	str	r2, [r3, #20]
10000c8a:	0038      	movs	r0, r7
10000c8c:	6159      	str	r1, [r3, #20]
10000c8e:	619a      	str	r2, [r3, #24]
10000c90:	f7ff fd86 	bl	100007a0 <tft_spiwrite16>
10000c94:	46c0      	nop			; (mov r8, r8)
10000c96:	46c0      	nop			; (mov r8, r8)
10000c98:	46c0      	nop			; (mov r8, r8)
10000c9a:	46c0      	nop			; (mov r8, r8)
10000c9c:	46c0      	nop			; (mov r8, r8)
10000c9e:	46c0      	nop			; (mov r8, r8)
10000ca0:	46c0      	nop			; (mov r8, r8)
10000ca2:	46c0      	nop			; (mov r8, r8)
10000ca4:	46c0      	nop			; (mov r8, r8)
10000ca6:	46c0      	nop			; (mov r8, r8)
10000ca8:	46c0      	nop			; (mov r8, r8)
10000caa:	46c0      	nop			; (mov r8, r8)
10000cac:	46c0      	nop			; (mov r8, r8)
10000cae:	46c0      	nop			; (mov r8, r8)
10000cb0:	46c0      	nop			; (mov r8, r8)
10000cb2:	46c0      	nop			; (mov r8, r8)
10000cb4:	46c0      	nop			; (mov r8, r8)
10000cb6:	46c0      	nop			; (mov r8, r8)
10000cb8:	46c0      	nop			; (mov r8, r8)
10000cba:	46c0      	nop			; (mov r8, r8)
10000cbc:	46c0      	nop			; (mov r8, r8)
10000cbe:	46c0      	nop			; (mov r8, r8)
10000cc0:	46c0      	nop			; (mov r8, r8)
10000cc2:	46c0      	nop			; (mov r8, r8)
10000cc4:	46c0      	nop			; (mov r8, r8)
10000cc6:	46c0      	nop			; (mov r8, r8)
10000cc8:	46c0      	nop			; (mov r8, r8)
10000cca:	46c0      	nop			; (mov r8, r8)
10000ccc:	46c0      	nop			; (mov r8, r8)
10000cce:	46c0      	nop			; (mov r8, r8)
10000cd0:	46c0      	nop			; (mov r8, r8)
10000cd2:	46c0      	nop			; (mov r8, r8)
10000cd4:	46c0      	nop			; (mov r8, r8)
10000cd6:	46c0      	nop			; (mov r8, r8)
10000cd8:	46c0      	nop			; (mov r8, r8)
10000cda:	46c0      	nop			; (mov r8, r8)
10000cdc:	46c0      	nop			; (mov r8, r8)
10000cde:	46c0      	nop			; (mov r8, r8)
10000ce0:	46c0      	nop			; (mov r8, r8)
10000ce2:	46c0      	nop			; (mov r8, r8)
10000ce4:	46c0      	nop			; (mov r8, r8)
10000ce6:	46c0      	nop			; (mov r8, r8)
10000ce8:	46c0      	nop			; (mov r8, r8)
10000cea:	46c0      	nop			; (mov r8, r8)
10000cec:	46c0      	nop			; (mov r8, r8)
10000cee:	46c0      	nop			; (mov r8, r8)
10000cf0:	46c0      	nop			; (mov r8, r8)
10000cf2:	46c0      	nop			; (mov r8, r8)
10000cf4:	46c0      	nop			; (mov r8, r8)
10000cf6:	46c0      	nop			; (mov r8, r8)
10000cf8:	46c0      	nop			; (mov r8, r8)
10000cfa:	46c0      	nop			; (mov r8, r8)
10000cfc:	46c0      	nop			; (mov r8, r8)
10000cfe:	46c0      	nop			; (mov r8, r8)
10000d00:	46c0      	nop			; (mov r8, r8)
10000d02:	46c0      	nop			; (mov r8, r8)
10000d04:	46c0      	nop			; (mov r8, r8)
10000d06:	46c0      	nop			; (mov r8, r8)
10000d08:	46c0      	nop			; (mov r8, r8)
10000d0a:	46c0      	nop			; (mov r8, r8)
10000d0c:	46c0      	nop			; (mov r8, r8)
10000d0e:	46c0      	nop			; (mov r8, r8)
10000d10:	46c0      	nop			; (mov r8, r8)
10000d12:	46c0      	nop			; (mov r8, r8)
10000d14:	46c0      	nop			; (mov r8, r8)
10000d16:	46c0      	nop			; (mov r8, r8)
10000d18:	46c0      	nop			; (mov r8, r8)
10000d1a:	46c0      	nop			; (mov r8, r8)
10000d1c:	46c0      	nop			; (mov r8, r8)
10000d1e:	46c0      	nop			; (mov r8, r8)
10000d20:	46c0      	nop			; (mov r8, r8)
10000d22:	46c0      	nop			; (mov r8, r8)
10000d24:	46c0      	nop			; (mov r8, r8)
10000d26:	46c0      	nop			; (mov r8, r8)
10000d28:	46c0      	nop			; (mov r8, r8)
10000d2a:	46c0      	nop			; (mov r8, r8)
10000d2c:	46c0      	nop			; (mov r8, r8)
10000d2e:	46c0      	nop			; (mov r8, r8)
10000d30:	46c0      	nop			; (mov r8, r8)
10000d32:	46c0      	nop			; (mov r8, r8)
10000d34:	46c0      	nop			; (mov r8, r8)
10000d36:	46c0      	nop			; (mov r8, r8)
10000d38:	46c0      	nop			; (mov r8, r8)
10000d3a:	46c0      	nop			; (mov r8, r8)
10000d3c:	46c0      	nop			; (mov r8, r8)
10000d3e:	46c0      	nop			; (mov r8, r8)
10000d40:	46c0      	nop			; (mov r8, r8)
10000d42:	46c0      	nop			; (mov r8, r8)
10000d44:	46c0      	nop			; (mov r8, r8)
10000d46:	46c0      	nop			; (mov r8, r8)
10000d48:	46c0      	nop			; (mov r8, r8)
10000d4a:	46c0      	nop			; (mov r8, r8)
10000d4c:	46c0      	nop			; (mov r8, r8)
10000d4e:	46c0      	nop			; (mov r8, r8)
10000d50:	46c0      	nop			; (mov r8, r8)
10000d52:	46c0      	nop			; (mov r8, r8)
10000d54:	46c0      	nop			; (mov r8, r8)
10000d56:	46c0      	nop			; (mov r8, r8)
10000d58:	46c0      	nop			; (mov r8, r8)
10000d5a:	46c0      	nop			; (mov r8, r8)
10000d5c:	46c0      	nop			; (mov r8, r8)
10000d5e:	46c0      	nop			; (mov r8, r8)
10000d60:	46c0      	nop			; (mov r8, r8)
10000d62:	46c0      	nop			; (mov r8, r8)
10000d64:	46c0      	nop			; (mov r8, r8)
10000d66:	46c0      	nop			; (mov r8, r8)
10000d68:	46c0      	nop			; (mov r8, r8)
10000d6a:	46c0      	nop			; (mov r8, r8)
10000d6c:	46c0      	nop			; (mov r8, r8)
10000d6e:	46c0      	nop			; (mov r8, r8)
10000d70:	46c0      	nop			; (mov r8, r8)
10000d72:	46c0      	nop			; (mov r8, r8)
10000d74:	46c0      	nop			; (mov r8, r8)
10000d76:	46c0      	nop			; (mov r8, r8)
10000d78:	46c0      	nop			; (mov r8, r8)
10000d7a:	46c0      	nop			; (mov r8, r8)
10000d7c:	46c0      	nop			; (mov r8, r8)
10000d7e:	46c0      	nop			; (mov r8, r8)
10000d80:	46c0      	nop			; (mov r8, r8)
10000d82:	46c0      	nop			; (mov r8, r8)
10000d84:	46c0      	nop			; (mov r8, r8)
10000d86:	46c0      	nop			; (mov r8, r8)
10000d88:	46c0      	nop			; (mov r8, r8)
10000d8a:	46c0      	nop			; (mov r8, r8)
10000d8c:	46c0      	nop			; (mov r8, r8)
10000d8e:	46c0      	nop			; (mov r8, r8)
10000d90:	46c0      	nop			; (mov r8, r8)
10000d92:	46c0      	nop			; (mov r8, r8)
10000d94:	46c0      	nop			; (mov r8, r8)
10000d96:	46c0      	nop			; (mov r8, r8)
10000d98:	46c0      	nop			; (mov r8, r8)
10000d9a:	46c0      	nop			; (mov r8, r8)
10000d9c:	46c0      	nop			; (mov r8, r8)
10000d9e:	46c0      	nop			; (mov r8, r8)
10000da0:	46c0      	nop			; (mov r8, r8)
10000da2:	46c0      	nop			; (mov r8, r8)
10000da4:	46c0      	nop			; (mov r8, r8)
10000da6:	46c0      	nop			; (mov r8, r8)
10000da8:	46c0      	nop			; (mov r8, r8)
10000daa:	46c0      	nop			; (mov r8, r8)
10000dac:	46c0      	nop			; (mov r8, r8)
10000dae:	46c0      	nop			; (mov r8, r8)
10000db0:	46c0      	nop			; (mov r8, r8)
10000db2:	46c0      	nop			; (mov r8, r8)
10000db4:	46c0      	nop			; (mov r8, r8)
10000db6:	46c0      	nop			; (mov r8, r8)
10000db8:	46c0      	nop			; (mov r8, r8)
10000dba:	46c0      	nop			; (mov r8, r8)
10000dbc:	46c0      	nop			; (mov r8, r8)
10000dbe:	46c0      	nop			; (mov r8, r8)
10000dc0:	46c0      	nop			; (mov r8, r8)
10000dc2:	46c0      	nop			; (mov r8, r8)
10000dc4:	46c0      	nop			; (mov r8, r8)
10000dc6:	46c0      	nop			; (mov r8, r8)
10000dc8:	46c0      	nop			; (mov r8, r8)
10000dca:	46c0      	nop			; (mov r8, r8)
10000dcc:	46c0      	nop			; (mov r8, r8)
10000dce:	46c0      	nop			; (mov r8, r8)
10000dd0:	46c0      	nop			; (mov r8, r8)
10000dd2:	46c0      	nop			; (mov r8, r8)
10000dd4:	7823      	ldrb	r3, [r4, #0]
10000dd6:	2b00      	cmp	r3, #0
10000dd8:	d1fc      	bne.n	10000dd4 <tft_drawPixel.part.0+0x5e4>
10000dda:	3301      	adds	r3, #1
10000ddc:	7023      	strb	r3, [r4, #0]
10000dde:	2280      	movs	r2, #128	; 0x80
10000de0:	23d0      	movs	r3, #208	; 0xd0
10000de2:	02d2      	lsls	r2, r2, #11
10000de4:	061b      	lsls	r3, r3, #24
10000de6:	3701      	adds	r7, #1
10000de8:	615a      	str	r2, [r3, #20]
10000dea:	b2b8      	uxth	r0, r7
10000dec:	619a      	str	r2, [r3, #24]
10000dee:	f7ff fcd7 	bl	100007a0 <tft_spiwrite16>
10000df2:	46c0      	nop			; (mov r8, r8)
10000df4:	46c0      	nop			; (mov r8, r8)
10000df6:	46c0      	nop			; (mov r8, r8)
10000df8:	46c0      	nop			; (mov r8, r8)
10000dfa:	46c0      	nop			; (mov r8, r8)
10000dfc:	46c0      	nop			; (mov r8, r8)
10000dfe:	46c0      	nop			; (mov r8, r8)
10000e00:	46c0      	nop			; (mov r8, r8)
10000e02:	46c0      	nop			; (mov r8, r8)
10000e04:	46c0      	nop			; (mov r8, r8)
10000e06:	46c0      	nop			; (mov r8, r8)
10000e08:	46c0      	nop			; (mov r8, r8)
10000e0a:	46c0      	nop			; (mov r8, r8)
10000e0c:	46c0      	nop			; (mov r8, r8)
10000e0e:	46c0      	nop			; (mov r8, r8)
10000e10:	46c0      	nop			; (mov r8, r8)
10000e12:	46c0      	nop			; (mov r8, r8)
10000e14:	46c0      	nop			; (mov r8, r8)
10000e16:	46c0      	nop			; (mov r8, r8)
10000e18:	46c0      	nop			; (mov r8, r8)
10000e1a:	46c0      	nop			; (mov r8, r8)
10000e1c:	46c0      	nop			; (mov r8, r8)
10000e1e:	46c0      	nop			; (mov r8, r8)
10000e20:	46c0      	nop			; (mov r8, r8)
10000e22:	46c0      	nop			; (mov r8, r8)
10000e24:	46c0      	nop			; (mov r8, r8)
10000e26:	46c0      	nop			; (mov r8, r8)
10000e28:	46c0      	nop			; (mov r8, r8)
10000e2a:	46c0      	nop			; (mov r8, r8)
10000e2c:	46c0      	nop			; (mov r8, r8)
10000e2e:	46c0      	nop			; (mov r8, r8)
10000e30:	46c0      	nop			; (mov r8, r8)
10000e32:	46c0      	nop			; (mov r8, r8)
10000e34:	46c0      	nop			; (mov r8, r8)
10000e36:	46c0      	nop			; (mov r8, r8)
10000e38:	46c0      	nop			; (mov r8, r8)
10000e3a:	46c0      	nop			; (mov r8, r8)
10000e3c:	46c0      	nop			; (mov r8, r8)
10000e3e:	46c0      	nop			; (mov r8, r8)
10000e40:	46c0      	nop			; (mov r8, r8)
10000e42:	46c0      	nop			; (mov r8, r8)
10000e44:	46c0      	nop			; (mov r8, r8)
10000e46:	46c0      	nop			; (mov r8, r8)
10000e48:	46c0      	nop			; (mov r8, r8)
10000e4a:	46c0      	nop			; (mov r8, r8)
10000e4c:	46c0      	nop			; (mov r8, r8)
10000e4e:	46c0      	nop			; (mov r8, r8)
10000e50:	46c0      	nop			; (mov r8, r8)
10000e52:	46c0      	nop			; (mov r8, r8)
10000e54:	46c0      	nop			; (mov r8, r8)
10000e56:	46c0      	nop			; (mov r8, r8)
10000e58:	46c0      	nop			; (mov r8, r8)
10000e5a:	46c0      	nop			; (mov r8, r8)
10000e5c:	46c0      	nop			; (mov r8, r8)
10000e5e:	46c0      	nop			; (mov r8, r8)
10000e60:	46c0      	nop			; (mov r8, r8)
10000e62:	46c0      	nop			; (mov r8, r8)
10000e64:	46c0      	nop			; (mov r8, r8)
10000e66:	46c0      	nop			; (mov r8, r8)
10000e68:	46c0      	nop			; (mov r8, r8)
10000e6a:	46c0      	nop			; (mov r8, r8)
10000e6c:	46c0      	nop			; (mov r8, r8)
10000e6e:	46c0      	nop			; (mov r8, r8)
10000e70:	46c0      	nop			; (mov r8, r8)
10000e72:	46c0      	nop			; (mov r8, r8)
10000e74:	46c0      	nop			; (mov r8, r8)
10000e76:	46c0      	nop			; (mov r8, r8)
10000e78:	46c0      	nop			; (mov r8, r8)
10000e7a:	46c0      	nop			; (mov r8, r8)
10000e7c:	46c0      	nop			; (mov r8, r8)
10000e7e:	46c0      	nop			; (mov r8, r8)
10000e80:	46c0      	nop			; (mov r8, r8)
10000e82:	46c0      	nop			; (mov r8, r8)
10000e84:	46c0      	nop			; (mov r8, r8)
10000e86:	46c0      	nop			; (mov r8, r8)
10000e88:	46c0      	nop			; (mov r8, r8)
10000e8a:	46c0      	nop			; (mov r8, r8)
10000e8c:	46c0      	nop			; (mov r8, r8)
10000e8e:	46c0      	nop			; (mov r8, r8)
10000e90:	46c0      	nop			; (mov r8, r8)
10000e92:	46c0      	nop			; (mov r8, r8)
10000e94:	46c0      	nop			; (mov r8, r8)
10000e96:	46c0      	nop			; (mov r8, r8)
10000e98:	46c0      	nop			; (mov r8, r8)
10000e9a:	46c0      	nop			; (mov r8, r8)
10000e9c:	46c0      	nop			; (mov r8, r8)
10000e9e:	46c0      	nop			; (mov r8, r8)
10000ea0:	46c0      	nop			; (mov r8, r8)
10000ea2:	46c0      	nop			; (mov r8, r8)
10000ea4:	46c0      	nop			; (mov r8, r8)
10000ea6:	46c0      	nop			; (mov r8, r8)
10000ea8:	46c0      	nop			; (mov r8, r8)
10000eaa:	46c0      	nop			; (mov r8, r8)
10000eac:	46c0      	nop			; (mov r8, r8)
10000eae:	46c0      	nop			; (mov r8, r8)
10000eb0:	46c0      	nop			; (mov r8, r8)
10000eb2:	46c0      	nop			; (mov r8, r8)
10000eb4:	46c0      	nop			; (mov r8, r8)
10000eb6:	46c0      	nop			; (mov r8, r8)
10000eb8:	46c0      	nop			; (mov r8, r8)
10000eba:	46c0      	nop			; (mov r8, r8)
10000ebc:	46c0      	nop			; (mov r8, r8)
10000ebe:	46c0      	nop			; (mov r8, r8)
10000ec0:	46c0      	nop			; (mov r8, r8)
10000ec2:	46c0      	nop			; (mov r8, r8)
10000ec4:	46c0      	nop			; (mov r8, r8)
10000ec6:	46c0      	nop			; (mov r8, r8)
10000ec8:	46c0      	nop			; (mov r8, r8)
10000eca:	46c0      	nop			; (mov r8, r8)
10000ecc:	46c0      	nop			; (mov r8, r8)
10000ece:	46c0      	nop			; (mov r8, r8)
10000ed0:	46c0      	nop			; (mov r8, r8)
10000ed2:	46c0      	nop			; (mov r8, r8)
10000ed4:	46c0      	nop			; (mov r8, r8)
10000ed6:	46c0      	nop			; (mov r8, r8)
10000ed8:	46c0      	nop			; (mov r8, r8)
10000eda:	46c0      	nop			; (mov r8, r8)
10000edc:	46c0      	nop			; (mov r8, r8)
10000ede:	46c0      	nop			; (mov r8, r8)
10000ee0:	46c0      	nop			; (mov r8, r8)
10000ee2:	46c0      	nop			; (mov r8, r8)
10000ee4:	46c0      	nop			; (mov r8, r8)
10000ee6:	46c0      	nop			; (mov r8, r8)
10000ee8:	46c0      	nop			; (mov r8, r8)
10000eea:	46c0      	nop			; (mov r8, r8)
10000eec:	46c0      	nop			; (mov r8, r8)
10000eee:	46c0      	nop			; (mov r8, r8)
10000ef0:	46c0      	nop			; (mov r8, r8)
10000ef2:	46c0      	nop			; (mov r8, r8)
10000ef4:	46c0      	nop			; (mov r8, r8)
10000ef6:	46c0      	nop			; (mov r8, r8)
10000ef8:	46c0      	nop			; (mov r8, r8)
10000efa:	46c0      	nop			; (mov r8, r8)
10000efc:	46c0      	nop			; (mov r8, r8)
10000efe:	46c0      	nop			; (mov r8, r8)
10000f00:	46c0      	nop			; (mov r8, r8)
10000f02:	46c0      	nop			; (mov r8, r8)
10000f04:	46c0      	nop			; (mov r8, r8)
10000f06:	46c0      	nop			; (mov r8, r8)
10000f08:	46c0      	nop			; (mov r8, r8)
10000f0a:	46c0      	nop			; (mov r8, r8)
10000f0c:	46c0      	nop			; (mov r8, r8)
10000f0e:	46c0      	nop			; (mov r8, r8)
10000f10:	46c0      	nop			; (mov r8, r8)
10000f12:	46c0      	nop			; (mov r8, r8)
10000f14:	46c0      	nop			; (mov r8, r8)
10000f16:	46c0      	nop			; (mov r8, r8)
10000f18:	46c0      	nop			; (mov r8, r8)
10000f1a:	46c0      	nop			; (mov r8, r8)
10000f1c:	46c0      	nop			; (mov r8, r8)
10000f1e:	46c0      	nop			; (mov r8, r8)
10000f20:	46c0      	nop			; (mov r8, r8)
10000f22:	46c0      	nop			; (mov r8, r8)
10000f24:	46c0      	nop			; (mov r8, r8)
10000f26:	46c0      	nop			; (mov r8, r8)
10000f28:	46c0      	nop			; (mov r8, r8)
10000f2a:	46c0      	nop			; (mov r8, r8)
10000f2c:	46c0      	nop			; (mov r8, r8)
10000f2e:	46c0      	nop			; (mov r8, r8)
10000f30:	46c0      	nop			; (mov r8, r8)
10000f32:	7823      	ldrb	r3, [r4, #0]
10000f34:	2b00      	cmp	r3, #0
10000f36:	d1fc      	bne.n	10000f32 <tft_drawPixel.part.0+0x742>
10000f38:	23d0      	movs	r3, #208	; 0xd0
10000f3a:	2280      	movs	r2, #128	; 0x80
10000f3c:	2080      	movs	r0, #128	; 0x80
10000f3e:	2101      	movs	r1, #1
10000f40:	061b      	lsls	r3, r3, #24
10000f42:	02d2      	lsls	r2, r2, #11
10000f44:	0240      	lsls	r0, r0, #9
10000f46:	7021      	strb	r1, [r4, #0]
10000f48:	615a      	str	r2, [r3, #20]
10000f4a:	6198      	str	r0, [r3, #24]
10000f4c:	619a      	str	r2, [r3, #24]
10000f4e:	ce44      	ldmia	r6, {r2, r6}
10000f50:	1d30      	adds	r0, r6, #4
10000f52:	3610      	adds	r6, #16
10000f54:	40b1      	lsls	r1, r6
10000f56:	0080      	lsls	r0, r0, #2
10000f58:	1810      	adds	r0, r2, r0
10000f5a:	6853      	ldr	r3, [r2, #4]
10000f5c:	420b      	tst	r3, r1
10000f5e:	d1fc      	bne.n	10000f5a <tft_drawPixel.part.0+0x76a>
10000f60:	232c      	movs	r3, #44	; 0x2c
10000f62:	7003      	strb	r3, [r0, #0]
10000f64:	46c0      	nop			; (mov r8, r8)
10000f66:	46c0      	nop			; (mov r8, r8)
10000f68:	46c0      	nop			; (mov r8, r8)
10000f6a:	46c0      	nop			; (mov r8, r8)
10000f6c:	46c0      	nop			; (mov r8, r8)
10000f6e:	46c0      	nop			; (mov r8, r8)
10000f70:	46c0      	nop			; (mov r8, r8)
10000f72:	46c0      	nop			; (mov r8, r8)
10000f74:	46c0      	nop			; (mov r8, r8)
10000f76:	46c0      	nop			; (mov r8, r8)
10000f78:	46c0      	nop			; (mov r8, r8)
10000f7a:	46c0      	nop			; (mov r8, r8)
10000f7c:	46c0      	nop			; (mov r8, r8)
10000f7e:	46c0      	nop			; (mov r8, r8)
10000f80:	46c0      	nop			; (mov r8, r8)
10000f82:	46c0      	nop			; (mov r8, r8)
10000f84:	46c0      	nop			; (mov r8, r8)
10000f86:	46c0      	nop			; (mov r8, r8)
10000f88:	46c0      	nop			; (mov r8, r8)
10000f8a:	46c0      	nop			; (mov r8, r8)
10000f8c:	46c0      	nop			; (mov r8, r8)
10000f8e:	46c0      	nop			; (mov r8, r8)
10000f90:	46c0      	nop			; (mov r8, r8)
10000f92:	46c0      	nop			; (mov r8, r8)
10000f94:	46c0      	nop			; (mov r8, r8)
10000f96:	46c0      	nop			; (mov r8, r8)
10000f98:	46c0      	nop			; (mov r8, r8)
10000f9a:	46c0      	nop			; (mov r8, r8)
10000f9c:	46c0      	nop			; (mov r8, r8)
10000f9e:	46c0      	nop			; (mov r8, r8)
10000fa0:	46c0      	nop			; (mov r8, r8)
10000fa2:	46c0      	nop			; (mov r8, r8)
10000fa4:	46c0      	nop			; (mov r8, r8)
10000fa6:	46c0      	nop			; (mov r8, r8)
10000fa8:	46c0      	nop			; (mov r8, r8)
10000faa:	46c0      	nop			; (mov r8, r8)
10000fac:	46c0      	nop			; (mov r8, r8)
10000fae:	46c0      	nop			; (mov r8, r8)
10000fb0:	46c0      	nop			; (mov r8, r8)
10000fb2:	46c0      	nop			; (mov r8, r8)
10000fb4:	46c0      	nop			; (mov r8, r8)
10000fb6:	46c0      	nop			; (mov r8, r8)
10000fb8:	46c0      	nop			; (mov r8, r8)
10000fba:	46c0      	nop			; (mov r8, r8)
10000fbc:	46c0      	nop			; (mov r8, r8)
10000fbe:	46c0      	nop			; (mov r8, r8)
10000fc0:	46c0      	nop			; (mov r8, r8)
10000fc2:	46c0      	nop			; (mov r8, r8)
10000fc4:	46c0      	nop			; (mov r8, r8)
10000fc6:	46c0      	nop			; (mov r8, r8)
10000fc8:	46c0      	nop			; (mov r8, r8)
10000fca:	46c0      	nop			; (mov r8, r8)
10000fcc:	46c0      	nop			; (mov r8, r8)
10000fce:	46c0      	nop			; (mov r8, r8)
10000fd0:	46c0      	nop			; (mov r8, r8)
10000fd2:	46c0      	nop			; (mov r8, r8)
10000fd4:	46c0      	nop			; (mov r8, r8)
10000fd6:	46c0      	nop			; (mov r8, r8)
10000fd8:	46c0      	nop			; (mov r8, r8)
10000fda:	46c0      	nop			; (mov r8, r8)
10000fdc:	46c0      	nop			; (mov r8, r8)
10000fde:	46c0      	nop			; (mov r8, r8)
10000fe0:	46c0      	nop			; (mov r8, r8)
10000fe2:	46c0      	nop			; (mov r8, r8)
10000fe4:	46c0      	nop			; (mov r8, r8)
10000fe6:	46c0      	nop			; (mov r8, r8)
10000fe8:	46c0      	nop			; (mov r8, r8)
10000fea:	46c0      	nop			; (mov r8, r8)
10000fec:	46c0      	nop			; (mov r8, r8)
10000fee:	46c0      	nop			; (mov r8, r8)
10000ff0:	46c0      	nop			; (mov r8, r8)
10000ff2:	46c0      	nop			; (mov r8, r8)
10000ff4:	46c0      	nop			; (mov r8, r8)
10000ff6:	46c0      	nop			; (mov r8, r8)
10000ff8:	46c0      	nop			; (mov r8, r8)
10000ffa:	46c0      	nop			; (mov r8, r8)
10000ffc:	46c0      	nop			; (mov r8, r8)
10000ffe:	46c0      	nop			; (mov r8, r8)
10001000:	46c0      	nop			; (mov r8, r8)
10001002:	46c0      	nop			; (mov r8, r8)
10001004:	46c0      	nop			; (mov r8, r8)
10001006:	46c0      	nop			; (mov r8, r8)
10001008:	46c0      	nop			; (mov r8, r8)
1000100a:	46c0      	nop			; (mov r8, r8)
1000100c:	46c0      	nop			; (mov r8, r8)
1000100e:	46c0      	nop			; (mov r8, r8)
10001010:	46c0      	nop			; (mov r8, r8)
10001012:	46c0      	nop			; (mov r8, r8)
10001014:	46c0      	nop			; (mov r8, r8)
10001016:	46c0      	nop			; (mov r8, r8)
10001018:	46c0      	nop			; (mov r8, r8)
1000101a:	46c0      	nop			; (mov r8, r8)
1000101c:	46c0      	nop			; (mov r8, r8)
1000101e:	46c0      	nop			; (mov r8, r8)
10001020:	46c0      	nop			; (mov r8, r8)
10001022:	46c0      	nop			; (mov r8, r8)
10001024:	7823      	ldrb	r3, [r4, #0]
10001026:	2b00      	cmp	r3, #0
10001028:	d1fc      	bne.n	10001024 <tft_drawPixel.part.0+0x834>
1000102a:	3301      	adds	r3, #1
1000102c:	7023      	strb	r3, [r4, #0]
1000102e:	2280      	movs	r2, #128	; 0x80
10001030:	23d0      	movs	r3, #208	; 0xd0
10001032:	2180      	movs	r1, #128	; 0x80
10001034:	061b      	lsls	r3, r3, #24
10001036:	02d2      	lsls	r2, r2, #11
10001038:	0249      	lsls	r1, r1, #9
1000103a:	615a      	str	r2, [r3, #20]
1000103c:	0028      	movs	r0, r5
1000103e:	6159      	str	r1, [r3, #20]
10001040:	619a      	str	r2, [r3, #24]
10001042:	f7ff fbad 	bl	100007a0 <tft_spiwrite16>
10001046:	46c0      	nop			; (mov r8, r8)
10001048:	46c0      	nop			; (mov r8, r8)
1000104a:	46c0      	nop			; (mov r8, r8)
1000104c:	46c0      	nop			; (mov r8, r8)
1000104e:	46c0      	nop			; (mov r8, r8)
10001050:	46c0      	nop			; (mov r8, r8)
10001052:	46c0      	nop			; (mov r8, r8)
10001054:	46c0      	nop			; (mov r8, r8)
10001056:	46c0      	nop			; (mov r8, r8)
10001058:	46c0      	nop			; (mov r8, r8)
1000105a:	46c0      	nop			; (mov r8, r8)
1000105c:	46c0      	nop			; (mov r8, r8)
1000105e:	46c0      	nop			; (mov r8, r8)
10001060:	46c0      	nop			; (mov r8, r8)
10001062:	46c0      	nop			; (mov r8, r8)
10001064:	46c0      	nop			; (mov r8, r8)
10001066:	46c0      	nop			; (mov r8, r8)
10001068:	46c0      	nop			; (mov r8, r8)
1000106a:	46c0      	nop			; (mov r8, r8)
1000106c:	46c0      	nop			; (mov r8, r8)
1000106e:	46c0      	nop			; (mov r8, r8)
10001070:	46c0      	nop			; (mov r8, r8)
10001072:	46c0      	nop			; (mov r8, r8)
10001074:	46c0      	nop			; (mov r8, r8)
10001076:	46c0      	nop			; (mov r8, r8)
10001078:	46c0      	nop			; (mov r8, r8)
1000107a:	46c0      	nop			; (mov r8, r8)
1000107c:	46c0      	nop			; (mov r8, r8)
1000107e:	46c0      	nop			; (mov r8, r8)
10001080:	46c0      	nop			; (mov r8, r8)
10001082:	46c0      	nop			; (mov r8, r8)
10001084:	46c0      	nop			; (mov r8, r8)
10001086:	46c0      	nop			; (mov r8, r8)
10001088:	46c0      	nop			; (mov r8, r8)
1000108a:	46c0      	nop			; (mov r8, r8)
1000108c:	46c0      	nop			; (mov r8, r8)
1000108e:	46c0      	nop			; (mov r8, r8)
10001090:	46c0      	nop			; (mov r8, r8)
10001092:	46c0      	nop			; (mov r8, r8)
10001094:	46c0      	nop			; (mov r8, r8)
10001096:	46c0      	nop			; (mov r8, r8)
10001098:	46c0      	nop			; (mov r8, r8)
1000109a:	46c0      	nop			; (mov r8, r8)
1000109c:	46c0      	nop			; (mov r8, r8)
1000109e:	46c0      	nop			; (mov r8, r8)
100010a0:	46c0      	nop			; (mov r8, r8)
100010a2:	46c0      	nop			; (mov r8, r8)
100010a4:	46c0      	nop			; (mov r8, r8)
100010a6:	46c0      	nop			; (mov r8, r8)
100010a8:	46c0      	nop			; (mov r8, r8)
100010aa:	46c0      	nop			; (mov r8, r8)
100010ac:	46c0      	nop			; (mov r8, r8)
100010ae:	46c0      	nop			; (mov r8, r8)
100010b0:	46c0      	nop			; (mov r8, r8)
100010b2:	46c0      	nop			; (mov r8, r8)
100010b4:	46c0      	nop			; (mov r8, r8)
100010b6:	46c0      	nop			; (mov r8, r8)
100010b8:	46c0      	nop			; (mov r8, r8)
100010ba:	46c0      	nop			; (mov r8, r8)
100010bc:	46c0      	nop			; (mov r8, r8)
100010be:	46c0      	nop			; (mov r8, r8)
100010c0:	46c0      	nop			; (mov r8, r8)
100010c2:	46c0      	nop			; (mov r8, r8)
100010c4:	46c0      	nop			; (mov r8, r8)
100010c6:	46c0      	nop			; (mov r8, r8)
100010c8:	46c0      	nop			; (mov r8, r8)
100010ca:	46c0      	nop			; (mov r8, r8)
100010cc:	46c0      	nop			; (mov r8, r8)
100010ce:	46c0      	nop			; (mov r8, r8)
100010d0:	46c0      	nop			; (mov r8, r8)
100010d2:	46c0      	nop			; (mov r8, r8)
100010d4:	46c0      	nop			; (mov r8, r8)
100010d6:	46c0      	nop			; (mov r8, r8)
100010d8:	46c0      	nop			; (mov r8, r8)
100010da:	46c0      	nop			; (mov r8, r8)
100010dc:	46c0      	nop			; (mov r8, r8)
100010de:	46c0      	nop			; (mov r8, r8)
100010e0:	46c0      	nop			; (mov r8, r8)
100010e2:	46c0      	nop			; (mov r8, r8)
100010e4:	46c0      	nop			; (mov r8, r8)
100010e6:	46c0      	nop			; (mov r8, r8)
100010e8:	46c0      	nop			; (mov r8, r8)
100010ea:	46c0      	nop			; (mov r8, r8)
100010ec:	46c0      	nop			; (mov r8, r8)
100010ee:	46c0      	nop			; (mov r8, r8)
100010f0:	46c0      	nop			; (mov r8, r8)
100010f2:	46c0      	nop			; (mov r8, r8)
100010f4:	46c0      	nop			; (mov r8, r8)
100010f6:	46c0      	nop			; (mov r8, r8)
100010f8:	46c0      	nop			; (mov r8, r8)
100010fa:	46c0      	nop			; (mov r8, r8)
100010fc:	46c0      	nop			; (mov r8, r8)
100010fe:	46c0      	nop			; (mov r8, r8)
10001100:	46c0      	nop			; (mov r8, r8)
10001102:	46c0      	nop			; (mov r8, r8)
10001104:	46c0      	nop			; (mov r8, r8)
10001106:	46c0      	nop			; (mov r8, r8)
10001108:	46c0      	nop			; (mov r8, r8)
1000110a:	46c0      	nop			; (mov r8, r8)
1000110c:	46c0      	nop			; (mov r8, r8)
1000110e:	46c0      	nop			; (mov r8, r8)
10001110:	46c0      	nop			; (mov r8, r8)
10001112:	46c0      	nop			; (mov r8, r8)
10001114:	46c0      	nop			; (mov r8, r8)
10001116:	46c0      	nop			; (mov r8, r8)
10001118:	46c0      	nop			; (mov r8, r8)
1000111a:	46c0      	nop			; (mov r8, r8)
1000111c:	46c0      	nop			; (mov r8, r8)
1000111e:	46c0      	nop			; (mov r8, r8)
10001120:	46c0      	nop			; (mov r8, r8)
10001122:	46c0      	nop			; (mov r8, r8)
10001124:	46c0      	nop			; (mov r8, r8)
10001126:	46c0      	nop			; (mov r8, r8)
10001128:	46c0      	nop			; (mov r8, r8)
1000112a:	46c0      	nop			; (mov r8, r8)
1000112c:	46c0      	nop			; (mov r8, r8)
1000112e:	46c0      	nop			; (mov r8, r8)
10001130:	46c0      	nop			; (mov r8, r8)
10001132:	46c0      	nop			; (mov r8, r8)
10001134:	46c0      	nop			; (mov r8, r8)
10001136:	46c0      	nop			; (mov r8, r8)
10001138:	46c0      	nop			; (mov r8, r8)
1000113a:	46c0      	nop			; (mov r8, r8)
1000113c:	46c0      	nop			; (mov r8, r8)
1000113e:	46c0      	nop			; (mov r8, r8)
10001140:	46c0      	nop			; (mov r8, r8)
10001142:	46c0      	nop			; (mov r8, r8)
10001144:	46c0      	nop			; (mov r8, r8)
10001146:	46c0      	nop			; (mov r8, r8)
10001148:	46c0      	nop			; (mov r8, r8)
1000114a:	46c0      	nop			; (mov r8, r8)
1000114c:	46c0      	nop			; (mov r8, r8)
1000114e:	46c0      	nop			; (mov r8, r8)
10001150:	46c0      	nop			; (mov r8, r8)
10001152:	46c0      	nop			; (mov r8, r8)
10001154:	46c0      	nop			; (mov r8, r8)
10001156:	46c0      	nop			; (mov r8, r8)
10001158:	46c0      	nop			; (mov r8, r8)
1000115a:	46c0      	nop			; (mov r8, r8)
1000115c:	46c0      	nop			; (mov r8, r8)
1000115e:	46c0      	nop			; (mov r8, r8)
10001160:	46c0      	nop			; (mov r8, r8)
10001162:	46c0      	nop			; (mov r8, r8)
10001164:	46c0      	nop			; (mov r8, r8)
10001166:	46c0      	nop			; (mov r8, r8)
10001168:	46c0      	nop			; (mov r8, r8)
1000116a:	46c0      	nop			; (mov r8, r8)
1000116c:	46c0      	nop			; (mov r8, r8)
1000116e:	46c0      	nop			; (mov r8, r8)
10001170:	46c0      	nop			; (mov r8, r8)
10001172:	46c0      	nop			; (mov r8, r8)
10001174:	46c0      	nop			; (mov r8, r8)
10001176:	46c0      	nop			; (mov r8, r8)
10001178:	46c0      	nop			; (mov r8, r8)
1000117a:	46c0      	nop			; (mov r8, r8)
1000117c:	46c0      	nop			; (mov r8, r8)
1000117e:	46c0      	nop			; (mov r8, r8)
10001180:	46c0      	nop			; (mov r8, r8)
10001182:	46c0      	nop			; (mov r8, r8)
10001184:	46c0      	nop			; (mov r8, r8)
10001186:	7823      	ldrb	r3, [r4, #0]
10001188:	2b00      	cmp	r3, #0
1000118a:	d1fc      	bne.n	10001186 <tft_drawPixel.part.0+0x996>
1000118c:	3301      	adds	r3, #1
1000118e:	7023      	strb	r3, [r4, #0]
10001190:	2280      	movs	r2, #128	; 0x80
10001192:	23d0      	movs	r3, #208	; 0xd0
10001194:	02d2      	lsls	r2, r2, #11
10001196:	061b      	lsls	r3, r3, #24
10001198:	615a      	str	r2, [r3, #20]
1000119a:	bc80      	pop	{r7}
1000119c:	46b8      	mov	r8, r7
1000119e:	bdf0      	pop	{r4, r5, r6, r7, pc}

100011a0 <tft_begin>:
100011a0:	b5f0      	push	{r4, r5, r6, r7, lr}
100011a2:	20fa      	movs	r0, #250	; 0xfa
100011a4:	46c6      	mov	lr, r8
100011a6:	24d0      	movs	r4, #208	; 0xd0
100011a8:	2580      	movs	r5, #128	; 0x80
100011aa:	2780      	movs	r7, #128	; 0x80
100011ac:	2680      	movs	r6, #128	; 0x80
100011ae:	0624      	lsls	r4, r4, #24
100011b0:	036d      	lsls	r5, r5, #13
100011b2:	b500      	push	{lr}
100011b4:	0040      	lsls	r0, r0, #1
100011b6:	027f      	lsls	r7, r7, #9
100011b8:	02f6      	lsls	r6, r6, #11
100011ba:	f002 f9d5 	bl	10003568 <sleep_ms>
100011be:	61a5      	str	r5, [r4, #24]
100011c0:	2005      	movs	r0, #5
100011c2:	61a7      	str	r7, [r4, #24]
100011c4:	6166      	str	r6, [r4, #20]
100011c6:	6165      	str	r5, [r4, #20]
100011c8:	f002 f9ce 	bl	10003568 <sleep_ms>
100011cc:	2014      	movs	r0, #20
100011ce:	61a5      	str	r5, [r4, #24]
100011d0:	f002 f9ca 	bl	10003568 <sleep_ms>
100011d4:	2096      	movs	r0, #150	; 0x96
100011d6:	6165      	str	r5, [r4, #20]
100011d8:	f002 f9c6 	bl	10003568 <sleep_ms>
100011dc:	2201      	movs	r2, #1
100011de:	4dde      	ldr	r5, [pc, #888]	; (10001558 <tft_begin+0x3b8>)
100011e0:	61a7      	str	r7, [r4, #24]
100011e2:	686b      	ldr	r3, [r5, #4]
100011e4:	6829      	ldr	r1, [r5, #0]
100011e6:	1d18      	adds	r0, r3, #4
100011e8:	3310      	adds	r3, #16
100011ea:	409a      	lsls	r2, r3
100011ec:	0080      	lsls	r0, r0, #2
100011ee:	61a6      	str	r6, [r4, #24]
100011f0:	1808      	adds	r0, r1, r0
100011f2:	684b      	ldr	r3, [r1, #4]
100011f4:	421a      	tst	r2, r3
100011f6:	d1fc      	bne.n	100011f2 <tft_begin+0x52>
100011f8:	23ef      	movs	r3, #239	; 0xef
100011fa:	7003      	strb	r3, [r0, #0]
100011fc:	6868      	ldr	r0, [r5, #4]
100011fe:	2201      	movs	r2, #1
10001200:	0003      	movs	r3, r0
10001202:	3310      	adds	r3, #16
10001204:	409a      	lsls	r2, r3
10001206:	6829      	ldr	r1, [r5, #0]
10001208:	4cd4      	ldr	r4, [pc, #848]	; (1000155c <tft_begin+0x3bc>)
1000120a:	7823      	ldrb	r3, [r4, #0]
1000120c:	2b00      	cmp	r3, #0
1000120e:	d1fc      	bne.n	1000120a <tft_begin+0x6a>
10001210:	3301      	adds	r3, #1
10001212:	7023      	strb	r3, [r4, #0]
10001214:	2680      	movs	r6, #128	; 0x80
10001216:	23d0      	movs	r3, #208	; 0xd0
10001218:	2780      	movs	r7, #128	; 0x80
1000121a:	3004      	adds	r0, #4
1000121c:	061b      	lsls	r3, r3, #24
1000121e:	02f6      	lsls	r6, r6, #11
10001220:	027f      	lsls	r7, r7, #9
10001222:	0080      	lsls	r0, r0, #2
10001224:	615e      	str	r6, [r3, #20]
10001226:	1808      	adds	r0, r1, r0
10001228:	615f      	str	r7, [r3, #20]
1000122a:	619e      	str	r6, [r3, #24]
1000122c:	684b      	ldr	r3, [r1, #4]
1000122e:	421a      	tst	r2, r3
10001230:	d1fc      	bne.n	1000122c <tft_begin+0x8c>
10001232:	2303      	movs	r3, #3
10001234:	7003      	strb	r3, [r0, #0]
10001236:	6868      	ldr	r0, [r5, #4]
10001238:	2201      	movs	r2, #1
1000123a:	0003      	movs	r3, r0
1000123c:	3310      	adds	r3, #16
1000123e:	409a      	lsls	r2, r3
10001240:	6829      	ldr	r1, [r5, #0]
10001242:	7823      	ldrb	r3, [r4, #0]
10001244:	2b00      	cmp	r3, #0
10001246:	d1fc      	bne.n	10001242 <tft_begin+0xa2>
10001248:	3301      	adds	r3, #1
1000124a:	7023      	strb	r3, [r4, #0]
1000124c:	2680      	movs	r6, #128	; 0x80
1000124e:	23d0      	movs	r3, #208	; 0xd0
10001250:	2780      	movs	r7, #128	; 0x80
10001252:	3004      	adds	r0, #4
10001254:	061b      	lsls	r3, r3, #24
10001256:	02f6      	lsls	r6, r6, #11
10001258:	027f      	lsls	r7, r7, #9
1000125a:	0080      	lsls	r0, r0, #2
1000125c:	615e      	str	r6, [r3, #20]
1000125e:	1808      	adds	r0, r1, r0
10001260:	615f      	str	r7, [r3, #20]
10001262:	619e      	str	r6, [r3, #24]
10001264:	684b      	ldr	r3, [r1, #4]
10001266:	421a      	tst	r2, r3
10001268:	d1fc      	bne.n	10001264 <tft_begin+0xc4>
1000126a:	2380      	movs	r3, #128	; 0x80
1000126c:	7003      	strb	r3, [r0, #0]
1000126e:	6868      	ldr	r0, [r5, #4]
10001270:	2201      	movs	r2, #1
10001272:	0003      	movs	r3, r0
10001274:	3310      	adds	r3, #16
10001276:	409a      	lsls	r2, r3
10001278:	6829      	ldr	r1, [r5, #0]
1000127a:	7823      	ldrb	r3, [r4, #0]
1000127c:	2b00      	cmp	r3, #0
1000127e:	d1fc      	bne.n	1000127a <tft_begin+0xda>
10001280:	3301      	adds	r3, #1
10001282:	7023      	strb	r3, [r4, #0]
10001284:	2680      	movs	r6, #128	; 0x80
10001286:	23d0      	movs	r3, #208	; 0xd0
10001288:	2780      	movs	r7, #128	; 0x80
1000128a:	3004      	adds	r0, #4
1000128c:	061b      	lsls	r3, r3, #24
1000128e:	02f6      	lsls	r6, r6, #11
10001290:	027f      	lsls	r7, r7, #9
10001292:	0080      	lsls	r0, r0, #2
10001294:	615e      	str	r6, [r3, #20]
10001296:	1808      	adds	r0, r1, r0
10001298:	615f      	str	r7, [r3, #20]
1000129a:	619e      	str	r6, [r3, #24]
1000129c:	684b      	ldr	r3, [r1, #4]
1000129e:	421a      	tst	r2, r3
100012a0:	d1fc      	bne.n	1000129c <tft_begin+0xfc>
100012a2:	2302      	movs	r3, #2
100012a4:	7003      	strb	r3, [r0, #0]
100012a6:	6868      	ldr	r0, [r5, #4]
100012a8:	2201      	movs	r2, #1
100012aa:	0003      	movs	r3, r0
100012ac:	3310      	adds	r3, #16
100012ae:	409a      	lsls	r2, r3
100012b0:	6829      	ldr	r1, [r5, #0]
100012b2:	7823      	ldrb	r3, [r4, #0]
100012b4:	2b00      	cmp	r3, #0
100012b6:	d1fc      	bne.n	100012b2 <tft_begin+0x112>
100012b8:	3301      	adds	r3, #1
100012ba:	7023      	strb	r3, [r4, #0]
100012bc:	2680      	movs	r6, #128	; 0x80
100012be:	23d0      	movs	r3, #208	; 0xd0
100012c0:	2780      	movs	r7, #128	; 0x80
100012c2:	3004      	adds	r0, #4
100012c4:	061b      	lsls	r3, r3, #24
100012c6:	02f6      	lsls	r6, r6, #11
100012c8:	027f      	lsls	r7, r7, #9
100012ca:	0080      	lsls	r0, r0, #2
100012cc:	615e      	str	r6, [r3, #20]
100012ce:	1808      	adds	r0, r1, r0
100012d0:	619f      	str	r7, [r3, #24]
100012d2:	619e      	str	r6, [r3, #24]
100012d4:	684b      	ldr	r3, [r1, #4]
100012d6:	421a      	tst	r2, r3
100012d8:	d1fc      	bne.n	100012d4 <tft_begin+0x134>
100012da:	23cf      	movs	r3, #207	; 0xcf
100012dc:	7003      	strb	r3, [r0, #0]
100012de:	6868      	ldr	r0, [r5, #4]
100012e0:	2201      	movs	r2, #1
100012e2:	0003      	movs	r3, r0
100012e4:	3310      	adds	r3, #16
100012e6:	409a      	lsls	r2, r3
100012e8:	6829      	ldr	r1, [r5, #0]
100012ea:	7823      	ldrb	r3, [r4, #0]
100012ec:	2b00      	cmp	r3, #0
100012ee:	d1fc      	bne.n	100012ea <tft_begin+0x14a>
100012f0:	3301      	adds	r3, #1
100012f2:	7023      	strb	r3, [r4, #0]
100012f4:	2680      	movs	r6, #128	; 0x80
100012f6:	23d0      	movs	r3, #208	; 0xd0
100012f8:	2780      	movs	r7, #128	; 0x80
100012fa:	061b      	lsls	r3, r3, #24
100012fc:	02f6      	lsls	r6, r6, #11
100012fe:	027f      	lsls	r7, r7, #9
10001300:	3004      	adds	r0, #4
10001302:	615e      	str	r6, [r3, #20]
10001304:	615f      	str	r7, [r3, #20]
10001306:	619e      	str	r6, [r3, #24]
10001308:	0086      	lsls	r6, r0, #2
1000130a:	198e      	adds	r6, r1, r6
1000130c:	0010      	movs	r0, r2
1000130e:	684b      	ldr	r3, [r1, #4]
10001310:	4018      	ands	r0, r3
10001312:	421a      	tst	r2, r3
10001314:	d1fa      	bne.n	1000130c <tft_begin+0x16c>
10001316:	7030      	strb	r0, [r6, #0]
10001318:	6868      	ldr	r0, [r5, #4]
1000131a:	2201      	movs	r2, #1
1000131c:	0003      	movs	r3, r0
1000131e:	3310      	adds	r3, #16
10001320:	409a      	lsls	r2, r3
10001322:	6829      	ldr	r1, [r5, #0]
10001324:	7823      	ldrb	r3, [r4, #0]
10001326:	2b00      	cmp	r3, #0
10001328:	d1fc      	bne.n	10001324 <tft_begin+0x184>
1000132a:	3301      	adds	r3, #1
1000132c:	7023      	strb	r3, [r4, #0]
1000132e:	2680      	movs	r6, #128	; 0x80
10001330:	23d0      	movs	r3, #208	; 0xd0
10001332:	2780      	movs	r7, #128	; 0x80
10001334:	3004      	adds	r0, #4
10001336:	061b      	lsls	r3, r3, #24
10001338:	02f6      	lsls	r6, r6, #11
1000133a:	027f      	lsls	r7, r7, #9
1000133c:	0080      	lsls	r0, r0, #2
1000133e:	615e      	str	r6, [r3, #20]
10001340:	1808      	adds	r0, r1, r0
10001342:	615f      	str	r7, [r3, #20]
10001344:	619e      	str	r6, [r3, #24]
10001346:	684b      	ldr	r3, [r1, #4]
10001348:	421a      	tst	r2, r3
1000134a:	d1fc      	bne.n	10001346 <tft_begin+0x1a6>
1000134c:	23c1      	movs	r3, #193	; 0xc1
1000134e:	7003      	strb	r3, [r0, #0]
10001350:	6868      	ldr	r0, [r5, #4]
10001352:	2201      	movs	r2, #1
10001354:	0003      	movs	r3, r0
10001356:	3310      	adds	r3, #16
10001358:	409a      	lsls	r2, r3
1000135a:	6829      	ldr	r1, [r5, #0]
1000135c:	7823      	ldrb	r3, [r4, #0]
1000135e:	2b00      	cmp	r3, #0
10001360:	d1fc      	bne.n	1000135c <tft_begin+0x1bc>
10001362:	3301      	adds	r3, #1
10001364:	7023      	strb	r3, [r4, #0]
10001366:	2680      	movs	r6, #128	; 0x80
10001368:	23d0      	movs	r3, #208	; 0xd0
1000136a:	2780      	movs	r7, #128	; 0x80
1000136c:	3004      	adds	r0, #4
1000136e:	061b      	lsls	r3, r3, #24
10001370:	02f6      	lsls	r6, r6, #11
10001372:	027f      	lsls	r7, r7, #9
10001374:	0080      	lsls	r0, r0, #2
10001376:	615e      	str	r6, [r3, #20]
10001378:	1808      	adds	r0, r1, r0
1000137a:	615f      	str	r7, [r3, #20]
1000137c:	619e      	str	r6, [r3, #24]
1000137e:	684b      	ldr	r3, [r1, #4]
10001380:	421a      	tst	r2, r3
10001382:	d1fc      	bne.n	1000137e <tft_begin+0x1de>
10001384:	2330      	movs	r3, #48	; 0x30
10001386:	7003      	strb	r3, [r0, #0]
10001388:	6868      	ldr	r0, [r5, #4]
1000138a:	2201      	movs	r2, #1
1000138c:	0003      	movs	r3, r0
1000138e:	3310      	adds	r3, #16
10001390:	409a      	lsls	r2, r3
10001392:	6829      	ldr	r1, [r5, #0]
10001394:	7823      	ldrb	r3, [r4, #0]
10001396:	2b00      	cmp	r3, #0
10001398:	d1fc      	bne.n	10001394 <tft_begin+0x1f4>
1000139a:	3301      	adds	r3, #1
1000139c:	7023      	strb	r3, [r4, #0]
1000139e:	2680      	movs	r6, #128	; 0x80
100013a0:	23d0      	movs	r3, #208	; 0xd0
100013a2:	2780      	movs	r7, #128	; 0x80
100013a4:	3004      	adds	r0, #4
100013a6:	061b      	lsls	r3, r3, #24
100013a8:	02f6      	lsls	r6, r6, #11
100013aa:	027f      	lsls	r7, r7, #9
100013ac:	0080      	lsls	r0, r0, #2
100013ae:	615e      	str	r6, [r3, #20]
100013b0:	1808      	adds	r0, r1, r0
100013b2:	619f      	str	r7, [r3, #24]
100013b4:	619e      	str	r6, [r3, #24]
100013b6:	684b      	ldr	r3, [r1, #4]
100013b8:	421a      	tst	r2, r3
100013ba:	d1fc      	bne.n	100013b6 <tft_begin+0x216>
100013bc:	23ed      	movs	r3, #237	; 0xed
100013be:	7003      	strb	r3, [r0, #0]
100013c0:	6868      	ldr	r0, [r5, #4]
100013c2:	2201      	movs	r2, #1
100013c4:	0003      	movs	r3, r0
100013c6:	3310      	adds	r3, #16
100013c8:	409a      	lsls	r2, r3
100013ca:	6829      	ldr	r1, [r5, #0]
100013cc:	7823      	ldrb	r3, [r4, #0]
100013ce:	2b00      	cmp	r3, #0
100013d0:	d1fc      	bne.n	100013cc <tft_begin+0x22c>
100013d2:	3301      	adds	r3, #1
100013d4:	7023      	strb	r3, [r4, #0]
100013d6:	2680      	movs	r6, #128	; 0x80
100013d8:	23d0      	movs	r3, #208	; 0xd0
100013da:	2780      	movs	r7, #128	; 0x80
100013dc:	3004      	adds	r0, #4
100013de:	061b      	lsls	r3, r3, #24
100013e0:	02f6      	lsls	r6, r6, #11
100013e2:	027f      	lsls	r7, r7, #9
100013e4:	0080      	lsls	r0, r0, #2
100013e6:	615e      	str	r6, [r3, #20]
100013e8:	1808      	adds	r0, r1, r0
100013ea:	615f      	str	r7, [r3, #20]
100013ec:	619e      	str	r6, [r3, #24]
100013ee:	684b      	ldr	r3, [r1, #4]
100013f0:	421a      	tst	r2, r3
100013f2:	d1fc      	bne.n	100013ee <tft_begin+0x24e>
100013f4:	2364      	movs	r3, #100	; 0x64
100013f6:	7003      	strb	r3, [r0, #0]
100013f8:	6868      	ldr	r0, [r5, #4]
100013fa:	2201      	movs	r2, #1
100013fc:	0003      	movs	r3, r0
100013fe:	3310      	adds	r3, #16
10001400:	409a      	lsls	r2, r3
10001402:	6829      	ldr	r1, [r5, #0]
10001404:	7823      	ldrb	r3, [r4, #0]
10001406:	2b00      	cmp	r3, #0
10001408:	d1fc      	bne.n	10001404 <tft_begin+0x264>
1000140a:	3301      	adds	r3, #1
1000140c:	7023      	strb	r3, [r4, #0]
1000140e:	2680      	movs	r6, #128	; 0x80
10001410:	23d0      	movs	r3, #208	; 0xd0
10001412:	2780      	movs	r7, #128	; 0x80
10001414:	3004      	adds	r0, #4
10001416:	061b      	lsls	r3, r3, #24
10001418:	02f6      	lsls	r6, r6, #11
1000141a:	027f      	lsls	r7, r7, #9
1000141c:	0080      	lsls	r0, r0, #2
1000141e:	615e      	str	r6, [r3, #20]
10001420:	1808      	adds	r0, r1, r0
10001422:	615f      	str	r7, [r3, #20]
10001424:	619e      	str	r6, [r3, #24]
10001426:	684b      	ldr	r3, [r1, #4]
10001428:	421a      	tst	r2, r3
1000142a:	d1fc      	bne.n	10001426 <tft_begin+0x286>
1000142c:	2303      	movs	r3, #3
1000142e:	7003      	strb	r3, [r0, #0]
10001430:	6868      	ldr	r0, [r5, #4]
10001432:	2201      	movs	r2, #1
10001434:	0003      	movs	r3, r0
10001436:	3310      	adds	r3, #16
10001438:	409a      	lsls	r2, r3
1000143a:	6829      	ldr	r1, [r5, #0]
1000143c:	7823      	ldrb	r3, [r4, #0]
1000143e:	2b00      	cmp	r3, #0
10001440:	d1fc      	bne.n	1000143c <tft_begin+0x29c>
10001442:	3301      	adds	r3, #1
10001444:	7023      	strb	r3, [r4, #0]
10001446:	2680      	movs	r6, #128	; 0x80
10001448:	23d0      	movs	r3, #208	; 0xd0
1000144a:	2780      	movs	r7, #128	; 0x80
1000144c:	3004      	adds	r0, #4
1000144e:	061b      	lsls	r3, r3, #24
10001450:	02f6      	lsls	r6, r6, #11
10001452:	027f      	lsls	r7, r7, #9
10001454:	0080      	lsls	r0, r0, #2
10001456:	615e      	str	r6, [r3, #20]
10001458:	1808      	adds	r0, r1, r0
1000145a:	615f      	str	r7, [r3, #20]
1000145c:	619e      	str	r6, [r3, #24]
1000145e:	684b      	ldr	r3, [r1, #4]
10001460:	421a      	tst	r2, r3
10001462:	d1fc      	bne.n	1000145e <tft_begin+0x2be>
10001464:	2312      	movs	r3, #18
10001466:	7003      	strb	r3, [r0, #0]
10001468:	6868      	ldr	r0, [r5, #4]
1000146a:	2201      	movs	r2, #1
1000146c:	0003      	movs	r3, r0
1000146e:	3310      	adds	r3, #16
10001470:	409a      	lsls	r2, r3
10001472:	6829      	ldr	r1, [r5, #0]
10001474:	7823      	ldrb	r3, [r4, #0]
10001476:	2b00      	cmp	r3, #0
10001478:	d1fc      	bne.n	10001474 <tft_begin+0x2d4>
1000147a:	3301      	adds	r3, #1
1000147c:	7023      	strb	r3, [r4, #0]
1000147e:	2680      	movs	r6, #128	; 0x80
10001480:	23d0      	movs	r3, #208	; 0xd0
10001482:	2780      	movs	r7, #128	; 0x80
10001484:	3004      	adds	r0, #4
10001486:	061b      	lsls	r3, r3, #24
10001488:	02f6      	lsls	r6, r6, #11
1000148a:	027f      	lsls	r7, r7, #9
1000148c:	0080      	lsls	r0, r0, #2
1000148e:	615e      	str	r6, [r3, #20]
10001490:	1808      	adds	r0, r1, r0
10001492:	615f      	str	r7, [r3, #20]
10001494:	619e      	str	r6, [r3, #24]
10001496:	684b      	ldr	r3, [r1, #4]
10001498:	421a      	tst	r2, r3
1000149a:	d1fc      	bne.n	10001496 <tft_begin+0x2f6>
1000149c:	2381      	movs	r3, #129	; 0x81
1000149e:	7003      	strb	r3, [r0, #0]
100014a0:	6868      	ldr	r0, [r5, #4]
100014a2:	2201      	movs	r2, #1
100014a4:	0003      	movs	r3, r0
100014a6:	3310      	adds	r3, #16
100014a8:	409a      	lsls	r2, r3
100014aa:	6829      	ldr	r1, [r5, #0]
100014ac:	7823      	ldrb	r3, [r4, #0]
100014ae:	2b00      	cmp	r3, #0
100014b0:	d1fc      	bne.n	100014ac <tft_begin+0x30c>
100014b2:	3301      	adds	r3, #1
100014b4:	7023      	strb	r3, [r4, #0]
100014b6:	2680      	movs	r6, #128	; 0x80
100014b8:	23d0      	movs	r3, #208	; 0xd0
100014ba:	2780      	movs	r7, #128	; 0x80
100014bc:	3004      	adds	r0, #4
100014be:	061b      	lsls	r3, r3, #24
100014c0:	02f6      	lsls	r6, r6, #11
100014c2:	027f      	lsls	r7, r7, #9
100014c4:	0080      	lsls	r0, r0, #2
100014c6:	615e      	str	r6, [r3, #20]
100014c8:	1808      	adds	r0, r1, r0
100014ca:	619f      	str	r7, [r3, #24]
100014cc:	619e      	str	r6, [r3, #24]
100014ce:	684b      	ldr	r3, [r1, #4]
100014d0:	421a      	tst	r2, r3
100014d2:	d1fc      	bne.n	100014ce <tft_begin+0x32e>
100014d4:	23e8      	movs	r3, #232	; 0xe8
100014d6:	7003      	strb	r3, [r0, #0]
100014d8:	6868      	ldr	r0, [r5, #4]
100014da:	2201      	movs	r2, #1
100014dc:	0003      	movs	r3, r0
100014de:	3310      	adds	r3, #16
100014e0:	409a      	lsls	r2, r3
100014e2:	6829      	ldr	r1, [r5, #0]
100014e4:	7823      	ldrb	r3, [r4, #0]
100014e6:	2b00      	cmp	r3, #0
100014e8:	d1fc      	bne.n	100014e4 <tft_begin+0x344>
100014ea:	3301      	adds	r3, #1
100014ec:	7023      	strb	r3, [r4, #0]
100014ee:	2680      	movs	r6, #128	; 0x80
100014f0:	23d0      	movs	r3, #208	; 0xd0
100014f2:	2780      	movs	r7, #128	; 0x80
100014f4:	3004      	adds	r0, #4
100014f6:	061b      	lsls	r3, r3, #24
100014f8:	02f6      	lsls	r6, r6, #11
100014fa:	027f      	lsls	r7, r7, #9
100014fc:	0080      	lsls	r0, r0, #2
100014fe:	615e      	str	r6, [r3, #20]
10001500:	1808      	adds	r0, r1, r0
10001502:	615f      	str	r7, [r3, #20]
10001504:	619e      	str	r6, [r3, #24]
10001506:	684b      	ldr	r3, [r1, #4]
10001508:	421a      	tst	r2, r3
1000150a:	d1fc      	bne.n	10001506 <tft_begin+0x366>
1000150c:	2385      	movs	r3, #133	; 0x85
1000150e:	7003      	strb	r3, [r0, #0]
10001510:	6868      	ldr	r0, [r5, #4]
10001512:	2201      	movs	r2, #1
10001514:	0003      	movs	r3, r0
10001516:	3310      	adds	r3, #16
10001518:	409a      	lsls	r2, r3
1000151a:	6829      	ldr	r1, [r5, #0]
1000151c:	7823      	ldrb	r3, [r4, #0]
1000151e:	2b00      	cmp	r3, #0
10001520:	d1fc      	bne.n	1000151c <tft_begin+0x37c>
10001522:	3301      	adds	r3, #1
10001524:	7023      	strb	r3, [r4, #0]
10001526:	2680      	movs	r6, #128	; 0x80
10001528:	23d0      	movs	r3, #208	; 0xd0
1000152a:	2780      	movs	r7, #128	; 0x80
1000152c:	061b      	lsls	r3, r3, #24
1000152e:	02f6      	lsls	r6, r6, #11
10001530:	027f      	lsls	r7, r7, #9
10001532:	3004      	adds	r0, #4
10001534:	615e      	str	r6, [r3, #20]
10001536:	615f      	str	r7, [r3, #20]
10001538:	619e      	str	r6, [r3, #24]
1000153a:	0086      	lsls	r6, r0, #2
1000153c:	198e      	adds	r6, r1, r6
1000153e:	0010      	movs	r0, r2
10001540:	684b      	ldr	r3, [r1, #4]
10001542:	4018      	ands	r0, r3
10001544:	421a      	tst	r2, r3
10001546:	d1fa      	bne.n	1000153e <tft_begin+0x39e>
10001548:	7030      	strb	r0, [r6, #0]
1000154a:	6868      	ldr	r0, [r5, #4]
1000154c:	2201      	movs	r2, #1
1000154e:	0003      	movs	r3, r0
10001550:	3310      	adds	r3, #16
10001552:	409a      	lsls	r2, r3
10001554:	6829      	ldr	r1, [r5, #0]
10001556:	e003      	b.n	10001560 <tft_begin+0x3c0>
10001558:	2000019c 	.word	0x2000019c
1000155c:	20000198 	.word	0x20000198
10001560:	7823      	ldrb	r3, [r4, #0]
10001562:	2b00      	cmp	r3, #0
10001564:	d1fc      	bne.n	10001560 <tft_begin+0x3c0>
10001566:	3301      	adds	r3, #1
10001568:	7023      	strb	r3, [r4, #0]
1000156a:	2680      	movs	r6, #128	; 0x80
1000156c:	23d0      	movs	r3, #208	; 0xd0
1000156e:	2780      	movs	r7, #128	; 0x80
10001570:	3004      	adds	r0, #4
10001572:	061b      	lsls	r3, r3, #24
10001574:	02f6      	lsls	r6, r6, #11
10001576:	027f      	lsls	r7, r7, #9
10001578:	0080      	lsls	r0, r0, #2
1000157a:	615e      	str	r6, [r3, #20]
1000157c:	1808      	adds	r0, r1, r0
1000157e:	615f      	str	r7, [r3, #20]
10001580:	619e      	str	r6, [r3, #24]
10001582:	684b      	ldr	r3, [r1, #4]
10001584:	421a      	tst	r2, r3
10001586:	d1fc      	bne.n	10001582 <tft_begin+0x3e2>
10001588:	2378      	movs	r3, #120	; 0x78
1000158a:	7003      	strb	r3, [r0, #0]
1000158c:	6868      	ldr	r0, [r5, #4]
1000158e:	2201      	movs	r2, #1
10001590:	0003      	movs	r3, r0
10001592:	3310      	adds	r3, #16
10001594:	409a      	lsls	r2, r3
10001596:	6829      	ldr	r1, [r5, #0]
10001598:	7823      	ldrb	r3, [r4, #0]
1000159a:	2b00      	cmp	r3, #0
1000159c:	d1fc      	bne.n	10001598 <tft_begin+0x3f8>
1000159e:	3301      	adds	r3, #1
100015a0:	7023      	strb	r3, [r4, #0]
100015a2:	2680      	movs	r6, #128	; 0x80
100015a4:	23d0      	movs	r3, #208	; 0xd0
100015a6:	2780      	movs	r7, #128	; 0x80
100015a8:	3004      	adds	r0, #4
100015aa:	061b      	lsls	r3, r3, #24
100015ac:	02f6      	lsls	r6, r6, #11
100015ae:	027f      	lsls	r7, r7, #9
100015b0:	0080      	lsls	r0, r0, #2
100015b2:	615e      	str	r6, [r3, #20]
100015b4:	1808      	adds	r0, r1, r0
100015b6:	619f      	str	r7, [r3, #24]
100015b8:	619e      	str	r6, [r3, #24]
100015ba:	684b      	ldr	r3, [r1, #4]
100015bc:	421a      	tst	r2, r3
100015be:	d1fc      	bne.n	100015ba <tft_begin+0x41a>
100015c0:	23cb      	movs	r3, #203	; 0xcb
100015c2:	7003      	strb	r3, [r0, #0]
100015c4:	6868      	ldr	r0, [r5, #4]
100015c6:	2201      	movs	r2, #1
100015c8:	0003      	movs	r3, r0
100015ca:	3310      	adds	r3, #16
100015cc:	409a      	lsls	r2, r3
100015ce:	6829      	ldr	r1, [r5, #0]
100015d0:	7823      	ldrb	r3, [r4, #0]
100015d2:	2b00      	cmp	r3, #0
100015d4:	d1fc      	bne.n	100015d0 <tft_begin+0x430>
100015d6:	3301      	adds	r3, #1
100015d8:	7023      	strb	r3, [r4, #0]
100015da:	2680      	movs	r6, #128	; 0x80
100015dc:	23d0      	movs	r3, #208	; 0xd0
100015de:	2780      	movs	r7, #128	; 0x80
100015e0:	3004      	adds	r0, #4
100015e2:	061b      	lsls	r3, r3, #24
100015e4:	02f6      	lsls	r6, r6, #11
100015e6:	027f      	lsls	r7, r7, #9
100015e8:	0080      	lsls	r0, r0, #2
100015ea:	615e      	str	r6, [r3, #20]
100015ec:	1808      	adds	r0, r1, r0
100015ee:	615f      	str	r7, [r3, #20]
100015f0:	619e      	str	r6, [r3, #24]
100015f2:	684b      	ldr	r3, [r1, #4]
100015f4:	421a      	tst	r2, r3
100015f6:	d1fc      	bne.n	100015f2 <tft_begin+0x452>
100015f8:	2339      	movs	r3, #57	; 0x39
100015fa:	7003      	strb	r3, [r0, #0]
100015fc:	6868      	ldr	r0, [r5, #4]
100015fe:	2201      	movs	r2, #1
10001600:	0003      	movs	r3, r0
10001602:	3310      	adds	r3, #16
10001604:	409a      	lsls	r2, r3
10001606:	6829      	ldr	r1, [r5, #0]
10001608:	7823      	ldrb	r3, [r4, #0]
1000160a:	2b00      	cmp	r3, #0
1000160c:	d1fc      	bne.n	10001608 <tft_begin+0x468>
1000160e:	3301      	adds	r3, #1
10001610:	7023      	strb	r3, [r4, #0]
10001612:	2680      	movs	r6, #128	; 0x80
10001614:	23d0      	movs	r3, #208	; 0xd0
10001616:	2780      	movs	r7, #128	; 0x80
10001618:	3004      	adds	r0, #4
1000161a:	061b      	lsls	r3, r3, #24
1000161c:	02f6      	lsls	r6, r6, #11
1000161e:	027f      	lsls	r7, r7, #9
10001620:	0080      	lsls	r0, r0, #2
10001622:	615e      	str	r6, [r3, #20]
10001624:	1808      	adds	r0, r1, r0
10001626:	615f      	str	r7, [r3, #20]
10001628:	619e      	str	r6, [r3, #24]
1000162a:	684b      	ldr	r3, [r1, #4]
1000162c:	421a      	tst	r2, r3
1000162e:	d1fc      	bne.n	1000162a <tft_begin+0x48a>
10001630:	232c      	movs	r3, #44	; 0x2c
10001632:	7003      	strb	r3, [r0, #0]
10001634:	6868      	ldr	r0, [r5, #4]
10001636:	2201      	movs	r2, #1
10001638:	0003      	movs	r3, r0
1000163a:	3310      	adds	r3, #16
1000163c:	409a      	lsls	r2, r3
1000163e:	6829      	ldr	r1, [r5, #0]
10001640:	7823      	ldrb	r3, [r4, #0]
10001642:	2b00      	cmp	r3, #0
10001644:	d1fc      	bne.n	10001640 <tft_begin+0x4a0>
10001646:	3301      	adds	r3, #1
10001648:	7023      	strb	r3, [r4, #0]
1000164a:	2680      	movs	r6, #128	; 0x80
1000164c:	23d0      	movs	r3, #208	; 0xd0
1000164e:	2780      	movs	r7, #128	; 0x80
10001650:	061b      	lsls	r3, r3, #24
10001652:	02f6      	lsls	r6, r6, #11
10001654:	027f      	lsls	r7, r7, #9
10001656:	3004      	adds	r0, #4
10001658:	615e      	str	r6, [r3, #20]
1000165a:	615f      	str	r7, [r3, #20]
1000165c:	619e      	str	r6, [r3, #24]
1000165e:	0086      	lsls	r6, r0, #2
10001660:	198e      	adds	r6, r1, r6
10001662:	0010      	movs	r0, r2
10001664:	684b      	ldr	r3, [r1, #4]
10001666:	4018      	ands	r0, r3
10001668:	421a      	tst	r2, r3
1000166a:	d1fa      	bne.n	10001662 <tft_begin+0x4c2>
1000166c:	7030      	strb	r0, [r6, #0]
1000166e:	6868      	ldr	r0, [r5, #4]
10001670:	2201      	movs	r2, #1
10001672:	0003      	movs	r3, r0
10001674:	3310      	adds	r3, #16
10001676:	409a      	lsls	r2, r3
10001678:	6829      	ldr	r1, [r5, #0]
1000167a:	7823      	ldrb	r3, [r4, #0]
1000167c:	2b00      	cmp	r3, #0
1000167e:	d1fc      	bne.n	1000167a <tft_begin+0x4da>
10001680:	3301      	adds	r3, #1
10001682:	7023      	strb	r3, [r4, #0]
10001684:	2680      	movs	r6, #128	; 0x80
10001686:	23d0      	movs	r3, #208	; 0xd0
10001688:	2780      	movs	r7, #128	; 0x80
1000168a:	3004      	adds	r0, #4
1000168c:	061b      	lsls	r3, r3, #24
1000168e:	02f6      	lsls	r6, r6, #11
10001690:	027f      	lsls	r7, r7, #9
10001692:	0080      	lsls	r0, r0, #2
10001694:	615e      	str	r6, [r3, #20]
10001696:	1808      	adds	r0, r1, r0
10001698:	615f      	str	r7, [r3, #20]
1000169a:	619e      	str	r6, [r3, #24]
1000169c:	684b      	ldr	r3, [r1, #4]
1000169e:	421a      	tst	r2, r3
100016a0:	d1fc      	bne.n	1000169c <tft_begin+0x4fc>
100016a2:	2334      	movs	r3, #52	; 0x34
100016a4:	7003      	strb	r3, [r0, #0]
100016a6:	6868      	ldr	r0, [r5, #4]
100016a8:	2201      	movs	r2, #1
100016aa:	0003      	movs	r3, r0
100016ac:	3310      	adds	r3, #16
100016ae:	409a      	lsls	r2, r3
100016b0:	6829      	ldr	r1, [r5, #0]
100016b2:	7823      	ldrb	r3, [r4, #0]
100016b4:	2b00      	cmp	r3, #0
100016b6:	d1fc      	bne.n	100016b2 <tft_begin+0x512>
100016b8:	3301      	adds	r3, #1
100016ba:	7023      	strb	r3, [r4, #0]
100016bc:	2680      	movs	r6, #128	; 0x80
100016be:	23d0      	movs	r3, #208	; 0xd0
100016c0:	2780      	movs	r7, #128	; 0x80
100016c2:	3004      	adds	r0, #4
100016c4:	061b      	lsls	r3, r3, #24
100016c6:	02f6      	lsls	r6, r6, #11
100016c8:	027f      	lsls	r7, r7, #9
100016ca:	0080      	lsls	r0, r0, #2
100016cc:	615e      	str	r6, [r3, #20]
100016ce:	1808      	adds	r0, r1, r0
100016d0:	615f      	str	r7, [r3, #20]
100016d2:	619e      	str	r6, [r3, #24]
100016d4:	684b      	ldr	r3, [r1, #4]
100016d6:	421a      	tst	r2, r3
100016d8:	d1fc      	bne.n	100016d4 <tft_begin+0x534>
100016da:	2302      	movs	r3, #2
100016dc:	7003      	strb	r3, [r0, #0]
100016de:	6868      	ldr	r0, [r5, #4]
100016e0:	2201      	movs	r2, #1
100016e2:	0003      	movs	r3, r0
100016e4:	3310      	adds	r3, #16
100016e6:	409a      	lsls	r2, r3
100016e8:	6829      	ldr	r1, [r5, #0]
100016ea:	7823      	ldrb	r3, [r4, #0]
100016ec:	2b00      	cmp	r3, #0
100016ee:	d1fc      	bne.n	100016ea <tft_begin+0x54a>
100016f0:	3301      	adds	r3, #1
100016f2:	7023      	strb	r3, [r4, #0]
100016f4:	2680      	movs	r6, #128	; 0x80
100016f6:	23d0      	movs	r3, #208	; 0xd0
100016f8:	2780      	movs	r7, #128	; 0x80
100016fa:	3004      	adds	r0, #4
100016fc:	061b      	lsls	r3, r3, #24
100016fe:	02f6      	lsls	r6, r6, #11
10001700:	027f      	lsls	r7, r7, #9
10001702:	0080      	lsls	r0, r0, #2
10001704:	615e      	str	r6, [r3, #20]
10001706:	1808      	adds	r0, r1, r0
10001708:	619f      	str	r7, [r3, #24]
1000170a:	619e      	str	r6, [r3, #24]
1000170c:	684b      	ldr	r3, [r1, #4]
1000170e:	421a      	tst	r2, r3
10001710:	d1fc      	bne.n	1000170c <tft_begin+0x56c>
10001712:	23f7      	movs	r3, #247	; 0xf7
10001714:	7003      	strb	r3, [r0, #0]
10001716:	6868      	ldr	r0, [r5, #4]
10001718:	2201      	movs	r2, #1
1000171a:	0003      	movs	r3, r0
1000171c:	3310      	adds	r3, #16
1000171e:	409a      	lsls	r2, r3
10001720:	6829      	ldr	r1, [r5, #0]
10001722:	7823      	ldrb	r3, [r4, #0]
10001724:	2b00      	cmp	r3, #0
10001726:	d1fc      	bne.n	10001722 <tft_begin+0x582>
10001728:	3301      	adds	r3, #1
1000172a:	7023      	strb	r3, [r4, #0]
1000172c:	2680      	movs	r6, #128	; 0x80
1000172e:	23d0      	movs	r3, #208	; 0xd0
10001730:	2780      	movs	r7, #128	; 0x80
10001732:	3004      	adds	r0, #4
10001734:	061b      	lsls	r3, r3, #24
10001736:	02f6      	lsls	r6, r6, #11
10001738:	027f      	lsls	r7, r7, #9
1000173a:	0080      	lsls	r0, r0, #2
1000173c:	615e      	str	r6, [r3, #20]
1000173e:	1808      	adds	r0, r1, r0
10001740:	615f      	str	r7, [r3, #20]
10001742:	619e      	str	r6, [r3, #24]
10001744:	684b      	ldr	r3, [r1, #4]
10001746:	421a      	tst	r2, r3
10001748:	d1fc      	bne.n	10001744 <tft_begin+0x5a4>
1000174a:	2320      	movs	r3, #32
1000174c:	7003      	strb	r3, [r0, #0]
1000174e:	6868      	ldr	r0, [r5, #4]
10001750:	2201      	movs	r2, #1
10001752:	0003      	movs	r3, r0
10001754:	3310      	adds	r3, #16
10001756:	409a      	lsls	r2, r3
10001758:	6829      	ldr	r1, [r5, #0]
1000175a:	7823      	ldrb	r3, [r4, #0]
1000175c:	2b00      	cmp	r3, #0
1000175e:	d1fc      	bne.n	1000175a <tft_begin+0x5ba>
10001760:	3301      	adds	r3, #1
10001762:	7023      	strb	r3, [r4, #0]
10001764:	2680      	movs	r6, #128	; 0x80
10001766:	23d0      	movs	r3, #208	; 0xd0
10001768:	2780      	movs	r7, #128	; 0x80
1000176a:	3004      	adds	r0, #4
1000176c:	061b      	lsls	r3, r3, #24
1000176e:	02f6      	lsls	r6, r6, #11
10001770:	027f      	lsls	r7, r7, #9
10001772:	0080      	lsls	r0, r0, #2
10001774:	615e      	str	r6, [r3, #20]
10001776:	1808      	adds	r0, r1, r0
10001778:	619f      	str	r7, [r3, #24]
1000177a:	619e      	str	r6, [r3, #24]
1000177c:	684b      	ldr	r3, [r1, #4]
1000177e:	421a      	tst	r2, r3
10001780:	d1fc      	bne.n	1000177c <tft_begin+0x5dc>
10001782:	23ea      	movs	r3, #234	; 0xea
10001784:	7003      	strb	r3, [r0, #0]
10001786:	6868      	ldr	r0, [r5, #4]
10001788:	2201      	movs	r2, #1
1000178a:	0003      	movs	r3, r0
1000178c:	3310      	adds	r3, #16
1000178e:	409a      	lsls	r2, r3
10001790:	6829      	ldr	r1, [r5, #0]
10001792:	7823      	ldrb	r3, [r4, #0]
10001794:	2b00      	cmp	r3, #0
10001796:	d1fc      	bne.n	10001792 <tft_begin+0x5f2>
10001798:	3301      	adds	r3, #1
1000179a:	7023      	strb	r3, [r4, #0]
1000179c:	2680      	movs	r6, #128	; 0x80
1000179e:	23d0      	movs	r3, #208	; 0xd0
100017a0:	2780      	movs	r7, #128	; 0x80
100017a2:	061b      	lsls	r3, r3, #24
100017a4:	02f6      	lsls	r6, r6, #11
100017a6:	027f      	lsls	r7, r7, #9
100017a8:	3004      	adds	r0, #4
100017aa:	615e      	str	r6, [r3, #20]
100017ac:	615f      	str	r7, [r3, #20]
100017ae:	619e      	str	r6, [r3, #24]
100017b0:	0086      	lsls	r6, r0, #2
100017b2:	198e      	adds	r6, r1, r6
100017b4:	0010      	movs	r0, r2
100017b6:	684b      	ldr	r3, [r1, #4]
100017b8:	4018      	ands	r0, r3
100017ba:	421a      	tst	r2, r3
100017bc:	d1fa      	bne.n	100017b4 <tft_begin+0x614>
100017be:	7030      	strb	r0, [r6, #0]
100017c0:	6868      	ldr	r0, [r5, #4]
100017c2:	2201      	movs	r2, #1
100017c4:	0003      	movs	r3, r0
100017c6:	3310      	adds	r3, #16
100017c8:	409a      	lsls	r2, r3
100017ca:	6829      	ldr	r1, [r5, #0]
100017cc:	7823      	ldrb	r3, [r4, #0]
100017ce:	2b00      	cmp	r3, #0
100017d0:	d1fc      	bne.n	100017cc <tft_begin+0x62c>
100017d2:	3301      	adds	r3, #1
100017d4:	7023      	strb	r3, [r4, #0]
100017d6:	2680      	movs	r6, #128	; 0x80
100017d8:	23d0      	movs	r3, #208	; 0xd0
100017da:	2780      	movs	r7, #128	; 0x80
100017dc:	061b      	lsls	r3, r3, #24
100017de:	02f6      	lsls	r6, r6, #11
100017e0:	027f      	lsls	r7, r7, #9
100017e2:	3004      	adds	r0, #4
100017e4:	615e      	str	r6, [r3, #20]
100017e6:	615f      	str	r7, [r3, #20]
100017e8:	619e      	str	r6, [r3, #24]
100017ea:	0086      	lsls	r6, r0, #2
100017ec:	198e      	adds	r6, r1, r6
100017ee:	0010      	movs	r0, r2
100017f0:	684b      	ldr	r3, [r1, #4]
100017f2:	4018      	ands	r0, r3
100017f4:	421a      	tst	r2, r3
100017f6:	d1fa      	bne.n	100017ee <tft_begin+0x64e>
100017f8:	7030      	strb	r0, [r6, #0]
100017fa:	6868      	ldr	r0, [r5, #4]
100017fc:	2201      	movs	r2, #1
100017fe:	0003      	movs	r3, r0
10001800:	3310      	adds	r3, #16
10001802:	409a      	lsls	r2, r3
10001804:	6829      	ldr	r1, [r5, #0]
10001806:	7823      	ldrb	r3, [r4, #0]
10001808:	2b00      	cmp	r3, #0
1000180a:	d1fc      	bne.n	10001806 <tft_begin+0x666>
1000180c:	3301      	adds	r3, #1
1000180e:	7023      	strb	r3, [r4, #0]
10001810:	2680      	movs	r6, #128	; 0x80
10001812:	23d0      	movs	r3, #208	; 0xd0
10001814:	2780      	movs	r7, #128	; 0x80
10001816:	3004      	adds	r0, #4
10001818:	061b      	lsls	r3, r3, #24
1000181a:	02f6      	lsls	r6, r6, #11
1000181c:	027f      	lsls	r7, r7, #9
1000181e:	0080      	lsls	r0, r0, #2
10001820:	615e      	str	r6, [r3, #20]
10001822:	1808      	adds	r0, r1, r0
10001824:	619f      	str	r7, [r3, #24]
10001826:	619e      	str	r6, [r3, #24]
10001828:	684b      	ldr	r3, [r1, #4]
1000182a:	421a      	tst	r2, r3
1000182c:	d1fc      	bne.n	10001828 <tft_begin+0x688>
1000182e:	23c0      	movs	r3, #192	; 0xc0
10001830:	7003      	strb	r3, [r0, #0]
10001832:	6868      	ldr	r0, [r5, #4]
10001834:	2201      	movs	r2, #1
10001836:	0003      	movs	r3, r0
10001838:	3310      	adds	r3, #16
1000183a:	409a      	lsls	r2, r3
1000183c:	6829      	ldr	r1, [r5, #0]
1000183e:	7823      	ldrb	r3, [r4, #0]
10001840:	2b00      	cmp	r3, #0
10001842:	d1fc      	bne.n	1000183e <tft_begin+0x69e>
10001844:	3301      	adds	r3, #1
10001846:	7023      	strb	r3, [r4, #0]
10001848:	2680      	movs	r6, #128	; 0x80
1000184a:	23d0      	movs	r3, #208	; 0xd0
1000184c:	2780      	movs	r7, #128	; 0x80
1000184e:	3004      	adds	r0, #4
10001850:	061b      	lsls	r3, r3, #24
10001852:	02f6      	lsls	r6, r6, #11
10001854:	027f      	lsls	r7, r7, #9
10001856:	0080      	lsls	r0, r0, #2
10001858:	615e      	str	r6, [r3, #20]
1000185a:	1808      	adds	r0, r1, r0
1000185c:	615f      	str	r7, [r3, #20]
1000185e:	619e      	str	r6, [r3, #24]
10001860:	684b      	ldr	r3, [r1, #4]
10001862:	421a      	tst	r2, r3
10001864:	d1fc      	bne.n	10001860 <tft_begin+0x6c0>
10001866:	2323      	movs	r3, #35	; 0x23
10001868:	7003      	strb	r3, [r0, #0]
1000186a:	6868      	ldr	r0, [r5, #4]
1000186c:	2201      	movs	r2, #1
1000186e:	0003      	movs	r3, r0
10001870:	3310      	adds	r3, #16
10001872:	409a      	lsls	r2, r3
10001874:	6829      	ldr	r1, [r5, #0]
10001876:	7823      	ldrb	r3, [r4, #0]
10001878:	2b00      	cmp	r3, #0
1000187a:	d1fc      	bne.n	10001876 <tft_begin+0x6d6>
1000187c:	3301      	adds	r3, #1
1000187e:	7023      	strb	r3, [r4, #0]
10001880:	2680      	movs	r6, #128	; 0x80
10001882:	23d0      	movs	r3, #208	; 0xd0
10001884:	2780      	movs	r7, #128	; 0x80
10001886:	3004      	adds	r0, #4
10001888:	061b      	lsls	r3, r3, #24
1000188a:	02f6      	lsls	r6, r6, #11
1000188c:	027f      	lsls	r7, r7, #9
1000188e:	0080      	lsls	r0, r0, #2
10001890:	615e      	str	r6, [r3, #20]
10001892:	1808      	adds	r0, r1, r0
10001894:	619f      	str	r7, [r3, #24]
10001896:	619e      	str	r6, [r3, #24]
10001898:	684b      	ldr	r3, [r1, #4]
1000189a:	421a      	tst	r2, r3
1000189c:	d1fc      	bne.n	10001898 <tft_begin+0x6f8>
1000189e:	23c1      	movs	r3, #193	; 0xc1
100018a0:	7003      	strb	r3, [r0, #0]
100018a2:	6868      	ldr	r0, [r5, #4]
100018a4:	2201      	movs	r2, #1
100018a6:	0003      	movs	r3, r0
100018a8:	3310      	adds	r3, #16
100018aa:	409a      	lsls	r2, r3
100018ac:	6829      	ldr	r1, [r5, #0]
100018ae:	7823      	ldrb	r3, [r4, #0]
100018b0:	2b00      	cmp	r3, #0
100018b2:	d1fc      	bne.n	100018ae <tft_begin+0x70e>
100018b4:	3301      	adds	r3, #1
100018b6:	7023      	strb	r3, [r4, #0]
100018b8:	2680      	movs	r6, #128	; 0x80
100018ba:	23d0      	movs	r3, #208	; 0xd0
100018bc:	2780      	movs	r7, #128	; 0x80
100018be:	3004      	adds	r0, #4
100018c0:	061b      	lsls	r3, r3, #24
100018c2:	02f6      	lsls	r6, r6, #11
100018c4:	027f      	lsls	r7, r7, #9
100018c6:	0080      	lsls	r0, r0, #2
100018c8:	615e      	str	r6, [r3, #20]
100018ca:	1808      	adds	r0, r1, r0
100018cc:	615f      	str	r7, [r3, #20]
100018ce:	619e      	str	r6, [r3, #24]
100018d0:	684b      	ldr	r3, [r1, #4]
100018d2:	421a      	tst	r2, r3
100018d4:	d1fc      	bne.n	100018d0 <tft_begin+0x730>
100018d6:	2310      	movs	r3, #16
100018d8:	7003      	strb	r3, [r0, #0]
100018da:	6868      	ldr	r0, [r5, #4]
100018dc:	2201      	movs	r2, #1
100018de:	0003      	movs	r3, r0
100018e0:	3310      	adds	r3, #16
100018e2:	409a      	lsls	r2, r3
100018e4:	6829      	ldr	r1, [r5, #0]
100018e6:	7823      	ldrb	r3, [r4, #0]
100018e8:	2b00      	cmp	r3, #0
100018ea:	d1fc      	bne.n	100018e6 <tft_begin+0x746>
100018ec:	3301      	adds	r3, #1
100018ee:	7023      	strb	r3, [r4, #0]
100018f0:	2680      	movs	r6, #128	; 0x80
100018f2:	23d0      	movs	r3, #208	; 0xd0
100018f4:	2780      	movs	r7, #128	; 0x80
100018f6:	3004      	adds	r0, #4
100018f8:	061b      	lsls	r3, r3, #24
100018fa:	02f6      	lsls	r6, r6, #11
100018fc:	027f      	lsls	r7, r7, #9
100018fe:	0080      	lsls	r0, r0, #2
10001900:	615e      	str	r6, [r3, #20]
10001902:	1808      	adds	r0, r1, r0
10001904:	619f      	str	r7, [r3, #24]
10001906:	619e      	str	r6, [r3, #24]
10001908:	684b      	ldr	r3, [r1, #4]
1000190a:	421a      	tst	r2, r3
1000190c:	d1fc      	bne.n	10001908 <tft_begin+0x768>
1000190e:	23c5      	movs	r3, #197	; 0xc5
10001910:	7003      	strb	r3, [r0, #0]
10001912:	6868      	ldr	r0, [r5, #4]
10001914:	2201      	movs	r2, #1
10001916:	0003      	movs	r3, r0
10001918:	3310      	adds	r3, #16
1000191a:	409a      	lsls	r2, r3
1000191c:	6829      	ldr	r1, [r5, #0]
1000191e:	7823      	ldrb	r3, [r4, #0]
10001920:	2b00      	cmp	r3, #0
10001922:	d1fc      	bne.n	1000191e <tft_begin+0x77e>
10001924:	3301      	adds	r3, #1
10001926:	7023      	strb	r3, [r4, #0]
10001928:	2680      	movs	r6, #128	; 0x80
1000192a:	23d0      	movs	r3, #208	; 0xd0
1000192c:	2780      	movs	r7, #128	; 0x80
1000192e:	3004      	adds	r0, #4
10001930:	061b      	lsls	r3, r3, #24
10001932:	02f6      	lsls	r6, r6, #11
10001934:	027f      	lsls	r7, r7, #9
10001936:	0080      	lsls	r0, r0, #2
10001938:	615e      	str	r6, [r3, #20]
1000193a:	1808      	adds	r0, r1, r0
1000193c:	615f      	str	r7, [r3, #20]
1000193e:	619e      	str	r6, [r3, #24]
10001940:	684b      	ldr	r3, [r1, #4]
10001942:	421a      	tst	r2, r3
10001944:	d1fc      	bne.n	10001940 <tft_begin+0x7a0>
10001946:	233e      	movs	r3, #62	; 0x3e
10001948:	7003      	strb	r3, [r0, #0]
1000194a:	6868      	ldr	r0, [r5, #4]
1000194c:	2201      	movs	r2, #1
1000194e:	0003      	movs	r3, r0
10001950:	3310      	adds	r3, #16
10001952:	409a      	lsls	r2, r3
10001954:	6829      	ldr	r1, [r5, #0]
10001956:	7823      	ldrb	r3, [r4, #0]
10001958:	2b00      	cmp	r3, #0
1000195a:	d1fc      	bne.n	10001956 <tft_begin+0x7b6>
1000195c:	3301      	adds	r3, #1
1000195e:	7023      	strb	r3, [r4, #0]
10001960:	2680      	movs	r6, #128	; 0x80
10001962:	23d0      	movs	r3, #208	; 0xd0
10001964:	2780      	movs	r7, #128	; 0x80
10001966:	3004      	adds	r0, #4
10001968:	061b      	lsls	r3, r3, #24
1000196a:	02f6      	lsls	r6, r6, #11
1000196c:	027f      	lsls	r7, r7, #9
1000196e:	0080      	lsls	r0, r0, #2
10001970:	615e      	str	r6, [r3, #20]
10001972:	1808      	adds	r0, r1, r0
10001974:	615f      	str	r7, [r3, #20]
10001976:	619e      	str	r6, [r3, #24]
10001978:	684b      	ldr	r3, [r1, #4]
1000197a:	421a      	tst	r2, r3
1000197c:	d1fc      	bne.n	10001978 <tft_begin+0x7d8>
1000197e:	2328      	movs	r3, #40	; 0x28
10001980:	7003      	strb	r3, [r0, #0]
10001982:	6868      	ldr	r0, [r5, #4]
10001984:	2201      	movs	r2, #1
10001986:	0003      	movs	r3, r0
10001988:	3310      	adds	r3, #16
1000198a:	409a      	lsls	r2, r3
1000198c:	6829      	ldr	r1, [r5, #0]
1000198e:	7823      	ldrb	r3, [r4, #0]
10001990:	2b00      	cmp	r3, #0
10001992:	d1fc      	bne.n	1000198e <tft_begin+0x7ee>
10001994:	3301      	adds	r3, #1
10001996:	7023      	strb	r3, [r4, #0]
10001998:	2680      	movs	r6, #128	; 0x80
1000199a:	23d0      	movs	r3, #208	; 0xd0
1000199c:	2780      	movs	r7, #128	; 0x80
1000199e:	3004      	adds	r0, #4
100019a0:	061b      	lsls	r3, r3, #24
100019a2:	02f6      	lsls	r6, r6, #11
100019a4:	027f      	lsls	r7, r7, #9
100019a6:	0080      	lsls	r0, r0, #2
100019a8:	615e      	str	r6, [r3, #20]
100019aa:	1808      	adds	r0, r1, r0
100019ac:	619f      	str	r7, [r3, #24]
100019ae:	619e      	str	r6, [r3, #24]
100019b0:	684b      	ldr	r3, [r1, #4]
100019b2:	421a      	tst	r2, r3
100019b4:	d1fc      	bne.n	100019b0 <tft_begin+0x810>
100019b6:	23c7      	movs	r3, #199	; 0xc7
100019b8:	7003      	strb	r3, [r0, #0]
100019ba:	6868      	ldr	r0, [r5, #4]
100019bc:	2201      	movs	r2, #1
100019be:	0003      	movs	r3, r0
100019c0:	3310      	adds	r3, #16
100019c2:	409a      	lsls	r2, r3
100019c4:	6829      	ldr	r1, [r5, #0]
100019c6:	7823      	ldrb	r3, [r4, #0]
100019c8:	2b00      	cmp	r3, #0
100019ca:	d1fc      	bne.n	100019c6 <tft_begin+0x826>
100019cc:	3301      	adds	r3, #1
100019ce:	7023      	strb	r3, [r4, #0]
100019d0:	2680      	movs	r6, #128	; 0x80
100019d2:	23d0      	movs	r3, #208	; 0xd0
100019d4:	2780      	movs	r7, #128	; 0x80
100019d6:	3004      	adds	r0, #4
100019d8:	061b      	lsls	r3, r3, #24
100019da:	02f6      	lsls	r6, r6, #11
100019dc:	027f      	lsls	r7, r7, #9
100019de:	0080      	lsls	r0, r0, #2
100019e0:	615e      	str	r6, [r3, #20]
100019e2:	1808      	adds	r0, r1, r0
100019e4:	615f      	str	r7, [r3, #20]
100019e6:	619e      	str	r6, [r3, #24]
100019e8:	684b      	ldr	r3, [r1, #4]
100019ea:	421a      	tst	r2, r3
100019ec:	d1fc      	bne.n	100019e8 <tft_begin+0x848>
100019ee:	2386      	movs	r3, #134	; 0x86
100019f0:	7003      	strb	r3, [r0, #0]
100019f2:	6868      	ldr	r0, [r5, #4]
100019f4:	2201      	movs	r2, #1
100019f6:	0003      	movs	r3, r0
100019f8:	3310      	adds	r3, #16
100019fa:	409a      	lsls	r2, r3
100019fc:	6829      	ldr	r1, [r5, #0]
100019fe:	7823      	ldrb	r3, [r4, #0]
10001a00:	2b00      	cmp	r3, #0
10001a02:	d1fc      	bne.n	100019fe <tft_begin+0x85e>
10001a04:	3301      	adds	r3, #1
10001a06:	7023      	strb	r3, [r4, #0]
10001a08:	2680      	movs	r6, #128	; 0x80
10001a0a:	23d0      	movs	r3, #208	; 0xd0
10001a0c:	2780      	movs	r7, #128	; 0x80
10001a0e:	3004      	adds	r0, #4
10001a10:	061b      	lsls	r3, r3, #24
10001a12:	02f6      	lsls	r6, r6, #11
10001a14:	027f      	lsls	r7, r7, #9
10001a16:	0080      	lsls	r0, r0, #2
10001a18:	615e      	str	r6, [r3, #20]
10001a1a:	1808      	adds	r0, r1, r0
10001a1c:	619f      	str	r7, [r3, #24]
10001a1e:	619e      	str	r6, [r3, #24]
10001a20:	684b      	ldr	r3, [r1, #4]
10001a22:	421a      	tst	r2, r3
10001a24:	d1fc      	bne.n	10001a20 <tft_begin+0x880>
10001a26:	2336      	movs	r3, #54	; 0x36
10001a28:	7003      	strb	r3, [r0, #0]
10001a2a:	6868      	ldr	r0, [r5, #4]
10001a2c:	2201      	movs	r2, #1
10001a2e:	0003      	movs	r3, r0
10001a30:	3310      	adds	r3, #16
10001a32:	409a      	lsls	r2, r3
10001a34:	6829      	ldr	r1, [r5, #0]
10001a36:	7823      	ldrb	r3, [r4, #0]
10001a38:	2b00      	cmp	r3, #0
10001a3a:	d1fc      	bne.n	10001a36 <tft_begin+0x896>
10001a3c:	3301      	adds	r3, #1
10001a3e:	7023      	strb	r3, [r4, #0]
10001a40:	2680      	movs	r6, #128	; 0x80
10001a42:	23d0      	movs	r3, #208	; 0xd0
10001a44:	2780      	movs	r7, #128	; 0x80
10001a46:	3004      	adds	r0, #4
10001a48:	061b      	lsls	r3, r3, #24
10001a4a:	02f6      	lsls	r6, r6, #11
10001a4c:	027f      	lsls	r7, r7, #9
10001a4e:	0080      	lsls	r0, r0, #2
10001a50:	615e      	str	r6, [r3, #20]
10001a52:	1808      	adds	r0, r1, r0
10001a54:	615f      	str	r7, [r3, #20]
10001a56:	619e      	str	r6, [r3, #24]
10001a58:	684b      	ldr	r3, [r1, #4]
10001a5a:	421a      	tst	r2, r3
10001a5c:	d1fc      	bne.n	10001a58 <tft_begin+0x8b8>
10001a5e:	2348      	movs	r3, #72	; 0x48
10001a60:	7003      	strb	r3, [r0, #0]
10001a62:	6868      	ldr	r0, [r5, #4]
10001a64:	2201      	movs	r2, #1
10001a66:	0003      	movs	r3, r0
10001a68:	3310      	adds	r3, #16
10001a6a:	409a      	lsls	r2, r3
10001a6c:	6829      	ldr	r1, [r5, #0]
10001a6e:	7823      	ldrb	r3, [r4, #0]
10001a70:	2b00      	cmp	r3, #0
10001a72:	d1fc      	bne.n	10001a6e <tft_begin+0x8ce>
10001a74:	3301      	adds	r3, #1
10001a76:	7023      	strb	r3, [r4, #0]
10001a78:	2680      	movs	r6, #128	; 0x80
10001a7a:	23d0      	movs	r3, #208	; 0xd0
10001a7c:	2780      	movs	r7, #128	; 0x80
10001a7e:	3004      	adds	r0, #4
10001a80:	061b      	lsls	r3, r3, #24
10001a82:	02f6      	lsls	r6, r6, #11
10001a84:	027f      	lsls	r7, r7, #9
10001a86:	0080      	lsls	r0, r0, #2
10001a88:	615e      	str	r6, [r3, #20]
10001a8a:	1808      	adds	r0, r1, r0
10001a8c:	619f      	str	r7, [r3, #24]
10001a8e:	619e      	str	r6, [r3, #24]
10001a90:	684b      	ldr	r3, [r1, #4]
10001a92:	421a      	tst	r2, r3
10001a94:	d1fc      	bne.n	10001a90 <tft_begin+0x8f0>
10001a96:	233a      	movs	r3, #58	; 0x3a
10001a98:	7003      	strb	r3, [r0, #0]
10001a9a:	6868      	ldr	r0, [r5, #4]
10001a9c:	2201      	movs	r2, #1
10001a9e:	0003      	movs	r3, r0
10001aa0:	3310      	adds	r3, #16
10001aa2:	409a      	lsls	r2, r3
10001aa4:	6829      	ldr	r1, [r5, #0]
10001aa6:	7823      	ldrb	r3, [r4, #0]
10001aa8:	2b00      	cmp	r3, #0
10001aaa:	d1fc      	bne.n	10001aa6 <tft_begin+0x906>
10001aac:	3301      	adds	r3, #1
10001aae:	7023      	strb	r3, [r4, #0]
10001ab0:	2680      	movs	r6, #128	; 0x80
10001ab2:	23d0      	movs	r3, #208	; 0xd0
10001ab4:	2780      	movs	r7, #128	; 0x80
10001ab6:	3004      	adds	r0, #4
10001ab8:	061b      	lsls	r3, r3, #24
10001aba:	02f6      	lsls	r6, r6, #11
10001abc:	027f      	lsls	r7, r7, #9
10001abe:	0080      	lsls	r0, r0, #2
10001ac0:	615e      	str	r6, [r3, #20]
10001ac2:	1808      	adds	r0, r1, r0
10001ac4:	615f      	str	r7, [r3, #20]
10001ac6:	619e      	str	r6, [r3, #24]
10001ac8:	684b      	ldr	r3, [r1, #4]
10001aca:	421a      	tst	r2, r3
10001acc:	d1fc      	bne.n	10001ac8 <tft_begin+0x928>
10001ace:	2355      	movs	r3, #85	; 0x55
10001ad0:	7003      	strb	r3, [r0, #0]
10001ad2:	6868      	ldr	r0, [r5, #4]
10001ad4:	2201      	movs	r2, #1
10001ad6:	0003      	movs	r3, r0
10001ad8:	3310      	adds	r3, #16
10001ada:	409a      	lsls	r2, r3
10001adc:	6829      	ldr	r1, [r5, #0]
10001ade:	7823      	ldrb	r3, [r4, #0]
10001ae0:	2b00      	cmp	r3, #0
10001ae2:	d1fc      	bne.n	10001ade <tft_begin+0x93e>
10001ae4:	3301      	adds	r3, #1
10001ae6:	7023      	strb	r3, [r4, #0]
10001ae8:	2680      	movs	r6, #128	; 0x80
10001aea:	23d0      	movs	r3, #208	; 0xd0
10001aec:	2780      	movs	r7, #128	; 0x80
10001aee:	3004      	adds	r0, #4
10001af0:	061b      	lsls	r3, r3, #24
10001af2:	02f6      	lsls	r6, r6, #11
10001af4:	027f      	lsls	r7, r7, #9
10001af6:	0080      	lsls	r0, r0, #2
10001af8:	615e      	str	r6, [r3, #20]
10001afa:	1808      	adds	r0, r1, r0
10001afc:	619f      	str	r7, [r3, #24]
10001afe:	619e      	str	r6, [r3, #24]
10001b00:	684b      	ldr	r3, [r1, #4]
10001b02:	421a      	tst	r2, r3
10001b04:	d1fc      	bne.n	10001b00 <tft_begin+0x960>
10001b06:	23b1      	movs	r3, #177	; 0xb1
10001b08:	7003      	strb	r3, [r0, #0]
10001b0a:	6868      	ldr	r0, [r5, #4]
10001b0c:	2201      	movs	r2, #1
10001b0e:	0003      	movs	r3, r0
10001b10:	3310      	adds	r3, #16
10001b12:	409a      	lsls	r2, r3
10001b14:	6829      	ldr	r1, [r5, #0]
10001b16:	7823      	ldrb	r3, [r4, #0]
10001b18:	2b00      	cmp	r3, #0
10001b1a:	d1fc      	bne.n	10001b16 <tft_begin+0x976>
10001b1c:	3301      	adds	r3, #1
10001b1e:	7023      	strb	r3, [r4, #0]
10001b20:	2680      	movs	r6, #128	; 0x80
10001b22:	23d0      	movs	r3, #208	; 0xd0
10001b24:	2780      	movs	r7, #128	; 0x80
10001b26:	061b      	lsls	r3, r3, #24
10001b28:	02f6      	lsls	r6, r6, #11
10001b2a:	027f      	lsls	r7, r7, #9
10001b2c:	3004      	adds	r0, #4
10001b2e:	615e      	str	r6, [r3, #20]
10001b30:	615f      	str	r7, [r3, #20]
10001b32:	619e      	str	r6, [r3, #24]
10001b34:	0086      	lsls	r6, r0, #2
10001b36:	198e      	adds	r6, r1, r6
10001b38:	0010      	movs	r0, r2
10001b3a:	684b      	ldr	r3, [r1, #4]
10001b3c:	4018      	ands	r0, r3
10001b3e:	421a      	tst	r2, r3
10001b40:	d1fa      	bne.n	10001b38 <tft_begin+0x998>
10001b42:	7030      	strb	r0, [r6, #0]
10001b44:	6868      	ldr	r0, [r5, #4]
10001b46:	2201      	movs	r2, #1
10001b48:	0003      	movs	r3, r0
10001b4a:	3310      	adds	r3, #16
10001b4c:	409a      	lsls	r2, r3
10001b4e:	6829      	ldr	r1, [r5, #0]
10001b50:	7823      	ldrb	r3, [r4, #0]
10001b52:	2b00      	cmp	r3, #0
10001b54:	d1fc      	bne.n	10001b50 <tft_begin+0x9b0>
10001b56:	3301      	adds	r3, #1
10001b58:	7023      	strb	r3, [r4, #0]
10001b5a:	2680      	movs	r6, #128	; 0x80
10001b5c:	23d0      	movs	r3, #208	; 0xd0
10001b5e:	2780      	movs	r7, #128	; 0x80
10001b60:	3004      	adds	r0, #4
10001b62:	061b      	lsls	r3, r3, #24
10001b64:	02f6      	lsls	r6, r6, #11
10001b66:	027f      	lsls	r7, r7, #9
10001b68:	0080      	lsls	r0, r0, #2
10001b6a:	615e      	str	r6, [r3, #20]
10001b6c:	1808      	adds	r0, r1, r0
10001b6e:	615f      	str	r7, [r3, #20]
10001b70:	619e      	str	r6, [r3, #24]
10001b72:	684b      	ldr	r3, [r1, #4]
10001b74:	421a      	tst	r2, r3
10001b76:	d1fc      	bne.n	10001b72 <tft_begin+0x9d2>
10001b78:	2318      	movs	r3, #24
10001b7a:	7003      	strb	r3, [r0, #0]
10001b7c:	6868      	ldr	r0, [r5, #4]
10001b7e:	2201      	movs	r2, #1
10001b80:	0003      	movs	r3, r0
10001b82:	3310      	adds	r3, #16
10001b84:	409a      	lsls	r2, r3
10001b86:	6829      	ldr	r1, [r5, #0]
10001b88:	7823      	ldrb	r3, [r4, #0]
10001b8a:	2b00      	cmp	r3, #0
10001b8c:	d1fc      	bne.n	10001b88 <tft_begin+0x9e8>
10001b8e:	3301      	adds	r3, #1
10001b90:	7023      	strb	r3, [r4, #0]
10001b92:	2680      	movs	r6, #128	; 0x80
10001b94:	23d0      	movs	r3, #208	; 0xd0
10001b96:	2780      	movs	r7, #128	; 0x80
10001b98:	3004      	adds	r0, #4
10001b9a:	061b      	lsls	r3, r3, #24
10001b9c:	02f6      	lsls	r6, r6, #11
10001b9e:	027f      	lsls	r7, r7, #9
10001ba0:	0080      	lsls	r0, r0, #2
10001ba2:	615e      	str	r6, [r3, #20]
10001ba4:	1808      	adds	r0, r1, r0
10001ba6:	619f      	str	r7, [r3, #24]
10001ba8:	619e      	str	r6, [r3, #24]
10001baa:	684b      	ldr	r3, [r1, #4]
10001bac:	421a      	tst	r2, r3
10001bae:	d1fc      	bne.n	10001baa <tft_begin+0xa0a>
10001bb0:	23b6      	movs	r3, #182	; 0xb6
10001bb2:	7003      	strb	r3, [r0, #0]
10001bb4:	6868      	ldr	r0, [r5, #4]
10001bb6:	2201      	movs	r2, #1
10001bb8:	0003      	movs	r3, r0
10001bba:	3310      	adds	r3, #16
10001bbc:	409a      	lsls	r2, r3
10001bbe:	6829      	ldr	r1, [r5, #0]
10001bc0:	7823      	ldrb	r3, [r4, #0]
10001bc2:	2b00      	cmp	r3, #0
10001bc4:	d1fc      	bne.n	10001bc0 <tft_begin+0xa20>
10001bc6:	3301      	adds	r3, #1
10001bc8:	7023      	strb	r3, [r4, #0]
10001bca:	2680      	movs	r6, #128	; 0x80
10001bcc:	23d0      	movs	r3, #208	; 0xd0
10001bce:	2780      	movs	r7, #128	; 0x80
10001bd0:	3004      	adds	r0, #4
10001bd2:	061b      	lsls	r3, r3, #24
10001bd4:	02f6      	lsls	r6, r6, #11
10001bd6:	027f      	lsls	r7, r7, #9
10001bd8:	0080      	lsls	r0, r0, #2
10001bda:	615e      	str	r6, [r3, #20]
10001bdc:	1808      	adds	r0, r1, r0
10001bde:	615f      	str	r7, [r3, #20]
10001be0:	619e      	str	r6, [r3, #24]
10001be2:	684b      	ldr	r3, [r1, #4]
10001be4:	421a      	tst	r2, r3
10001be6:	d1fc      	bne.n	10001be2 <tft_begin+0xa42>
10001be8:	2308      	movs	r3, #8
10001bea:	7003      	strb	r3, [r0, #0]
10001bec:	6868      	ldr	r0, [r5, #4]
10001bee:	2201      	movs	r2, #1
10001bf0:	0003      	movs	r3, r0
10001bf2:	3310      	adds	r3, #16
10001bf4:	409a      	lsls	r2, r3
10001bf6:	6829      	ldr	r1, [r5, #0]
10001bf8:	7823      	ldrb	r3, [r4, #0]
10001bfa:	2b00      	cmp	r3, #0
10001bfc:	d1fc      	bne.n	10001bf8 <tft_begin+0xa58>
10001bfe:	3301      	adds	r3, #1
10001c00:	7023      	strb	r3, [r4, #0]
10001c02:	2680      	movs	r6, #128	; 0x80
10001c04:	23d0      	movs	r3, #208	; 0xd0
10001c06:	2780      	movs	r7, #128	; 0x80
10001c08:	3004      	adds	r0, #4
10001c0a:	061b      	lsls	r3, r3, #24
10001c0c:	02f6      	lsls	r6, r6, #11
10001c0e:	027f      	lsls	r7, r7, #9
10001c10:	0080      	lsls	r0, r0, #2
10001c12:	615e      	str	r6, [r3, #20]
10001c14:	1808      	adds	r0, r1, r0
10001c16:	615f      	str	r7, [r3, #20]
10001c18:	619e      	str	r6, [r3, #24]
10001c1a:	684b      	ldr	r3, [r1, #4]
10001c1c:	421a      	tst	r2, r3
10001c1e:	d1fc      	bne.n	10001c1a <tft_begin+0xa7a>
10001c20:	2382      	movs	r3, #130	; 0x82
10001c22:	7003      	strb	r3, [r0, #0]
10001c24:	6868      	ldr	r0, [r5, #4]
10001c26:	2201      	movs	r2, #1
10001c28:	0003      	movs	r3, r0
10001c2a:	3310      	adds	r3, #16
10001c2c:	409a      	lsls	r2, r3
10001c2e:	6829      	ldr	r1, [r5, #0]
10001c30:	7823      	ldrb	r3, [r4, #0]
10001c32:	2b00      	cmp	r3, #0
10001c34:	d1fc      	bne.n	10001c30 <tft_begin+0xa90>
10001c36:	3301      	adds	r3, #1
10001c38:	7023      	strb	r3, [r4, #0]
10001c3a:	2680      	movs	r6, #128	; 0x80
10001c3c:	23d0      	movs	r3, #208	; 0xd0
10001c3e:	2780      	movs	r7, #128	; 0x80
10001c40:	3004      	adds	r0, #4
10001c42:	061b      	lsls	r3, r3, #24
10001c44:	02f6      	lsls	r6, r6, #11
10001c46:	027f      	lsls	r7, r7, #9
10001c48:	0080      	lsls	r0, r0, #2
10001c4a:	615e      	str	r6, [r3, #20]
10001c4c:	1808      	adds	r0, r1, r0
10001c4e:	615f      	str	r7, [r3, #20]
10001c50:	619e      	str	r6, [r3, #24]
10001c52:	684b      	ldr	r3, [r1, #4]
10001c54:	421a      	tst	r2, r3
10001c56:	d1fc      	bne.n	10001c52 <tft_begin+0xab2>
10001c58:	2327      	movs	r3, #39	; 0x27
10001c5a:	7003      	strb	r3, [r0, #0]
10001c5c:	6868      	ldr	r0, [r5, #4]
10001c5e:	2201      	movs	r2, #1
10001c60:	0003      	movs	r3, r0
10001c62:	3310      	adds	r3, #16
10001c64:	409a      	lsls	r2, r3
10001c66:	6829      	ldr	r1, [r5, #0]
10001c68:	7823      	ldrb	r3, [r4, #0]
10001c6a:	2b00      	cmp	r3, #0
10001c6c:	d1fc      	bne.n	10001c68 <tft_begin+0xac8>
10001c6e:	3301      	adds	r3, #1
10001c70:	7023      	strb	r3, [r4, #0]
10001c72:	2680      	movs	r6, #128	; 0x80
10001c74:	23d0      	movs	r3, #208	; 0xd0
10001c76:	2780      	movs	r7, #128	; 0x80
10001c78:	3004      	adds	r0, #4
10001c7a:	061b      	lsls	r3, r3, #24
10001c7c:	02f6      	lsls	r6, r6, #11
10001c7e:	027f      	lsls	r7, r7, #9
10001c80:	0080      	lsls	r0, r0, #2
10001c82:	615e      	str	r6, [r3, #20]
10001c84:	1808      	adds	r0, r1, r0
10001c86:	619f      	str	r7, [r3, #24]
10001c88:	619e      	str	r6, [r3, #24]
10001c8a:	684b      	ldr	r3, [r1, #4]
10001c8c:	421a      	tst	r2, r3
10001c8e:	d1fc      	bne.n	10001c8a <tft_begin+0xaea>
10001c90:	23f2      	movs	r3, #242	; 0xf2
10001c92:	7003      	strb	r3, [r0, #0]
10001c94:	6868      	ldr	r0, [r5, #4]
10001c96:	2201      	movs	r2, #1
10001c98:	0003      	movs	r3, r0
10001c9a:	3310      	adds	r3, #16
10001c9c:	409a      	lsls	r2, r3
10001c9e:	6829      	ldr	r1, [r5, #0]
10001ca0:	7823      	ldrb	r3, [r4, #0]
10001ca2:	2b00      	cmp	r3, #0
10001ca4:	d1fc      	bne.n	10001ca0 <tft_begin+0xb00>
10001ca6:	3301      	adds	r3, #1
10001ca8:	7023      	strb	r3, [r4, #0]
10001caa:	2680      	movs	r6, #128	; 0x80
10001cac:	23d0      	movs	r3, #208	; 0xd0
10001cae:	2780      	movs	r7, #128	; 0x80
10001cb0:	061b      	lsls	r3, r3, #24
10001cb2:	02f6      	lsls	r6, r6, #11
10001cb4:	027f      	lsls	r7, r7, #9
10001cb6:	3004      	adds	r0, #4
10001cb8:	615e      	str	r6, [r3, #20]
10001cba:	615f      	str	r7, [r3, #20]
10001cbc:	619e      	str	r6, [r3, #24]
10001cbe:	0086      	lsls	r6, r0, #2
10001cc0:	198e      	adds	r6, r1, r6
10001cc2:	0010      	movs	r0, r2
10001cc4:	684b      	ldr	r3, [r1, #4]
10001cc6:	4018      	ands	r0, r3
10001cc8:	421a      	tst	r2, r3
10001cca:	d1fa      	bne.n	10001cc2 <tft_begin+0xb22>
10001ccc:	7030      	strb	r0, [r6, #0]
10001cce:	6868      	ldr	r0, [r5, #4]
10001cd0:	2201      	movs	r2, #1
10001cd2:	0003      	movs	r3, r0
10001cd4:	3310      	adds	r3, #16
10001cd6:	409a      	lsls	r2, r3
10001cd8:	6829      	ldr	r1, [r5, #0]
10001cda:	7823      	ldrb	r3, [r4, #0]
10001cdc:	2b00      	cmp	r3, #0
10001cde:	d1fc      	bne.n	10001cda <tft_begin+0xb3a>
10001ce0:	3301      	adds	r3, #1
10001ce2:	7023      	strb	r3, [r4, #0]
10001ce4:	2680      	movs	r6, #128	; 0x80
10001ce6:	23d0      	movs	r3, #208	; 0xd0
10001ce8:	2780      	movs	r7, #128	; 0x80
10001cea:	3004      	adds	r0, #4
10001cec:	061b      	lsls	r3, r3, #24
10001cee:	02f6      	lsls	r6, r6, #11
10001cf0:	027f      	lsls	r7, r7, #9
10001cf2:	0080      	lsls	r0, r0, #2
10001cf4:	615e      	str	r6, [r3, #20]
10001cf6:	1808      	adds	r0, r1, r0
10001cf8:	619f      	str	r7, [r3, #24]
10001cfa:	619e      	str	r6, [r3, #24]
10001cfc:	684b      	ldr	r3, [r1, #4]
10001cfe:	421a      	tst	r2, r3
10001d00:	d1fc      	bne.n	10001cfc <tft_begin+0xb5c>
10001d02:	2326      	movs	r3, #38	; 0x26
10001d04:	7003      	strb	r3, [r0, #0]
10001d06:	6868      	ldr	r0, [r5, #4]
10001d08:	2201      	movs	r2, #1
10001d0a:	0003      	movs	r3, r0
10001d0c:	3310      	adds	r3, #16
10001d0e:	409a      	lsls	r2, r3
10001d10:	6829      	ldr	r1, [r5, #0]
10001d12:	7823      	ldrb	r3, [r4, #0]
10001d14:	2b00      	cmp	r3, #0
10001d16:	d1fc      	bne.n	10001d12 <tft_begin+0xb72>
10001d18:	3301      	adds	r3, #1
10001d1a:	7023      	strb	r3, [r4, #0]
10001d1c:	2680      	movs	r6, #128	; 0x80
10001d1e:	23d0      	movs	r3, #208	; 0xd0
10001d20:	2780      	movs	r7, #128	; 0x80
10001d22:	3004      	adds	r0, #4
10001d24:	061b      	lsls	r3, r3, #24
10001d26:	02f6      	lsls	r6, r6, #11
10001d28:	027f      	lsls	r7, r7, #9
10001d2a:	0080      	lsls	r0, r0, #2
10001d2c:	615e      	str	r6, [r3, #20]
10001d2e:	1808      	adds	r0, r1, r0
10001d30:	615f      	str	r7, [r3, #20]
10001d32:	619e      	str	r6, [r3, #24]
10001d34:	684b      	ldr	r3, [r1, #4]
10001d36:	421a      	tst	r2, r3
10001d38:	d1fc      	bne.n	10001d34 <tft_begin+0xb94>
10001d3a:	2201      	movs	r2, #1
10001d3c:	7002      	strb	r2, [r0, #0]
10001d3e:	6868      	ldr	r0, [r5, #4]
10001d40:	6829      	ldr	r1, [r5, #0]
10001d42:	0003      	movs	r3, r0
10001d44:	3310      	adds	r3, #16
10001d46:	409a      	lsls	r2, r3
10001d48:	7823      	ldrb	r3, [r4, #0]
10001d4a:	2b00      	cmp	r3, #0
10001d4c:	d1fc      	bne.n	10001d48 <tft_begin+0xba8>
10001d4e:	3301      	adds	r3, #1
10001d50:	7023      	strb	r3, [r4, #0]
10001d52:	2680      	movs	r6, #128	; 0x80
10001d54:	23d0      	movs	r3, #208	; 0xd0
10001d56:	2780      	movs	r7, #128	; 0x80
10001d58:	3004      	adds	r0, #4
10001d5a:	061b      	lsls	r3, r3, #24
10001d5c:	02f6      	lsls	r6, r6, #11
10001d5e:	027f      	lsls	r7, r7, #9
10001d60:	0080      	lsls	r0, r0, #2
10001d62:	615e      	str	r6, [r3, #20]
10001d64:	1808      	adds	r0, r1, r0
10001d66:	619f      	str	r7, [r3, #24]
10001d68:	619e      	str	r6, [r3, #24]
10001d6a:	684b      	ldr	r3, [r1, #4]
10001d6c:	421a      	tst	r2, r3
10001d6e:	d1fc      	bne.n	10001d6a <tft_begin+0xbca>
10001d70:	23e0      	movs	r3, #224	; 0xe0
10001d72:	7003      	strb	r3, [r0, #0]
10001d74:	6868      	ldr	r0, [r5, #4]
10001d76:	2201      	movs	r2, #1
10001d78:	0003      	movs	r3, r0
10001d7a:	3310      	adds	r3, #16
10001d7c:	409a      	lsls	r2, r3
10001d7e:	6829      	ldr	r1, [r5, #0]
10001d80:	7823      	ldrb	r3, [r4, #0]
10001d82:	2b00      	cmp	r3, #0
10001d84:	d1fc      	bne.n	10001d80 <tft_begin+0xbe0>
10001d86:	3301      	adds	r3, #1
10001d88:	7023      	strb	r3, [r4, #0]
10001d8a:	2680      	movs	r6, #128	; 0x80
10001d8c:	23d0      	movs	r3, #208	; 0xd0
10001d8e:	2780      	movs	r7, #128	; 0x80
10001d90:	3004      	adds	r0, #4
10001d92:	061b      	lsls	r3, r3, #24
10001d94:	02f6      	lsls	r6, r6, #11
10001d96:	027f      	lsls	r7, r7, #9
10001d98:	0080      	lsls	r0, r0, #2
10001d9a:	615e      	str	r6, [r3, #20]
10001d9c:	1808      	adds	r0, r1, r0
10001d9e:	615f      	str	r7, [r3, #20]
10001da0:	619e      	str	r6, [r3, #24]
10001da2:	684b      	ldr	r3, [r1, #4]
10001da4:	421a      	tst	r2, r3
10001da6:	d1fc      	bne.n	10001da2 <tft_begin+0xc02>
10001da8:	230f      	movs	r3, #15
10001daa:	7003      	strb	r3, [r0, #0]
10001dac:	6868      	ldr	r0, [r5, #4]
10001dae:	2201      	movs	r2, #1
10001db0:	0003      	movs	r3, r0
10001db2:	3310      	adds	r3, #16
10001db4:	409a      	lsls	r2, r3
10001db6:	6829      	ldr	r1, [r5, #0]
10001db8:	7823      	ldrb	r3, [r4, #0]
10001dba:	2b00      	cmp	r3, #0
10001dbc:	d1fc      	bne.n	10001db8 <tft_begin+0xc18>
10001dbe:	3301      	adds	r3, #1
10001dc0:	7023      	strb	r3, [r4, #0]
10001dc2:	2680      	movs	r6, #128	; 0x80
10001dc4:	23d0      	movs	r3, #208	; 0xd0
10001dc6:	2780      	movs	r7, #128	; 0x80
10001dc8:	3004      	adds	r0, #4
10001dca:	061b      	lsls	r3, r3, #24
10001dcc:	02f6      	lsls	r6, r6, #11
10001dce:	027f      	lsls	r7, r7, #9
10001dd0:	0080      	lsls	r0, r0, #2
10001dd2:	615e      	str	r6, [r3, #20]
10001dd4:	1808      	adds	r0, r1, r0
10001dd6:	615f      	str	r7, [r3, #20]
10001dd8:	619e      	str	r6, [r3, #24]
10001dda:	684b      	ldr	r3, [r1, #4]
10001ddc:	421a      	tst	r2, r3
10001dde:	d1fc      	bne.n	10001dda <tft_begin+0xc3a>
10001de0:	2331      	movs	r3, #49	; 0x31
10001de2:	7003      	strb	r3, [r0, #0]
10001de4:	6868      	ldr	r0, [r5, #4]
10001de6:	2201      	movs	r2, #1
10001de8:	0003      	movs	r3, r0
10001dea:	3310      	adds	r3, #16
10001dec:	409a      	lsls	r2, r3
10001dee:	6829      	ldr	r1, [r5, #0]
10001df0:	7823      	ldrb	r3, [r4, #0]
10001df2:	2b00      	cmp	r3, #0
10001df4:	d1fc      	bne.n	10001df0 <tft_begin+0xc50>
10001df6:	3301      	adds	r3, #1
10001df8:	7023      	strb	r3, [r4, #0]
10001dfa:	2680      	movs	r6, #128	; 0x80
10001dfc:	23d0      	movs	r3, #208	; 0xd0
10001dfe:	2780      	movs	r7, #128	; 0x80
10001e00:	3004      	adds	r0, #4
10001e02:	061b      	lsls	r3, r3, #24
10001e04:	02f6      	lsls	r6, r6, #11
10001e06:	027f      	lsls	r7, r7, #9
10001e08:	0080      	lsls	r0, r0, #2
10001e0a:	615e      	str	r6, [r3, #20]
10001e0c:	1808      	adds	r0, r1, r0
10001e0e:	615f      	str	r7, [r3, #20]
10001e10:	619e      	str	r6, [r3, #24]
10001e12:	684b      	ldr	r3, [r1, #4]
10001e14:	421a      	tst	r2, r3
10001e16:	d1fc      	bne.n	10001e12 <tft_begin+0xc72>
10001e18:	232b      	movs	r3, #43	; 0x2b
10001e1a:	7003      	strb	r3, [r0, #0]
10001e1c:	6868      	ldr	r0, [r5, #4]
10001e1e:	2201      	movs	r2, #1
10001e20:	0003      	movs	r3, r0
10001e22:	3310      	adds	r3, #16
10001e24:	409a      	lsls	r2, r3
10001e26:	6829      	ldr	r1, [r5, #0]
10001e28:	7823      	ldrb	r3, [r4, #0]
10001e2a:	2b00      	cmp	r3, #0
10001e2c:	d1fc      	bne.n	10001e28 <tft_begin+0xc88>
10001e2e:	3301      	adds	r3, #1
10001e30:	7023      	strb	r3, [r4, #0]
10001e32:	2680      	movs	r6, #128	; 0x80
10001e34:	23d0      	movs	r3, #208	; 0xd0
10001e36:	2780      	movs	r7, #128	; 0x80
10001e38:	3004      	adds	r0, #4
10001e3a:	061b      	lsls	r3, r3, #24
10001e3c:	02f6      	lsls	r6, r6, #11
10001e3e:	027f      	lsls	r7, r7, #9
10001e40:	0080      	lsls	r0, r0, #2
10001e42:	615e      	str	r6, [r3, #20]
10001e44:	1808      	adds	r0, r1, r0
10001e46:	615f      	str	r7, [r3, #20]
10001e48:	619e      	str	r6, [r3, #24]
10001e4a:	684b      	ldr	r3, [r1, #4]
10001e4c:	421a      	tst	r2, r3
10001e4e:	d1fc      	bne.n	10001e4a <tft_begin+0xcaa>
10001e50:	230c      	movs	r3, #12
10001e52:	7003      	strb	r3, [r0, #0]
10001e54:	6868      	ldr	r0, [r5, #4]
10001e56:	2201      	movs	r2, #1
10001e58:	0003      	movs	r3, r0
10001e5a:	3310      	adds	r3, #16
10001e5c:	409a      	lsls	r2, r3
10001e5e:	6829      	ldr	r1, [r5, #0]
10001e60:	7823      	ldrb	r3, [r4, #0]
10001e62:	2b00      	cmp	r3, #0
10001e64:	d1fc      	bne.n	10001e60 <tft_begin+0xcc0>
10001e66:	3301      	adds	r3, #1
10001e68:	7023      	strb	r3, [r4, #0]
10001e6a:	2680      	movs	r6, #128	; 0x80
10001e6c:	23d0      	movs	r3, #208	; 0xd0
10001e6e:	2780      	movs	r7, #128	; 0x80
10001e70:	3004      	adds	r0, #4
10001e72:	061b      	lsls	r3, r3, #24
10001e74:	02f6      	lsls	r6, r6, #11
10001e76:	027f      	lsls	r7, r7, #9
10001e78:	0080      	lsls	r0, r0, #2
10001e7a:	615e      	str	r6, [r3, #20]
10001e7c:	1808      	adds	r0, r1, r0
10001e7e:	615f      	str	r7, [r3, #20]
10001e80:	619e      	str	r6, [r3, #24]
10001e82:	684b      	ldr	r3, [r1, #4]
10001e84:	421a      	tst	r2, r3
10001e86:	d1fc      	bne.n	10001e82 <tft_begin+0xce2>
10001e88:	230e      	movs	r3, #14
10001e8a:	7003      	strb	r3, [r0, #0]
10001e8c:	6868      	ldr	r0, [r5, #4]
10001e8e:	2201      	movs	r2, #1
10001e90:	0003      	movs	r3, r0
10001e92:	3310      	adds	r3, #16
10001e94:	409a      	lsls	r2, r3
10001e96:	6829      	ldr	r1, [r5, #0]
10001e98:	7823      	ldrb	r3, [r4, #0]
10001e9a:	2b00      	cmp	r3, #0
10001e9c:	d1fc      	bne.n	10001e98 <tft_begin+0xcf8>
10001e9e:	3301      	adds	r3, #1
10001ea0:	7023      	strb	r3, [r4, #0]
10001ea2:	2680      	movs	r6, #128	; 0x80
10001ea4:	23d0      	movs	r3, #208	; 0xd0
10001ea6:	2780      	movs	r7, #128	; 0x80
10001ea8:	3004      	adds	r0, #4
10001eaa:	061b      	lsls	r3, r3, #24
10001eac:	02f6      	lsls	r6, r6, #11
10001eae:	027f      	lsls	r7, r7, #9
10001eb0:	0080      	lsls	r0, r0, #2
10001eb2:	615e      	str	r6, [r3, #20]
10001eb4:	1808      	adds	r0, r1, r0
10001eb6:	615f      	str	r7, [r3, #20]
10001eb8:	619e      	str	r6, [r3, #24]
10001eba:	684b      	ldr	r3, [r1, #4]
10001ebc:	421a      	tst	r2, r3
10001ebe:	d1fc      	bne.n	10001eba <tft_begin+0xd1a>
10001ec0:	2308      	movs	r3, #8
10001ec2:	7003      	strb	r3, [r0, #0]
10001ec4:	6868      	ldr	r0, [r5, #4]
10001ec6:	2201      	movs	r2, #1
10001ec8:	0003      	movs	r3, r0
10001eca:	3310      	adds	r3, #16
10001ecc:	409a      	lsls	r2, r3
10001ece:	6829      	ldr	r1, [r5, #0]
10001ed0:	7823      	ldrb	r3, [r4, #0]
10001ed2:	2b00      	cmp	r3, #0
10001ed4:	d1fc      	bne.n	10001ed0 <tft_begin+0xd30>
10001ed6:	3301      	adds	r3, #1
10001ed8:	7023      	strb	r3, [r4, #0]
10001eda:	2680      	movs	r6, #128	; 0x80
10001edc:	23d0      	movs	r3, #208	; 0xd0
10001ede:	2780      	movs	r7, #128	; 0x80
10001ee0:	3004      	adds	r0, #4
10001ee2:	061b      	lsls	r3, r3, #24
10001ee4:	02f6      	lsls	r6, r6, #11
10001ee6:	027f      	lsls	r7, r7, #9
10001ee8:	0080      	lsls	r0, r0, #2
10001eea:	615e      	str	r6, [r3, #20]
10001eec:	1808      	adds	r0, r1, r0
10001eee:	615f      	str	r7, [r3, #20]
10001ef0:	619e      	str	r6, [r3, #24]
10001ef2:	684b      	ldr	r3, [r1, #4]
10001ef4:	421a      	tst	r2, r3
10001ef6:	d1fc      	bne.n	10001ef2 <tft_begin+0xd52>
10001ef8:	234e      	movs	r3, #78	; 0x4e
10001efa:	7003      	strb	r3, [r0, #0]
10001efc:	6868      	ldr	r0, [r5, #4]
10001efe:	2201      	movs	r2, #1
10001f00:	0003      	movs	r3, r0
10001f02:	3310      	adds	r3, #16
10001f04:	409a      	lsls	r2, r3
10001f06:	6829      	ldr	r1, [r5, #0]
10001f08:	7823      	ldrb	r3, [r4, #0]
10001f0a:	2b00      	cmp	r3, #0
10001f0c:	d1fc      	bne.n	10001f08 <tft_begin+0xd68>
10001f0e:	3301      	adds	r3, #1
10001f10:	7023      	strb	r3, [r4, #0]
10001f12:	2680      	movs	r6, #128	; 0x80
10001f14:	23d0      	movs	r3, #208	; 0xd0
10001f16:	2780      	movs	r7, #128	; 0x80
10001f18:	3004      	adds	r0, #4
10001f1a:	061b      	lsls	r3, r3, #24
10001f1c:	02f6      	lsls	r6, r6, #11
10001f1e:	027f      	lsls	r7, r7, #9
10001f20:	0080      	lsls	r0, r0, #2
10001f22:	615e      	str	r6, [r3, #20]
10001f24:	1808      	adds	r0, r1, r0
10001f26:	615f      	str	r7, [r3, #20]
10001f28:	619e      	str	r6, [r3, #24]
10001f2a:	684b      	ldr	r3, [r1, #4]
10001f2c:	421a      	tst	r2, r3
10001f2e:	d1fc      	bne.n	10001f2a <tft_begin+0xd8a>
10001f30:	23f1      	movs	r3, #241	; 0xf1
10001f32:	7003      	strb	r3, [r0, #0]
10001f34:	6868      	ldr	r0, [r5, #4]
10001f36:	2201      	movs	r2, #1
10001f38:	0003      	movs	r3, r0
10001f3a:	3310      	adds	r3, #16
10001f3c:	409a      	lsls	r2, r3
10001f3e:	6829      	ldr	r1, [r5, #0]
10001f40:	7823      	ldrb	r3, [r4, #0]
10001f42:	2b00      	cmp	r3, #0
10001f44:	d1fc      	bne.n	10001f40 <tft_begin+0xda0>
10001f46:	3301      	adds	r3, #1
10001f48:	7023      	strb	r3, [r4, #0]
10001f4a:	2680      	movs	r6, #128	; 0x80
10001f4c:	23d0      	movs	r3, #208	; 0xd0
10001f4e:	2780      	movs	r7, #128	; 0x80
10001f50:	3004      	adds	r0, #4
10001f52:	061b      	lsls	r3, r3, #24
10001f54:	02f6      	lsls	r6, r6, #11
10001f56:	027f      	lsls	r7, r7, #9
10001f58:	0080      	lsls	r0, r0, #2
10001f5a:	615e      	str	r6, [r3, #20]
10001f5c:	1808      	adds	r0, r1, r0
10001f5e:	615f      	str	r7, [r3, #20]
10001f60:	619e      	str	r6, [r3, #24]
10001f62:	684b      	ldr	r3, [r1, #4]
10001f64:	421a      	tst	r2, r3
10001f66:	d1fc      	bne.n	10001f62 <tft_begin+0xdc2>
10001f68:	2337      	movs	r3, #55	; 0x37
10001f6a:	7003      	strb	r3, [r0, #0]
10001f6c:	6868      	ldr	r0, [r5, #4]
10001f6e:	2201      	movs	r2, #1
10001f70:	0003      	movs	r3, r0
10001f72:	3310      	adds	r3, #16
10001f74:	409a      	lsls	r2, r3
10001f76:	6829      	ldr	r1, [r5, #0]
10001f78:	7823      	ldrb	r3, [r4, #0]
10001f7a:	2b00      	cmp	r3, #0
10001f7c:	d1fc      	bne.n	10001f78 <tft_begin+0xdd8>
10001f7e:	3301      	adds	r3, #1
10001f80:	7023      	strb	r3, [r4, #0]
10001f82:	2680      	movs	r6, #128	; 0x80
10001f84:	23d0      	movs	r3, #208	; 0xd0
10001f86:	2780      	movs	r7, #128	; 0x80
10001f88:	3004      	adds	r0, #4
10001f8a:	061b      	lsls	r3, r3, #24
10001f8c:	02f6      	lsls	r6, r6, #11
10001f8e:	027f      	lsls	r7, r7, #9
10001f90:	0080      	lsls	r0, r0, #2
10001f92:	615e      	str	r6, [r3, #20]
10001f94:	1808      	adds	r0, r1, r0
10001f96:	615f      	str	r7, [r3, #20]
10001f98:	619e      	str	r6, [r3, #24]
10001f9a:	684b      	ldr	r3, [r1, #4]
10001f9c:	421a      	tst	r2, r3
10001f9e:	d1fc      	bne.n	10001f9a <tft_begin+0xdfa>
10001fa0:	2307      	movs	r3, #7
10001fa2:	7003      	strb	r3, [r0, #0]
10001fa4:	6868      	ldr	r0, [r5, #4]
10001fa6:	2201      	movs	r2, #1
10001fa8:	0003      	movs	r3, r0
10001faa:	3310      	adds	r3, #16
10001fac:	409a      	lsls	r2, r3
10001fae:	6829      	ldr	r1, [r5, #0]
10001fb0:	7823      	ldrb	r3, [r4, #0]
10001fb2:	2b00      	cmp	r3, #0
10001fb4:	d1fc      	bne.n	10001fb0 <tft_begin+0xe10>
10001fb6:	3301      	adds	r3, #1
10001fb8:	7023      	strb	r3, [r4, #0]
10001fba:	2680      	movs	r6, #128	; 0x80
10001fbc:	23d0      	movs	r3, #208	; 0xd0
10001fbe:	2780      	movs	r7, #128	; 0x80
10001fc0:	3004      	adds	r0, #4
10001fc2:	061b      	lsls	r3, r3, #24
10001fc4:	02f6      	lsls	r6, r6, #11
10001fc6:	027f      	lsls	r7, r7, #9
10001fc8:	0080      	lsls	r0, r0, #2
10001fca:	615e      	str	r6, [r3, #20]
10001fcc:	1808      	adds	r0, r1, r0
10001fce:	615f      	str	r7, [r3, #20]
10001fd0:	619e      	str	r6, [r3, #24]
10001fd2:	684b      	ldr	r3, [r1, #4]
10001fd4:	421a      	tst	r2, r3
10001fd6:	d1fc      	bne.n	10001fd2 <tft_begin+0xe32>
10001fd8:	2310      	movs	r3, #16
10001fda:	7003      	strb	r3, [r0, #0]
10001fdc:	6868      	ldr	r0, [r5, #4]
10001fde:	2201      	movs	r2, #1
10001fe0:	0003      	movs	r3, r0
10001fe2:	3310      	adds	r3, #16
10001fe4:	409a      	lsls	r2, r3
10001fe6:	6829      	ldr	r1, [r5, #0]
10001fe8:	7823      	ldrb	r3, [r4, #0]
10001fea:	2b00      	cmp	r3, #0
10001fec:	d1fc      	bne.n	10001fe8 <tft_begin+0xe48>
10001fee:	3301      	adds	r3, #1
10001ff0:	7023      	strb	r3, [r4, #0]
10001ff2:	2680      	movs	r6, #128	; 0x80
10001ff4:	23d0      	movs	r3, #208	; 0xd0
10001ff6:	2780      	movs	r7, #128	; 0x80
10001ff8:	3004      	adds	r0, #4
10001ffa:	061b      	lsls	r3, r3, #24
10001ffc:	02f6      	lsls	r6, r6, #11
10001ffe:	027f      	lsls	r7, r7, #9
10002000:	0080      	lsls	r0, r0, #2
10002002:	615e      	str	r6, [r3, #20]
10002004:	1808      	adds	r0, r1, r0
10002006:	615f      	str	r7, [r3, #20]
10002008:	619e      	str	r6, [r3, #24]
1000200a:	684b      	ldr	r3, [r1, #4]
1000200c:	421a      	tst	r2, r3
1000200e:	d1fc      	bne.n	1000200a <tft_begin+0xe6a>
10002010:	2303      	movs	r3, #3
10002012:	7003      	strb	r3, [r0, #0]
10002014:	6868      	ldr	r0, [r5, #4]
10002016:	2201      	movs	r2, #1
10002018:	0003      	movs	r3, r0
1000201a:	3310      	adds	r3, #16
1000201c:	409a      	lsls	r2, r3
1000201e:	6829      	ldr	r1, [r5, #0]
10002020:	7823      	ldrb	r3, [r4, #0]
10002022:	2b00      	cmp	r3, #0
10002024:	d1fc      	bne.n	10002020 <tft_begin+0xe80>
10002026:	3301      	adds	r3, #1
10002028:	7023      	strb	r3, [r4, #0]
1000202a:	2680      	movs	r6, #128	; 0x80
1000202c:	23d0      	movs	r3, #208	; 0xd0
1000202e:	2780      	movs	r7, #128	; 0x80
10002030:	3004      	adds	r0, #4
10002032:	061b      	lsls	r3, r3, #24
10002034:	02f6      	lsls	r6, r6, #11
10002036:	027f      	lsls	r7, r7, #9
10002038:	0080      	lsls	r0, r0, #2
1000203a:	615e      	str	r6, [r3, #20]
1000203c:	1808      	adds	r0, r1, r0
1000203e:	615f      	str	r7, [r3, #20]
10002040:	619e      	str	r6, [r3, #24]
10002042:	684b      	ldr	r3, [r1, #4]
10002044:	421a      	tst	r2, r3
10002046:	d1fc      	bne.n	10002042 <tft_begin+0xea2>
10002048:	230e      	movs	r3, #14
1000204a:	7003      	strb	r3, [r0, #0]
1000204c:	6868      	ldr	r0, [r5, #4]
1000204e:	2201      	movs	r2, #1
10002050:	0003      	movs	r3, r0
10002052:	3310      	adds	r3, #16
10002054:	409a      	lsls	r2, r3
10002056:	6829      	ldr	r1, [r5, #0]
10002058:	7823      	ldrb	r3, [r4, #0]
1000205a:	2b00      	cmp	r3, #0
1000205c:	d1fc      	bne.n	10002058 <tft_begin+0xeb8>
1000205e:	3301      	adds	r3, #1
10002060:	7023      	strb	r3, [r4, #0]
10002062:	2680      	movs	r6, #128	; 0x80
10002064:	23d0      	movs	r3, #208	; 0xd0
10002066:	2780      	movs	r7, #128	; 0x80
10002068:	3004      	adds	r0, #4
1000206a:	061b      	lsls	r3, r3, #24
1000206c:	02f6      	lsls	r6, r6, #11
1000206e:	027f      	lsls	r7, r7, #9
10002070:	0080      	lsls	r0, r0, #2
10002072:	615e      	str	r6, [r3, #20]
10002074:	1808      	adds	r0, r1, r0
10002076:	615f      	str	r7, [r3, #20]
10002078:	619e      	str	r6, [r3, #24]
1000207a:	684b      	ldr	r3, [r1, #4]
1000207c:	421a      	tst	r2, r3
1000207e:	d1fc      	bne.n	1000207a <tft_begin+0xeda>
10002080:	2309      	movs	r3, #9
10002082:	7003      	strb	r3, [r0, #0]
10002084:	6868      	ldr	r0, [r5, #4]
10002086:	2201      	movs	r2, #1
10002088:	0003      	movs	r3, r0
1000208a:	3310      	adds	r3, #16
1000208c:	409a      	lsls	r2, r3
1000208e:	6829      	ldr	r1, [r5, #0]
10002090:	7823      	ldrb	r3, [r4, #0]
10002092:	2b00      	cmp	r3, #0
10002094:	d1fc      	bne.n	10002090 <tft_begin+0xef0>
10002096:	3301      	adds	r3, #1
10002098:	7023      	strb	r3, [r4, #0]
1000209a:	2680      	movs	r6, #128	; 0x80
1000209c:	23d0      	movs	r3, #208	; 0xd0
1000209e:	2780      	movs	r7, #128	; 0x80
100020a0:	061b      	lsls	r3, r3, #24
100020a2:	02f6      	lsls	r6, r6, #11
100020a4:	027f      	lsls	r7, r7, #9
100020a6:	3004      	adds	r0, #4
100020a8:	615e      	str	r6, [r3, #20]
100020aa:	615f      	str	r7, [r3, #20]
100020ac:	619e      	str	r6, [r3, #24]
100020ae:	0086      	lsls	r6, r0, #2
100020b0:	198e      	adds	r6, r1, r6
100020b2:	0010      	movs	r0, r2
100020b4:	684b      	ldr	r3, [r1, #4]
100020b6:	4018      	ands	r0, r3
100020b8:	421a      	tst	r2, r3
100020ba:	d1fa      	bne.n	100020b2 <tft_begin+0xf12>
100020bc:	7030      	strb	r0, [r6, #0]
100020be:	6868      	ldr	r0, [r5, #4]
100020c0:	2201      	movs	r2, #1
100020c2:	0003      	movs	r3, r0
100020c4:	3310      	adds	r3, #16
100020c6:	409a      	lsls	r2, r3
100020c8:	6829      	ldr	r1, [r5, #0]
100020ca:	7823      	ldrb	r3, [r4, #0]
100020cc:	2b00      	cmp	r3, #0
100020ce:	d1fc      	bne.n	100020ca <tft_begin+0xf2a>
100020d0:	3301      	adds	r3, #1
100020d2:	7023      	strb	r3, [r4, #0]
100020d4:	2680      	movs	r6, #128	; 0x80
100020d6:	23d0      	movs	r3, #208	; 0xd0
100020d8:	2780      	movs	r7, #128	; 0x80
100020da:	3004      	adds	r0, #4
100020dc:	061b      	lsls	r3, r3, #24
100020de:	02f6      	lsls	r6, r6, #11
100020e0:	027f      	lsls	r7, r7, #9
100020e2:	0080      	lsls	r0, r0, #2
100020e4:	615e      	str	r6, [r3, #20]
100020e6:	1808      	adds	r0, r1, r0
100020e8:	619f      	str	r7, [r3, #24]
100020ea:	619e      	str	r6, [r3, #24]
100020ec:	684b      	ldr	r3, [r1, #4]
100020ee:	421a      	tst	r2, r3
100020f0:	d1fc      	bne.n	100020ec <tft_begin+0xf4c>
100020f2:	23e1      	movs	r3, #225	; 0xe1
100020f4:	7003      	strb	r3, [r0, #0]
100020f6:	6868      	ldr	r0, [r5, #4]
100020f8:	2201      	movs	r2, #1
100020fa:	0003      	movs	r3, r0
100020fc:	3310      	adds	r3, #16
100020fe:	409a      	lsls	r2, r3
10002100:	6829      	ldr	r1, [r5, #0]
10002102:	7823      	ldrb	r3, [r4, #0]
10002104:	2b00      	cmp	r3, #0
10002106:	d1fc      	bne.n	10002102 <tft_begin+0xf62>
10002108:	3301      	adds	r3, #1
1000210a:	7023      	strb	r3, [r4, #0]
1000210c:	2680      	movs	r6, #128	; 0x80
1000210e:	23d0      	movs	r3, #208	; 0xd0
10002110:	2780      	movs	r7, #128	; 0x80
10002112:	061b      	lsls	r3, r3, #24
10002114:	02f6      	lsls	r6, r6, #11
10002116:	027f      	lsls	r7, r7, #9
10002118:	3004      	adds	r0, #4
1000211a:	615e      	str	r6, [r3, #20]
1000211c:	615f      	str	r7, [r3, #20]
1000211e:	619e      	str	r6, [r3, #24]
10002120:	0086      	lsls	r6, r0, #2
10002122:	198e      	adds	r6, r1, r6
10002124:	0010      	movs	r0, r2
10002126:	684b      	ldr	r3, [r1, #4]
10002128:	4018      	ands	r0, r3
1000212a:	421a      	tst	r2, r3
1000212c:	d1fa      	bne.n	10002124 <tft_begin+0xf84>
1000212e:	7030      	strb	r0, [r6, #0]
10002130:	6868      	ldr	r0, [r5, #4]
10002132:	2201      	movs	r2, #1
10002134:	0003      	movs	r3, r0
10002136:	3310      	adds	r3, #16
10002138:	409a      	lsls	r2, r3
1000213a:	6829      	ldr	r1, [r5, #0]
1000213c:	7823      	ldrb	r3, [r4, #0]
1000213e:	2b00      	cmp	r3, #0
10002140:	d1fc      	bne.n	1000213c <tft_begin+0xf9c>
10002142:	3301      	adds	r3, #1
10002144:	7023      	strb	r3, [r4, #0]
10002146:	2680      	movs	r6, #128	; 0x80
10002148:	23d0      	movs	r3, #208	; 0xd0
1000214a:	2780      	movs	r7, #128	; 0x80
1000214c:	3004      	adds	r0, #4
1000214e:	061b      	lsls	r3, r3, #24
10002150:	02f6      	lsls	r6, r6, #11
10002152:	027f      	lsls	r7, r7, #9
10002154:	0080      	lsls	r0, r0, #2
10002156:	615e      	str	r6, [r3, #20]
10002158:	1808      	adds	r0, r1, r0
1000215a:	615f      	str	r7, [r3, #20]
1000215c:	619e      	str	r6, [r3, #24]
1000215e:	684b      	ldr	r3, [r1, #4]
10002160:	421a      	tst	r2, r3
10002162:	d1fc      	bne.n	1000215e <tft_begin+0xfbe>
10002164:	230e      	movs	r3, #14
10002166:	7003      	strb	r3, [r0, #0]
10002168:	6868      	ldr	r0, [r5, #4]
1000216a:	2201      	movs	r2, #1
1000216c:	0003      	movs	r3, r0
1000216e:	3310      	adds	r3, #16
10002170:	409a      	lsls	r2, r3
10002172:	6829      	ldr	r1, [r5, #0]
10002174:	7823      	ldrb	r3, [r4, #0]
10002176:	2b00      	cmp	r3, #0
10002178:	d1fc      	bne.n	10002174 <tft_begin+0xfd4>
1000217a:	3301      	adds	r3, #1
1000217c:	7023      	strb	r3, [r4, #0]
1000217e:	2680      	movs	r6, #128	; 0x80
10002180:	23d0      	movs	r3, #208	; 0xd0
10002182:	2780      	movs	r7, #128	; 0x80
10002184:	3004      	adds	r0, #4
10002186:	061b      	lsls	r3, r3, #24
10002188:	02f6      	lsls	r6, r6, #11
1000218a:	027f      	lsls	r7, r7, #9
1000218c:	0080      	lsls	r0, r0, #2
1000218e:	615e      	str	r6, [r3, #20]
10002190:	1808      	adds	r0, r1, r0
10002192:	615f      	str	r7, [r3, #20]
10002194:	619e      	str	r6, [r3, #24]
10002196:	684b      	ldr	r3, [r1, #4]
10002198:	421a      	tst	r2, r3
1000219a:	d1fc      	bne.n	10002196 <tft_begin+0xff6>
1000219c:	2314      	movs	r3, #20
1000219e:	7003      	strb	r3, [r0, #0]
100021a0:	6868      	ldr	r0, [r5, #4]
100021a2:	2201      	movs	r2, #1
100021a4:	0003      	movs	r3, r0
100021a6:	3310      	adds	r3, #16
100021a8:	409a      	lsls	r2, r3
100021aa:	6829      	ldr	r1, [r5, #0]
100021ac:	7823      	ldrb	r3, [r4, #0]
100021ae:	2b00      	cmp	r3, #0
100021b0:	d1fc      	bne.n	100021ac <tft_begin+0x100c>
100021b2:	3301      	adds	r3, #1
100021b4:	7023      	strb	r3, [r4, #0]
100021b6:	2680      	movs	r6, #128	; 0x80
100021b8:	23d0      	movs	r3, #208	; 0xd0
100021ba:	2780      	movs	r7, #128	; 0x80
100021bc:	3004      	adds	r0, #4
100021be:	061b      	lsls	r3, r3, #24
100021c0:	02f6      	lsls	r6, r6, #11
100021c2:	027f      	lsls	r7, r7, #9
100021c4:	0080      	lsls	r0, r0, #2
100021c6:	615e      	str	r6, [r3, #20]
100021c8:	1808      	adds	r0, r1, r0
100021ca:	615f      	str	r7, [r3, #20]
100021cc:	619e      	str	r6, [r3, #24]
100021ce:	684b      	ldr	r3, [r1, #4]
100021d0:	421a      	tst	r2, r3
100021d2:	d1fc      	bne.n	100021ce <tft_begin+0x102e>
100021d4:	2303      	movs	r3, #3
100021d6:	7003      	strb	r3, [r0, #0]
100021d8:	6868      	ldr	r0, [r5, #4]
100021da:	2201      	movs	r2, #1
100021dc:	0003      	movs	r3, r0
100021de:	3310      	adds	r3, #16
100021e0:	409a      	lsls	r2, r3
100021e2:	6829      	ldr	r1, [r5, #0]
100021e4:	7823      	ldrb	r3, [r4, #0]
100021e6:	2b00      	cmp	r3, #0
100021e8:	d1fc      	bne.n	100021e4 <tft_begin+0x1044>
100021ea:	3301      	adds	r3, #1
100021ec:	7023      	strb	r3, [r4, #0]
100021ee:	2680      	movs	r6, #128	; 0x80
100021f0:	23d0      	movs	r3, #208	; 0xd0
100021f2:	2780      	movs	r7, #128	; 0x80
100021f4:	3004      	adds	r0, #4
100021f6:	061b      	lsls	r3, r3, #24
100021f8:	02f6      	lsls	r6, r6, #11
100021fa:	027f      	lsls	r7, r7, #9
100021fc:	0080      	lsls	r0, r0, #2
100021fe:	615e      	str	r6, [r3, #20]
10002200:	1808      	adds	r0, r1, r0
10002202:	615f      	str	r7, [r3, #20]
10002204:	619e      	str	r6, [r3, #24]
10002206:	684b      	ldr	r3, [r1, #4]
10002208:	421a      	tst	r2, r3
1000220a:	d1fc      	bne.n	10002206 <tft_begin+0x1066>
1000220c:	2311      	movs	r3, #17
1000220e:	7003      	strb	r3, [r0, #0]
10002210:	6868      	ldr	r0, [r5, #4]
10002212:	2201      	movs	r2, #1
10002214:	0003      	movs	r3, r0
10002216:	3310      	adds	r3, #16
10002218:	409a      	lsls	r2, r3
1000221a:	6829      	ldr	r1, [r5, #0]
1000221c:	7823      	ldrb	r3, [r4, #0]
1000221e:	2b00      	cmp	r3, #0
10002220:	d1fc      	bne.n	1000221c <tft_begin+0x107c>
10002222:	3301      	adds	r3, #1
10002224:	7023      	strb	r3, [r4, #0]
10002226:	2680      	movs	r6, #128	; 0x80
10002228:	23d0      	movs	r3, #208	; 0xd0
1000222a:	2780      	movs	r7, #128	; 0x80
1000222c:	3004      	adds	r0, #4
1000222e:	061b      	lsls	r3, r3, #24
10002230:	02f6      	lsls	r6, r6, #11
10002232:	027f      	lsls	r7, r7, #9
10002234:	0080      	lsls	r0, r0, #2
10002236:	615e      	str	r6, [r3, #20]
10002238:	1808      	adds	r0, r1, r0
1000223a:	615f      	str	r7, [r3, #20]
1000223c:	619e      	str	r6, [r3, #24]
1000223e:	684b      	ldr	r3, [r1, #4]
10002240:	421a      	tst	r2, r3
10002242:	d1fc      	bne.n	1000223e <tft_begin+0x109e>
10002244:	2307      	movs	r3, #7
10002246:	7003      	strb	r3, [r0, #0]
10002248:	6868      	ldr	r0, [r5, #4]
1000224a:	2201      	movs	r2, #1
1000224c:	0003      	movs	r3, r0
1000224e:	3310      	adds	r3, #16
10002250:	409a      	lsls	r2, r3
10002252:	6829      	ldr	r1, [r5, #0]
10002254:	7823      	ldrb	r3, [r4, #0]
10002256:	2b00      	cmp	r3, #0
10002258:	d1fc      	bne.n	10002254 <tft_begin+0x10b4>
1000225a:	3301      	adds	r3, #1
1000225c:	7023      	strb	r3, [r4, #0]
1000225e:	2680      	movs	r6, #128	; 0x80
10002260:	23d0      	movs	r3, #208	; 0xd0
10002262:	2780      	movs	r7, #128	; 0x80
10002264:	3004      	adds	r0, #4
10002266:	061b      	lsls	r3, r3, #24
10002268:	02f6      	lsls	r6, r6, #11
1000226a:	027f      	lsls	r7, r7, #9
1000226c:	0080      	lsls	r0, r0, #2
1000226e:	615e      	str	r6, [r3, #20]
10002270:	1808      	adds	r0, r1, r0
10002272:	615f      	str	r7, [r3, #20]
10002274:	619e      	str	r6, [r3, #24]
10002276:	684b      	ldr	r3, [r1, #4]
10002278:	421a      	tst	r2, r3
1000227a:	d1fc      	bne.n	10002276 <tft_begin+0x10d6>
1000227c:	2331      	movs	r3, #49	; 0x31
1000227e:	7003      	strb	r3, [r0, #0]
10002280:	6868      	ldr	r0, [r5, #4]
10002282:	2201      	movs	r2, #1
10002284:	0003      	movs	r3, r0
10002286:	3310      	adds	r3, #16
10002288:	409a      	lsls	r2, r3
1000228a:	6829      	ldr	r1, [r5, #0]
1000228c:	7823      	ldrb	r3, [r4, #0]
1000228e:	2b00      	cmp	r3, #0
10002290:	d1fc      	bne.n	1000228c <tft_begin+0x10ec>
10002292:	3301      	adds	r3, #1
10002294:	7023      	strb	r3, [r4, #0]
10002296:	2680      	movs	r6, #128	; 0x80
10002298:	23d0      	movs	r3, #208	; 0xd0
1000229a:	2780      	movs	r7, #128	; 0x80
1000229c:	3004      	adds	r0, #4
1000229e:	061b      	lsls	r3, r3, #24
100022a0:	02f6      	lsls	r6, r6, #11
100022a2:	027f      	lsls	r7, r7, #9
100022a4:	0080      	lsls	r0, r0, #2
100022a6:	615e      	str	r6, [r3, #20]
100022a8:	1808      	adds	r0, r1, r0
100022aa:	615f      	str	r7, [r3, #20]
100022ac:	619e      	str	r6, [r3, #24]
100022ae:	684b      	ldr	r3, [r1, #4]
100022b0:	421a      	tst	r2, r3
100022b2:	d1fc      	bne.n	100022ae <tft_begin+0x110e>
100022b4:	23c1      	movs	r3, #193	; 0xc1
100022b6:	7003      	strb	r3, [r0, #0]
100022b8:	6868      	ldr	r0, [r5, #4]
100022ba:	2201      	movs	r2, #1
100022bc:	0003      	movs	r3, r0
100022be:	3310      	adds	r3, #16
100022c0:	409a      	lsls	r2, r3
100022c2:	6829      	ldr	r1, [r5, #0]
100022c4:	7823      	ldrb	r3, [r4, #0]
100022c6:	2b00      	cmp	r3, #0
100022c8:	d1fc      	bne.n	100022c4 <tft_begin+0x1124>
100022ca:	3301      	adds	r3, #1
100022cc:	7023      	strb	r3, [r4, #0]
100022ce:	2680      	movs	r6, #128	; 0x80
100022d0:	23d0      	movs	r3, #208	; 0xd0
100022d2:	2780      	movs	r7, #128	; 0x80
100022d4:	3004      	adds	r0, #4
100022d6:	061b      	lsls	r3, r3, #24
100022d8:	02f6      	lsls	r6, r6, #11
100022da:	027f      	lsls	r7, r7, #9
100022dc:	0080      	lsls	r0, r0, #2
100022de:	615e      	str	r6, [r3, #20]
100022e0:	1808      	adds	r0, r1, r0
100022e2:	615f      	str	r7, [r3, #20]
100022e4:	619e      	str	r6, [r3, #24]
100022e6:	684b      	ldr	r3, [r1, #4]
100022e8:	421a      	tst	r2, r3
100022ea:	d1fc      	bne.n	100022e6 <tft_begin+0x1146>
100022ec:	2348      	movs	r3, #72	; 0x48
100022ee:	7003      	strb	r3, [r0, #0]
100022f0:	6868      	ldr	r0, [r5, #4]
100022f2:	2201      	movs	r2, #1
100022f4:	0003      	movs	r3, r0
100022f6:	3310      	adds	r3, #16
100022f8:	409a      	lsls	r2, r3
100022fa:	6829      	ldr	r1, [r5, #0]
100022fc:	7823      	ldrb	r3, [r4, #0]
100022fe:	2b00      	cmp	r3, #0
10002300:	d1fc      	bne.n	100022fc <tft_begin+0x115c>
10002302:	3301      	adds	r3, #1
10002304:	7023      	strb	r3, [r4, #0]
10002306:	2680      	movs	r6, #128	; 0x80
10002308:	23d0      	movs	r3, #208	; 0xd0
1000230a:	2780      	movs	r7, #128	; 0x80
1000230c:	3004      	adds	r0, #4
1000230e:	061b      	lsls	r3, r3, #24
10002310:	02f6      	lsls	r6, r6, #11
10002312:	027f      	lsls	r7, r7, #9
10002314:	0080      	lsls	r0, r0, #2
10002316:	615e      	str	r6, [r3, #20]
10002318:	1808      	adds	r0, r1, r0
1000231a:	615f      	str	r7, [r3, #20]
1000231c:	619e      	str	r6, [r3, #24]
1000231e:	684b      	ldr	r3, [r1, #4]
10002320:	421a      	tst	r2, r3
10002322:	d1fc      	bne.n	1000231e <tft_begin+0x117e>
10002324:	2308      	movs	r3, #8
10002326:	7003      	strb	r3, [r0, #0]
10002328:	6868      	ldr	r0, [r5, #4]
1000232a:	2201      	movs	r2, #1
1000232c:	0003      	movs	r3, r0
1000232e:	3310      	adds	r3, #16
10002330:	409a      	lsls	r2, r3
10002332:	6829      	ldr	r1, [r5, #0]
10002334:	7823      	ldrb	r3, [r4, #0]
10002336:	2b00      	cmp	r3, #0
10002338:	d1fc      	bne.n	10002334 <tft_begin+0x1194>
1000233a:	3301      	adds	r3, #1
1000233c:	7023      	strb	r3, [r4, #0]
1000233e:	2680      	movs	r6, #128	; 0x80
10002340:	23d0      	movs	r3, #208	; 0xd0
10002342:	2780      	movs	r7, #128	; 0x80
10002344:	3004      	adds	r0, #4
10002346:	061b      	lsls	r3, r3, #24
10002348:	02f6      	lsls	r6, r6, #11
1000234a:	027f      	lsls	r7, r7, #9
1000234c:	0080      	lsls	r0, r0, #2
1000234e:	615e      	str	r6, [r3, #20]
10002350:	1808      	adds	r0, r1, r0
10002352:	615f      	str	r7, [r3, #20]
10002354:	619e      	str	r6, [r3, #24]
10002356:	684b      	ldr	r3, [r1, #4]
10002358:	421a      	tst	r2, r3
1000235a:	d1fc      	bne.n	10002356 <tft_begin+0x11b6>
1000235c:	230f      	movs	r3, #15
1000235e:	7003      	strb	r3, [r0, #0]
10002360:	6868      	ldr	r0, [r5, #4]
10002362:	2201      	movs	r2, #1
10002364:	0003      	movs	r3, r0
10002366:	3310      	adds	r3, #16
10002368:	409a      	lsls	r2, r3
1000236a:	6829      	ldr	r1, [r5, #0]
1000236c:	7823      	ldrb	r3, [r4, #0]
1000236e:	2b00      	cmp	r3, #0
10002370:	d1fc      	bne.n	1000236c <tft_begin+0x11cc>
10002372:	3301      	adds	r3, #1
10002374:	7023      	strb	r3, [r4, #0]
10002376:	2680      	movs	r6, #128	; 0x80
10002378:	23d0      	movs	r3, #208	; 0xd0
1000237a:	2780      	movs	r7, #128	; 0x80
1000237c:	3004      	adds	r0, #4
1000237e:	061b      	lsls	r3, r3, #24
10002380:	02f6      	lsls	r6, r6, #11
10002382:	027f      	lsls	r7, r7, #9
10002384:	0080      	lsls	r0, r0, #2
10002386:	615e      	str	r6, [r3, #20]
10002388:	1808      	adds	r0, r1, r0
1000238a:	615f      	str	r7, [r3, #20]
1000238c:	619e      	str	r6, [r3, #24]
1000238e:	684b      	ldr	r3, [r1, #4]
10002390:	421a      	tst	r2, r3
10002392:	d1fc      	bne.n	1000238e <tft_begin+0x11ee>
10002394:	230c      	movs	r3, #12
10002396:	7003      	strb	r3, [r0, #0]
10002398:	6868      	ldr	r0, [r5, #4]
1000239a:	2201      	movs	r2, #1
1000239c:	0003      	movs	r3, r0
1000239e:	3310      	adds	r3, #16
100023a0:	409a      	lsls	r2, r3
100023a2:	6829      	ldr	r1, [r5, #0]
100023a4:	7823      	ldrb	r3, [r4, #0]
100023a6:	2b00      	cmp	r3, #0
100023a8:	d1fc      	bne.n	100023a4 <tft_begin+0x1204>
100023aa:	3301      	adds	r3, #1
100023ac:	7023      	strb	r3, [r4, #0]
100023ae:	2680      	movs	r6, #128	; 0x80
100023b0:	23d0      	movs	r3, #208	; 0xd0
100023b2:	2780      	movs	r7, #128	; 0x80
100023b4:	3004      	adds	r0, #4
100023b6:	061b      	lsls	r3, r3, #24
100023b8:	02f6      	lsls	r6, r6, #11
100023ba:	027f      	lsls	r7, r7, #9
100023bc:	0080      	lsls	r0, r0, #2
100023be:	615e      	str	r6, [r3, #20]
100023c0:	1808      	adds	r0, r1, r0
100023c2:	615f      	str	r7, [r3, #20]
100023c4:	619e      	str	r6, [r3, #24]
100023c6:	684b      	ldr	r3, [r1, #4]
100023c8:	421a      	tst	r2, r3
100023ca:	d1fc      	bne.n	100023c6 <tft_begin+0x1226>
100023cc:	2331      	movs	r3, #49	; 0x31
100023ce:	7003      	strb	r3, [r0, #0]
100023d0:	6868      	ldr	r0, [r5, #4]
100023d2:	2201      	movs	r2, #1
100023d4:	0003      	movs	r3, r0
100023d6:	3310      	adds	r3, #16
100023d8:	409a      	lsls	r2, r3
100023da:	6829      	ldr	r1, [r5, #0]
100023dc:	7823      	ldrb	r3, [r4, #0]
100023de:	2b00      	cmp	r3, #0
100023e0:	d1fc      	bne.n	100023dc <tft_begin+0x123c>
100023e2:	3301      	adds	r3, #1
100023e4:	7023      	strb	r3, [r4, #0]
100023e6:	2680      	movs	r6, #128	; 0x80
100023e8:	23d0      	movs	r3, #208	; 0xd0
100023ea:	2780      	movs	r7, #128	; 0x80
100023ec:	3004      	adds	r0, #4
100023ee:	061b      	lsls	r3, r3, #24
100023f0:	02f6      	lsls	r6, r6, #11
100023f2:	027f      	lsls	r7, r7, #9
100023f4:	0080      	lsls	r0, r0, #2
100023f6:	615e      	str	r6, [r3, #20]
100023f8:	1808      	adds	r0, r1, r0
100023fa:	615f      	str	r7, [r3, #20]
100023fc:	619e      	str	r6, [r3, #24]
100023fe:	684b      	ldr	r3, [r1, #4]
10002400:	421a      	tst	r2, r3
10002402:	d1fc      	bne.n	100023fe <tft_begin+0x125e>
10002404:	2336      	movs	r3, #54	; 0x36
10002406:	7003      	strb	r3, [r0, #0]
10002408:	6868      	ldr	r0, [r5, #4]
1000240a:	2201      	movs	r2, #1
1000240c:	0003      	movs	r3, r0
1000240e:	3310      	adds	r3, #16
10002410:	409a      	lsls	r2, r3
10002412:	6829      	ldr	r1, [r5, #0]
10002414:	7823      	ldrb	r3, [r4, #0]
10002416:	2b00      	cmp	r3, #0
10002418:	d1fc      	bne.n	10002414 <tft_begin+0x1274>
1000241a:	3301      	adds	r3, #1
1000241c:	7023      	strb	r3, [r4, #0]
1000241e:	2680      	movs	r6, #128	; 0x80
10002420:	23d0      	movs	r3, #208	; 0xd0
10002422:	2780      	movs	r7, #128	; 0x80
10002424:	3004      	adds	r0, #4
10002426:	061b      	lsls	r3, r3, #24
10002428:	02f6      	lsls	r6, r6, #11
1000242a:	027f      	lsls	r7, r7, #9
1000242c:	0080      	lsls	r0, r0, #2
1000242e:	615e      	str	r6, [r3, #20]
10002430:	1808      	adds	r0, r1, r0
10002432:	615f      	str	r7, [r3, #20]
10002434:	619e      	str	r6, [r3, #24]
10002436:	684b      	ldr	r3, [r1, #4]
10002438:	421a      	tst	r2, r3
1000243a:	d1fc      	bne.n	10002436 <tft_begin+0x1296>
1000243c:	230f      	movs	r3, #15
1000243e:	7003      	strb	r3, [r0, #0]
10002440:	6868      	ldr	r0, [r5, #4]
10002442:	2201      	movs	r2, #1
10002444:	0003      	movs	r3, r0
10002446:	3310      	adds	r3, #16
10002448:	409a      	lsls	r2, r3
1000244a:	6829      	ldr	r1, [r5, #0]
1000244c:	7823      	ldrb	r3, [r4, #0]
1000244e:	2b00      	cmp	r3, #0
10002450:	d1fc      	bne.n	1000244c <tft_begin+0x12ac>
10002452:	3301      	adds	r3, #1
10002454:	7023      	strb	r3, [r4, #0]
10002456:	2680      	movs	r6, #128	; 0x80
10002458:	23d0      	movs	r3, #208	; 0xd0
1000245a:	2780      	movs	r7, #128	; 0x80
1000245c:	3004      	adds	r0, #4
1000245e:	061b      	lsls	r3, r3, #24
10002460:	02f6      	lsls	r6, r6, #11
10002462:	027f      	lsls	r7, r7, #9
10002464:	0080      	lsls	r0, r0, #2
10002466:	615e      	str	r6, [r3, #20]
10002468:	1808      	adds	r0, r1, r0
1000246a:	619f      	str	r7, [r3, #24]
1000246c:	619e      	str	r6, [r3, #24]
1000246e:	684b      	ldr	r3, [r1, #4]
10002470:	421a      	tst	r2, r3
10002472:	d1fc      	bne.n	1000246e <tft_begin+0x12ce>
10002474:	2311      	movs	r3, #17
10002476:	7003      	strb	r3, [r0, #0]
10002478:	7823      	ldrb	r3, [r4, #0]
1000247a:	2b00      	cmp	r3, #0
1000247c:	d1fc      	bne.n	10002478 <tft_begin+0x12d8>
1000247e:	27d0      	movs	r7, #208	; 0xd0
10002480:	2380      	movs	r3, #128	; 0x80
10002482:	2601      	movs	r6, #1
10002484:	02db      	lsls	r3, r3, #11
10002486:	063f      	lsls	r7, r7, #24
10002488:	7026      	strb	r6, [r4, #0]
1000248a:	2078      	movs	r0, #120	; 0x78
1000248c:	617b      	str	r3, [r7, #20]
1000248e:	4698      	mov	r8, r3
10002490:	f001 f86a 	bl	10003568 <sleep_ms>
10002494:	cd06      	ldmia	r5!, {r1, r2}
10002496:	2380      	movs	r3, #128	; 0x80
10002498:	025b      	lsls	r3, r3, #9
1000249a:	61bb      	str	r3, [r7, #24]
1000249c:	1d10      	adds	r0, r2, #4
1000249e:	4643      	mov	r3, r8
100024a0:	3210      	adds	r2, #16
100024a2:	4096      	lsls	r6, r2
100024a4:	0080      	lsls	r0, r0, #2
100024a6:	61bb      	str	r3, [r7, #24]
100024a8:	1808      	adds	r0, r1, r0
100024aa:	684b      	ldr	r3, [r1, #4]
100024ac:	421e      	tst	r6, r3
100024ae:	d1fc      	bne.n	100024aa <tft_begin+0x130a>
100024b0:	2329      	movs	r3, #41	; 0x29
100024b2:	7003      	strb	r3, [r0, #0]
100024b4:	7823      	ldrb	r3, [r4, #0]
100024b6:	2b00      	cmp	r3, #0
100024b8:	d1fc      	bne.n	100024b4 <tft_begin+0x1314>
100024ba:	3301      	adds	r3, #1
100024bc:	7023      	strb	r3, [r4, #0]
100024be:	2280      	movs	r2, #128	; 0x80
100024c0:	23d0      	movs	r3, #208	; 0xd0
100024c2:	20fa      	movs	r0, #250	; 0xfa
100024c4:	061b      	lsls	r3, r3, #24
100024c6:	02d2      	lsls	r2, r2, #11
100024c8:	615a      	str	r2, [r3, #20]
100024ca:	0040      	lsls	r0, r0, #1
100024cc:	f001 f84c 	bl	10003568 <sleep_ms>
100024d0:	bc80      	pop	{r7}
100024d2:	46b8      	mov	r8, r7
100024d4:	bdf0      	pop	{r4, r5, r6, r7, pc}
100024d6:	46c0      	nop			; (mov r8, r8)

100024d8 <tft_setAddrWindow>:
100024d8:	b5f0      	push	{r4, r5, r6, r7, lr}
100024da:	0015      	movs	r5, r2
100024dc:	001f      	movs	r7, r3
100024de:	2280      	movs	r2, #128	; 0x80
100024e0:	23d0      	movs	r3, #208	; 0xd0
100024e2:	46c6      	mov	lr, r8
100024e4:	061b      	lsls	r3, r3, #24
100024e6:	0252      	lsls	r2, r2, #9
100024e8:	b500      	push	{lr}
100024ea:	619a      	str	r2, [r3, #24]
100024ec:	2280      	movs	r2, #128	; 0x80
100024ee:	4e4b      	ldr	r6, [pc, #300]	; (1000261c <tft_setAddrWindow+0x144>)
100024f0:	02d2      	lsls	r2, r2, #11
100024f2:	619a      	str	r2, [r3, #24]
100024f4:	6873      	ldr	r3, [r6, #4]
100024f6:	4688      	mov	r8, r1
100024f8:	1d19      	adds	r1, r3, #4
100024fa:	3310      	adds	r3, #16
100024fc:	001c      	movs	r4, r3
100024fe:	2301      	movs	r3, #1
10002500:	40a3      	lsls	r3, r4
10002502:	6832      	ldr	r2, [r6, #0]
10002504:	0089      	lsls	r1, r1, #2
10002506:	1851      	adds	r1, r2, r1
10002508:	6854      	ldr	r4, [r2, #4]
1000250a:	4223      	tst	r3, r4
1000250c:	d1fc      	bne.n	10002508 <tft_setAddrWindow+0x30>
1000250e:	232a      	movs	r3, #42	; 0x2a
10002510:	4c43      	ldr	r4, [pc, #268]	; (10002620 <tft_setAddrWindow+0x148>)
10002512:	700b      	strb	r3, [r1, #0]
10002514:	7823      	ldrb	r3, [r4, #0]
10002516:	2b00      	cmp	r3, #0
10002518:	d1fc      	bne.n	10002514 <tft_setAddrWindow+0x3c>
1000251a:	3301      	adds	r3, #1
1000251c:	7023      	strb	r3, [r4, #0]
1000251e:	2280      	movs	r2, #128	; 0x80
10002520:	23d0      	movs	r3, #208	; 0xd0
10002522:	2180      	movs	r1, #128	; 0x80
10002524:	061b      	lsls	r3, r3, #24
10002526:	02d2      	lsls	r2, r2, #11
10002528:	0249      	lsls	r1, r1, #9
1000252a:	615a      	str	r2, [r3, #20]
1000252c:	6159      	str	r1, [r3, #20]
1000252e:	619a      	str	r2, [r3, #24]
10002530:	f7fe f936 	bl	100007a0 <tft_spiwrite16>
10002534:	7823      	ldrb	r3, [r4, #0]
10002536:	2b00      	cmp	r3, #0
10002538:	d1fc      	bne.n	10002534 <tft_setAddrWindow+0x5c>
1000253a:	3301      	adds	r3, #1
1000253c:	7023      	strb	r3, [r4, #0]
1000253e:	2280      	movs	r2, #128	; 0x80
10002540:	23d0      	movs	r3, #208	; 0xd0
10002542:	2180      	movs	r1, #128	; 0x80
10002544:	061b      	lsls	r3, r3, #24
10002546:	02d2      	lsls	r2, r2, #11
10002548:	0249      	lsls	r1, r1, #9
1000254a:	615a      	str	r2, [r3, #20]
1000254c:	0028      	movs	r0, r5
1000254e:	6159      	str	r1, [r3, #20]
10002550:	619a      	str	r2, [r3, #24]
10002552:	f7fe f925 	bl	100007a0 <tft_spiwrite16>
10002556:	7823      	ldrb	r3, [r4, #0]
10002558:	2b00      	cmp	r3, #0
1000255a:	d1fc      	bne.n	10002556 <tft_setAddrWindow+0x7e>
1000255c:	23d0      	movs	r3, #208	; 0xd0
1000255e:	2280      	movs	r2, #128	; 0x80
10002560:	2180      	movs	r1, #128	; 0x80
10002562:	2501      	movs	r5, #1
10002564:	061b      	lsls	r3, r3, #24
10002566:	02d2      	lsls	r2, r2, #11
10002568:	0249      	lsls	r1, r1, #9
1000256a:	7025      	strb	r5, [r4, #0]
1000256c:	615a      	str	r2, [r3, #20]
1000256e:	6199      	str	r1, [r3, #24]
10002570:	6871      	ldr	r1, [r6, #4]
10002572:	619a      	str	r2, [r3, #24]
10002574:	1d08      	adds	r0, r1, #4
10002576:	3110      	adds	r1, #16
10002578:	408d      	lsls	r5, r1
1000257a:	6833      	ldr	r3, [r6, #0]
1000257c:	0080      	lsls	r0, r0, #2
1000257e:	1818      	adds	r0, r3, r0
10002580:	685a      	ldr	r2, [r3, #4]
10002582:	4215      	tst	r5, r2
10002584:	d1fc      	bne.n	10002580 <tft_setAddrWindow+0xa8>
10002586:	232b      	movs	r3, #43	; 0x2b
10002588:	7003      	strb	r3, [r0, #0]
1000258a:	7823      	ldrb	r3, [r4, #0]
1000258c:	2b00      	cmp	r3, #0
1000258e:	d1fc      	bne.n	1000258a <tft_setAddrWindow+0xb2>
10002590:	3301      	adds	r3, #1
10002592:	7023      	strb	r3, [r4, #0]
10002594:	2280      	movs	r2, #128	; 0x80
10002596:	23d0      	movs	r3, #208	; 0xd0
10002598:	2180      	movs	r1, #128	; 0x80
1000259a:	061b      	lsls	r3, r3, #24
1000259c:	02d2      	lsls	r2, r2, #11
1000259e:	0249      	lsls	r1, r1, #9
100025a0:	615a      	str	r2, [r3, #20]
100025a2:	4640      	mov	r0, r8
100025a4:	6159      	str	r1, [r3, #20]
100025a6:	619a      	str	r2, [r3, #24]
100025a8:	f7fe f8fa 	bl	100007a0 <tft_spiwrite16>
100025ac:	7823      	ldrb	r3, [r4, #0]
100025ae:	2b00      	cmp	r3, #0
100025b0:	d1fc      	bne.n	100025ac <tft_setAddrWindow+0xd4>
100025b2:	3301      	adds	r3, #1
100025b4:	7023      	strb	r3, [r4, #0]
100025b6:	2280      	movs	r2, #128	; 0x80
100025b8:	23d0      	movs	r3, #208	; 0xd0
100025ba:	2180      	movs	r1, #128	; 0x80
100025bc:	061b      	lsls	r3, r3, #24
100025be:	02d2      	lsls	r2, r2, #11
100025c0:	0249      	lsls	r1, r1, #9
100025c2:	615a      	str	r2, [r3, #20]
100025c4:	0038      	movs	r0, r7
100025c6:	6159      	str	r1, [r3, #20]
100025c8:	619a      	str	r2, [r3, #24]
100025ca:	f7fe f8e9 	bl	100007a0 <tft_spiwrite16>
100025ce:	7823      	ldrb	r3, [r4, #0]
100025d0:	2b00      	cmp	r3, #0
100025d2:	d1fc      	bne.n	100025ce <tft_setAddrWindow+0xf6>
100025d4:	23d0      	movs	r3, #208	; 0xd0
100025d6:	2180      	movs	r1, #128	; 0x80
100025d8:	2080      	movs	r0, #128	; 0x80
100025da:	2201      	movs	r2, #1
100025dc:	061b      	lsls	r3, r3, #24
100025de:	02c9      	lsls	r1, r1, #11
100025e0:	0240      	lsls	r0, r0, #9
100025e2:	7022      	strb	r2, [r4, #0]
100025e4:	6159      	str	r1, [r3, #20]
100025e6:	6198      	str	r0, [r3, #24]
100025e8:	6199      	str	r1, [r3, #24]
100025ea:	ce22      	ldmia	r6!, {r1, r5}
100025ec:	1d28      	adds	r0, r5, #4
100025ee:	3510      	adds	r5, #16
100025f0:	40aa      	lsls	r2, r5
100025f2:	0080      	lsls	r0, r0, #2
100025f4:	1808      	adds	r0, r1, r0
100025f6:	684b      	ldr	r3, [r1, #4]
100025f8:	4213      	tst	r3, r2
100025fa:	d1fc      	bne.n	100025f6 <tft_setAddrWindow+0x11e>
100025fc:	232c      	movs	r3, #44	; 0x2c
100025fe:	7003      	strb	r3, [r0, #0]
10002600:	7823      	ldrb	r3, [r4, #0]
10002602:	2b00      	cmp	r3, #0
10002604:	d1fc      	bne.n	10002600 <tft_setAddrWindow+0x128>
10002606:	3301      	adds	r3, #1
10002608:	7023      	strb	r3, [r4, #0]
1000260a:	2280      	movs	r2, #128	; 0x80
1000260c:	23d0      	movs	r3, #208	; 0xd0
1000260e:	02d2      	lsls	r2, r2, #11
10002610:	061b      	lsls	r3, r3, #24
10002612:	615a      	str	r2, [r3, #20]
10002614:	bc80      	pop	{r7}
10002616:	46b8      	mov	r8, r7
10002618:	bdf0      	pop	{r4, r5, r6, r7, pc}
1000261a:	46c0      	nop			; (mov r8, r8)
1000261c:	2000019c 	.word	0x2000019c
10002620:	20000198 	.word	0x20000198

10002624 <tft_fillRect>:
10002624:	b5f8      	push	{r3, r4, r5, r6, r7, lr}
10002626:	46ce      	mov	lr, r9
10002628:	4647      	mov	r7, r8
1000262a:	b580      	push	{r7, lr}
1000262c:	4698      	mov	r8, r3
1000262e:	ab08      	add	r3, sp, #32
10002630:	881e      	ldrh	r6, [r3, #0]
10002632:	4b2b      	ldr	r3, [pc, #172]	; (100026e0 <tft_fillRect+0xbc>)
10002634:	4691      	mov	r9, r2
10002636:	881b      	ldrh	r3, [r3, #0]
10002638:	4298      	cmp	r0, r3
1000263a:	da42      	bge.n	100026c2 <tft_fillRect+0x9e>
1000263c:	4a29      	ldr	r2, [pc, #164]	; (100026e4 <tft_fillRect+0xc0>)
1000263e:	8814      	ldrh	r4, [r2, #0]
10002640:	42a1      	cmp	r1, r4
10002642:	da3e      	bge.n	100026c2 <tft_fillRect+0x9e>
10002644:	464a      	mov	r2, r9
10002646:	1812      	adds	r2, r2, r0
10002648:	b280      	uxth	r0, r0
1000264a:	4293      	cmp	r3, r2
1000264c:	db42      	blt.n	100026d4 <tft_fillRect+0xb0>
1000264e:	464b      	mov	r3, r9
10002650:	b29a      	uxth	r2, r3
10002652:	4643      	mov	r3, r8
10002654:	185b      	adds	r3, r3, r1
10002656:	b289      	uxth	r1, r1
10002658:	429c      	cmp	r4, r3
1000265a:	db36      	blt.n	100026ca <tft_fillRect+0xa6>
1000265c:	4643      	mov	r3, r8
1000265e:	b29b      	uxth	r3, r3
10002660:	18cb      	adds	r3, r1, r3
10002662:	1882      	adds	r2, r0, r2
10002664:	3b01      	subs	r3, #1
10002666:	3a01      	subs	r2, #1
10002668:	b29b      	uxth	r3, r3
1000266a:	b292      	uxth	r2, r2
1000266c:	f7ff ff34 	bl	100024d8 <tft_setAddrWindow>
10002670:	23d0      	movs	r3, #208	; 0xd0
10002672:	2280      	movs	r2, #128	; 0x80
10002674:	061b      	lsls	r3, r3, #24
10002676:	0252      	lsls	r2, r2, #9
10002678:	615a      	str	r2, [r3, #20]
1000267a:	2280      	movs	r2, #128	; 0x80
1000267c:	02d2      	lsls	r2, r2, #11
1000267e:	619a      	str	r2, [r3, #24]
10002680:	4643      	mov	r3, r8
10002682:	2b00      	cmp	r3, #0
10002684:	dd18      	ble.n	100026b8 <tft_fillRect+0x94>
10002686:	464b      	mov	r3, r9
10002688:	2b00      	cmp	r3, #0
1000268a:	dd15      	ble.n	100026b8 <tft_fillRect+0x94>
1000268c:	2701      	movs	r7, #1
1000268e:	4c16      	ldr	r4, [pc, #88]	; (100026e8 <tft_fillRect+0xc4>)
10002690:	464d      	mov	r5, r9
10002692:	0030      	movs	r0, r6
10002694:	f7fe f884 	bl	100007a0 <tft_spiwrite16>
10002698:	7821      	ldrb	r1, [r4, #0]
1000269a:	2900      	cmp	r1, #0
1000269c:	d1fc      	bne.n	10002698 <tft_fillRect+0x74>
1000269e:	3d01      	subs	r5, #1
100026a0:	b2ab      	uxth	r3, r5
100026a2:	7027      	strb	r7, [r4, #0]
100026a4:	b22d      	sxth	r5, r5
100026a6:	2b00      	cmp	r3, #0
100026a8:	d1f3      	bne.n	10002692 <tft_fillRect+0x6e>
100026aa:	4643      	mov	r3, r8
100026ac:	3b01      	subs	r3, #1
100026ae:	b29a      	uxth	r2, r3
100026b0:	b21b      	sxth	r3, r3
100026b2:	4698      	mov	r8, r3
100026b4:	2a00      	cmp	r2, #0
100026b6:	d1eb      	bne.n	10002690 <tft_fillRect+0x6c>
100026b8:	23d0      	movs	r3, #208	; 0xd0
100026ba:	2280      	movs	r2, #128	; 0x80
100026bc:	061b      	lsls	r3, r3, #24
100026be:	02d2      	lsls	r2, r2, #11
100026c0:	615a      	str	r2, [r3, #20]
100026c2:	bcc0      	pop	{r6, r7}
100026c4:	46b9      	mov	r9, r7
100026c6:	46b0      	mov	r8, r6
100026c8:	bdf8      	pop	{r3, r4, r5, r6, r7, pc}
100026ca:	1a64      	subs	r4, r4, r1
100026cc:	b2a3      	uxth	r3, r4
100026ce:	b224      	sxth	r4, r4
100026d0:	46a0      	mov	r8, r4
100026d2:	e7c5      	b.n	10002660 <tft_fillRect+0x3c>
100026d4:	1a1b      	subs	r3, r3, r0
100026d6:	b29a      	uxth	r2, r3
100026d8:	b21b      	sxth	r3, r3
100026da:	4699      	mov	r9, r3
100026dc:	e7b9      	b.n	10002652 <tft_fillRect+0x2e>
100026de:	46c0      	nop			; (mov r8, r8)
100026e0:	20000646 	.word	0x20000646
100026e4:	20000644 	.word	0x20000644
100026e8:	20000198 	.word	0x20000198

100026ec <tft_fillScreen>:
100026ec:	b500      	push	{lr}
100026ee:	4b07      	ldr	r3, [pc, #28]	; (1000270c <tft_fillScreen+0x20>)
100026f0:	b083      	sub	sp, #12
100026f2:	2200      	movs	r2, #0
100026f4:	5e9b      	ldrsh	r3, [r3, r2]
100026f6:	4a06      	ldr	r2, [pc, #24]	; (10002710 <tft_fillScreen+0x24>)
100026f8:	2100      	movs	r1, #0
100026fa:	5e52      	ldrsh	r2, [r2, r1]
100026fc:	9000      	str	r0, [sp, #0]
100026fe:	2100      	movs	r1, #0
10002700:	2000      	movs	r0, #0
10002702:	f7ff ff8f 	bl	10002624 <tft_fillRect>
10002706:	b003      	add	sp, #12
10002708:	bd00      	pop	{pc}
1000270a:	46c0      	nop			; (mov r8, r8)
1000270c:	20000644 	.word	0x20000644
10002710:	20000646 	.word	0x20000646

10002714 <tft_setRotation>:
10002714:	23d0      	movs	r3, #208	; 0xd0
10002716:	2280      	movs	r2, #128	; 0x80
10002718:	061b      	lsls	r3, r3, #24
1000271a:	0252      	lsls	r2, r2, #9
1000271c:	b5f0      	push	{r4, r5, r6, r7, lr}
1000271e:	619a      	str	r2, [r3, #24]
10002720:	2280      	movs	r2, #128	; 0x80
10002722:	02d2      	lsls	r2, r2, #11
10002724:	619a      	str	r2, [r3, #24]
10002726:	2201      	movs	r2, #1
10002728:	0006      	movs	r6, r0
1000272a:	4840      	ldr	r0, [pc, #256]	; (1000282c <tft_setRotation+0x118>)
1000272c:	6843      	ldr	r3, [r0, #4]
1000272e:	6801      	ldr	r1, [r0, #0]
10002730:	1d1c      	adds	r4, r3, #4
10002732:	3310      	adds	r3, #16
10002734:	409a      	lsls	r2, r3
10002736:	00a4      	lsls	r4, r4, #2
10002738:	190c      	adds	r4, r1, r4
1000273a:	684b      	ldr	r3, [r1, #4]
1000273c:	421a      	tst	r2, r3
1000273e:	d1fc      	bne.n	1000273a <tft_setRotation+0x26>
10002740:	2336      	movs	r3, #54	; 0x36
10002742:	7023      	strb	r3, [r4, #0]
10002744:	c822      	ldmia	r0!, {r1, r5}
10002746:	002b      	movs	r3, r5
10002748:	2201      	movs	r2, #1
1000274a:	3310      	adds	r3, #16
1000274c:	409a      	lsls	r2, r3
1000274e:	4b38      	ldr	r3, [pc, #224]	; (10002830 <tft_setRotation+0x11c>)
10002750:	781c      	ldrb	r4, [r3, #0]
10002752:	2c00      	cmp	r4, #0
10002754:	d1fc      	bne.n	10002750 <tft_setRotation+0x3c>
10002756:	2001      	movs	r0, #1
10002758:	24d0      	movs	r4, #208	; 0xd0
1000275a:	2780      	movs	r7, #128	; 0x80
1000275c:	7018      	strb	r0, [r3, #0]
1000275e:	0624      	lsls	r4, r4, #24
10002760:	02ff      	lsls	r7, r7, #11
10002762:	3002      	adds	r0, #2
10002764:	6167      	str	r7, [r4, #20]
10002766:	4030      	ands	r0, r6
10002768:	2802      	cmp	r0, #2
1000276a:	d04e      	beq.n	1000280a <tft_setRotation+0xf6>
1000276c:	2803      	cmp	r0, #3
1000276e:	d03c      	beq.n	100027ea <tft_setRotation+0xd6>
10002770:	2801      	cmp	r0, #1
10002772:	d01c      	beq.n	100027ae <tft_setRotation+0x9a>
10002774:	2080      	movs	r0, #128	; 0x80
10002776:	3504      	adds	r5, #4
10002778:	0240      	lsls	r0, r0, #9
1000277a:	00ad      	lsls	r5, r5, #2
1000277c:	6160      	str	r0, [r4, #20]
1000277e:	194d      	adds	r5, r1, r5
10002780:	61a7      	str	r7, [r4, #24]
10002782:	6848      	ldr	r0, [r1, #4]
10002784:	4210      	tst	r0, r2
10002786:	d1fc      	bne.n	10002782 <tft_setRotation+0x6e>
10002788:	2248      	movs	r2, #72	; 0x48
1000278a:	702a      	strb	r2, [r5, #0]
1000278c:	781a      	ldrb	r2, [r3, #0]
1000278e:	2a00      	cmp	r2, #0
10002790:	d1fc      	bne.n	1000278c <tft_setRotation+0x78>
10002792:	3201      	adds	r2, #1
10002794:	701a      	strb	r2, [r3, #0]
10002796:	23d0      	movs	r3, #208	; 0xd0
10002798:	2280      	movs	r2, #128	; 0x80
1000279a:	061b      	lsls	r3, r3, #24
1000279c:	02d2      	lsls	r2, r2, #11
1000279e:	615a      	str	r2, [r3, #20]
100027a0:	22f0      	movs	r2, #240	; 0xf0
100027a2:	4b24      	ldr	r3, [pc, #144]	; (10002834 <tft_setRotation+0x120>)
100027a4:	801a      	strh	r2, [r3, #0]
100027a6:	4b24      	ldr	r3, [pc, #144]	; (10002838 <tft_setRotation+0x124>)
100027a8:	3250      	adds	r2, #80	; 0x50
100027aa:	801a      	strh	r2, [r3, #0]
100027ac:	bdf0      	pop	{r4, r5, r6, r7, pc}
100027ae:	2080      	movs	r0, #128	; 0x80
100027b0:	3504      	adds	r5, #4
100027b2:	0240      	lsls	r0, r0, #9
100027b4:	00ad      	lsls	r5, r5, #2
100027b6:	6160      	str	r0, [r4, #20]
100027b8:	194d      	adds	r5, r1, r5
100027ba:	61a7      	str	r7, [r4, #24]
100027bc:	6848      	ldr	r0, [r1, #4]
100027be:	4210      	tst	r0, r2
100027c0:	d1fc      	bne.n	100027bc <tft_setRotation+0xa8>
100027c2:	2228      	movs	r2, #40	; 0x28
100027c4:	702a      	strb	r2, [r5, #0]
100027c6:	781a      	ldrb	r2, [r3, #0]
100027c8:	2a00      	cmp	r2, #0
100027ca:	d1fc      	bne.n	100027c6 <tft_setRotation+0xb2>
100027cc:	3201      	adds	r2, #1
100027ce:	701a      	strb	r2, [r3, #0]
100027d0:	23d0      	movs	r3, #208	; 0xd0
100027d2:	2280      	movs	r2, #128	; 0x80
100027d4:	061b      	lsls	r3, r3, #24
100027d6:	02d2      	lsls	r2, r2, #11
100027d8:	615a      	str	r2, [r3, #20]
100027da:	22a0      	movs	r2, #160	; 0xa0
100027dc:	4b15      	ldr	r3, [pc, #84]	; (10002834 <tft_setRotation+0x120>)
100027de:	0052      	lsls	r2, r2, #1
100027e0:	801a      	strh	r2, [r3, #0]
100027e2:	4b15      	ldr	r3, [pc, #84]	; (10002838 <tft_setRotation+0x124>)
100027e4:	3a50      	subs	r2, #80	; 0x50
100027e6:	801a      	strh	r2, [r3, #0]
100027e8:	e7e0      	b.n	100027ac <tft_setRotation+0x98>
100027ea:	2080      	movs	r0, #128	; 0x80
100027ec:	3504      	adds	r5, #4
100027ee:	0240      	lsls	r0, r0, #9
100027f0:	00ad      	lsls	r5, r5, #2
100027f2:	6160      	str	r0, [r4, #20]
100027f4:	194d      	adds	r5, r1, r5
100027f6:	61a7      	str	r7, [r4, #24]
100027f8:	6848      	ldr	r0, [r1, #4]
100027fa:	4210      	tst	r0, r2
100027fc:	d1fc      	bne.n	100027f8 <tft_setRotation+0xe4>
100027fe:	22e8      	movs	r2, #232	; 0xe8
10002800:	702a      	strb	r2, [r5, #0]
10002802:	781a      	ldrb	r2, [r3, #0]
10002804:	2a00      	cmp	r2, #0
10002806:	d1fc      	bne.n	10002802 <tft_setRotation+0xee>
10002808:	e7e0      	b.n	100027cc <tft_setRotation+0xb8>
1000280a:	2080      	movs	r0, #128	; 0x80
1000280c:	3504      	adds	r5, #4
1000280e:	0240      	lsls	r0, r0, #9
10002810:	00ad      	lsls	r5, r5, #2
10002812:	6160      	str	r0, [r4, #20]
10002814:	194d      	adds	r5, r1, r5
10002816:	61a7      	str	r7, [r4, #24]
10002818:	6848      	ldr	r0, [r1, #4]
1000281a:	4210      	tst	r0, r2
1000281c:	d1fc      	bne.n	10002818 <tft_setRotation+0x104>
1000281e:	2288      	movs	r2, #136	; 0x88
10002820:	702a      	strb	r2, [r5, #0]
10002822:	781a      	ldrb	r2, [r3, #0]
10002824:	2a00      	cmp	r2, #0
10002826:	d1fc      	bne.n	10002822 <tft_setRotation+0x10e>
10002828:	e7b3      	b.n	10002792 <tft_setRotation+0x7e>
1000282a:	46c0      	nop			; (mov r8, r8)
1000282c:	2000019c 	.word	0x2000019c
10002830:	20000198 	.word	0x20000198
10002834:	20000646 	.word	0x20000646
10002838:	20000644 	.word	0x20000644

1000283c <tft_drawChar>:
1000283c:	b5f0      	push	{r4, r5, r6, r7, lr}
1000283e:	4645      	mov	r5, r8
10002840:	46de      	mov	lr, fp
10002842:	4657      	mov	r7, sl
10002844:	464e      	mov	r6, r9
10002846:	b5e0      	push	{r5, r6, r7, lr}
10002848:	b08d      	sub	sp, #52	; 0x34
1000284a:	9304      	str	r3, [sp, #16]
1000284c:	ab16      	add	r3, sp, #88	; 0x58
1000284e:	881b      	ldrh	r3, [r3, #0]
10002850:	9305      	str	r3, [sp, #20]
10002852:	ab17      	add	r3, sp, #92	; 0x5c
10002854:	781b      	ldrb	r3, [r3, #0]
10002856:	4698      	mov	r8, r3
10002858:	4b4c      	ldr	r3, [pc, #304]	; (1000298c <tft_drawChar+0x150>)
1000285a:	881b      	ldrh	r3, [r3, #0]
1000285c:	4298      	cmp	r0, r3
1000285e:	da67      	bge.n	10002930 <tft_drawChar+0xf4>
10002860:	4b4b      	ldr	r3, [pc, #300]	; (10002990 <tft_drawChar+0x154>)
10002862:	881b      	ldrh	r3, [r3, #0]
10002864:	4299      	cmp	r1, r3
10002866:	da63      	bge.n	10002930 <tft_drawChar+0xf4>
10002868:	4643      	mov	r3, r8
1000286a:	005b      	lsls	r3, r3, #1
1000286c:	4443      	add	r3, r8
1000286e:	005b      	lsls	r3, r3, #1
10002870:	181b      	adds	r3, r3, r0
10002872:	2b00      	cmp	r3, #0
10002874:	dd5c      	ble.n	10002930 <tft_drawChar+0xf4>
10002876:	4643      	mov	r3, r8
10002878:	00db      	lsls	r3, r3, #3
1000287a:	185b      	adds	r3, r3, r1
1000287c:	2b00      	cmp	r3, #0
1000287e:	dd57      	ble.n	10002930 <tft_drawChar+0xf4>
10002880:	4643      	mov	r3, r8
10002882:	b29b      	uxth	r3, r3
10002884:	469a      	mov	sl, r3
10002886:	0093      	lsls	r3, r2, #2
10002888:	189a      	adds	r2, r3, r2
1000288a:	4b42      	ldr	r3, [pc, #264]	; (10002994 <tft_drawChar+0x158>)
1000288c:	b280      	uxth	r0, r0
1000288e:	18d3      	adds	r3, r2, r3
10002890:	930a      	str	r3, [sp, #40]	; 0x28
10002892:	2300      	movs	r3, #0
10002894:	9308      	str	r3, [sp, #32]
10002896:	b28b      	uxth	r3, r1
10002898:	930b      	str	r3, [sp, #44]	; 0x2c
1000289a:	3308      	adds	r3, #8
1000289c:	b29b      	uxth	r3, r3
1000289e:	9009      	str	r0, [sp, #36]	; 0x24
100028a0:	9007      	str	r0, [sp, #28]
100028a2:	9303      	str	r3, [sp, #12]
100028a4:	9b08      	ldr	r3, [sp, #32]
100028a6:	2b05      	cmp	r3, #5
100028a8:	d100      	bne.n	100028ac <tft_drawChar+0x70>
100028aa:	e06c      	b.n	10002986 <tft_drawChar+0x14a>
100028ac:	9b0a      	ldr	r3, [sp, #40]	; 0x28
100028ae:	781e      	ldrb	r6, [r3, #0]
100028b0:	466b      	mov	r3, sp
100028b2:	221c      	movs	r2, #28
100028b4:	5e9b      	ldrsh	r3, [r3, r2]
100028b6:	9d0b      	ldr	r5, [sp, #44]	; 0x2c
100028b8:	469b      	mov	fp, r3
100028ba:	466b      	mov	r3, sp
100028bc:	2224      	movs	r2, #36	; 0x24
100028be:	5e9b      	ldrsh	r3, [r3, r2]
100028c0:	002c      	movs	r4, r5
100028c2:	9306      	str	r3, [sp, #24]
100028c4:	2301      	movs	r3, #1
100028c6:	4699      	mov	r9, r3
100028c8:	4643      	mov	r3, r8
100028ca:	b21f      	sxth	r7, r3
100028cc:	e012      	b.n	100028f4 <tft_drawChar+0xb8>
100028ce:	4643      	mov	r3, r8
100028d0:	2b01      	cmp	r3, #1
100028d2:	d034      	beq.n	1000293e <tft_drawChar+0x102>
100028d4:	9b04      	ldr	r3, [sp, #16]
100028d6:	b229      	sxth	r1, r5
100028d8:	9300      	str	r3, [sp, #0]
100028da:	003a      	movs	r2, r7
100028dc:	003b      	movs	r3, r7
100028de:	4658      	mov	r0, fp
100028e0:	f7ff fea0 	bl	10002624 <tft_fillRect>
100028e4:	3401      	adds	r4, #1
100028e6:	9b03      	ldr	r3, [sp, #12]
100028e8:	4455      	add	r5, sl
100028ea:	b2a4      	uxth	r4, r4
100028ec:	0876      	lsrs	r6, r6, #1
100028ee:	b2ad      	uxth	r5, r5
100028f0:	42a3      	cmp	r3, r4
100028f2:	d00c      	beq.n	1000290e <tft_drawChar+0xd2>
100028f4:	464b      	mov	r3, r9
100028f6:	4233      	tst	r3, r6
100028f8:	d1e9      	bne.n	100028ce <tft_drawChar+0x92>
100028fa:	9b05      	ldr	r3, [sp, #20]
100028fc:	9a04      	ldr	r2, [sp, #16]
100028fe:	4293      	cmp	r3, r2
10002900:	d0f0      	beq.n	100028e4 <tft_drawChar+0xa8>
10002902:	4643      	mov	r3, r8
10002904:	2b01      	cmp	r3, #1
10002906:	d02c      	beq.n	10002962 <tft_drawChar+0x126>
10002908:	9b05      	ldr	r3, [sp, #20]
1000290a:	b229      	sxth	r1, r5
1000290c:	e7e4      	b.n	100028d8 <tft_drawChar+0x9c>
1000290e:	9b08      	ldr	r3, [sp, #32]
10002910:	3301      	adds	r3, #1
10002912:	b2da      	uxtb	r2, r3
10002914:	9b09      	ldr	r3, [sp, #36]	; 0x24
10002916:	9208      	str	r2, [sp, #32]
10002918:	3301      	adds	r3, #1
1000291a:	b29b      	uxth	r3, r3
1000291c:	9309      	str	r3, [sp, #36]	; 0x24
1000291e:	9b07      	ldr	r3, [sp, #28]
10002920:	4453      	add	r3, sl
10002922:	b29b      	uxth	r3, r3
10002924:	9307      	str	r3, [sp, #28]
10002926:	9b0a      	ldr	r3, [sp, #40]	; 0x28
10002928:	3301      	adds	r3, #1
1000292a:	930a      	str	r3, [sp, #40]	; 0x28
1000292c:	2a06      	cmp	r2, #6
1000292e:	d1b9      	bne.n	100028a4 <tft_drawChar+0x68>
10002930:	b00d      	add	sp, #52	; 0x34
10002932:	bcf0      	pop	{r4, r5, r6, r7}
10002934:	46bb      	mov	fp, r7
10002936:	46b2      	mov	sl, r6
10002938:	46a9      	mov	r9, r5
1000293a:	46a0      	mov	r8, r4
1000293c:	bdf0      	pop	{r4, r5, r6, r7, pc}
1000293e:	9806      	ldr	r0, [sp, #24]
10002940:	2800      	cmp	r0, #0
10002942:	dbcf      	blt.n	100028e4 <tft_drawChar+0xa8>
10002944:	4b11      	ldr	r3, [pc, #68]	; (1000298c <tft_drawChar+0x150>)
10002946:	881b      	ldrh	r3, [r3, #0]
10002948:	4298      	cmp	r0, r3
1000294a:	dacb      	bge.n	100028e4 <tft_drawChar+0xa8>
1000294c:	b221      	sxth	r1, r4
1000294e:	2900      	cmp	r1, #0
10002950:	dbc8      	blt.n	100028e4 <tft_drawChar+0xa8>
10002952:	4b0f      	ldr	r3, [pc, #60]	; (10002990 <tft_drawChar+0x154>)
10002954:	881b      	ldrh	r3, [r3, #0]
10002956:	4299      	cmp	r1, r3
10002958:	dac4      	bge.n	100028e4 <tft_drawChar+0xa8>
1000295a:	9a04      	ldr	r2, [sp, #16]
1000295c:	f7fd ff48 	bl	100007f0 <tft_drawPixel.part.0>
10002960:	e7c0      	b.n	100028e4 <tft_drawChar+0xa8>
10002962:	9806      	ldr	r0, [sp, #24]
10002964:	2800      	cmp	r0, #0
10002966:	dbbd      	blt.n	100028e4 <tft_drawChar+0xa8>
10002968:	4b08      	ldr	r3, [pc, #32]	; (1000298c <tft_drawChar+0x150>)
1000296a:	881b      	ldrh	r3, [r3, #0]
1000296c:	4298      	cmp	r0, r3
1000296e:	dab9      	bge.n	100028e4 <tft_drawChar+0xa8>
10002970:	b221      	sxth	r1, r4
10002972:	2900      	cmp	r1, #0
10002974:	dbb6      	blt.n	100028e4 <tft_drawChar+0xa8>
10002976:	4b06      	ldr	r3, [pc, #24]	; (10002990 <tft_drawChar+0x154>)
10002978:	881b      	ldrh	r3, [r3, #0]
1000297a:	4299      	cmp	r1, r3
1000297c:	dab2      	bge.n	100028e4 <tft_drawChar+0xa8>
1000297e:	9a05      	ldr	r2, [sp, #20]
10002980:	f7fd ff36 	bl	100007f0 <tft_drawPixel.part.0>
10002984:	e7ae      	b.n	100028e4 <tft_drawChar+0xa8>
10002986:	2600      	movs	r6, #0
10002988:	e792      	b.n	100028b0 <tft_drawChar+0x74>
1000298a:	46c0      	nop			; (mov r8, r8)
1000298c:	20000646 	.word	0x20000646
10002990:	20000644 	.word	0x20000644
10002994:	10006da4 	.word	0x10006da4

10002998 <tft_writeString>:
10002998:	b5f0      	push	{r4, r5, r6, r7, lr}
1000299a:	46ce      	mov	lr, r9
1000299c:	4647      	mov	r7, r8
1000299e:	b580      	push	{r7, lr}
100029a0:	7802      	ldrb	r2, [r0, #0]
100029a2:	0004      	movs	r4, r0
100029a4:	b083      	sub	sp, #12
100029a6:	2a00      	cmp	r2, #0
100029a8:	d023      	beq.n	100029f2 <tft_writeString+0x5a>
100029aa:	4b2a      	ldr	r3, [pc, #168]	; (10002a54 <tft_writeString+0xbc>)
100029ac:	4e2a      	ldr	r6, [pc, #168]	; (10002a58 <tft_writeString+0xc0>)
100029ae:	4699      	mov	r9, r3
100029b0:	4d2a      	ldr	r5, [pc, #168]	; (10002a5c <tft_writeString+0xc4>)
100029b2:	e00e      	b.n	100029d2 <tft_writeString+0x3a>
100029b4:	2a0d      	cmp	r2, #13
100029b6:	d009      	beq.n	100029cc <tft_writeString+0x34>
100029b8:	2a09      	cmp	r2, #9
100029ba:	d11f      	bne.n	100029fc <tft_writeString+0x64>
100029bc:	4a27      	ldr	r2, [pc, #156]	; (10002a5c <tft_writeString+0xc4>)
100029be:	4928      	ldr	r1, [pc, #160]	; (10002a60 <tft_writeString+0xc8>)
100029c0:	8813      	ldrh	r3, [r2, #0]
100029c2:	8809      	ldrh	r1, [r1, #0]
100029c4:	3304      	adds	r3, #4
100029c6:	428b      	cmp	r3, r1
100029c8:	da00      	bge.n	100029cc <tft_writeString+0x34>
100029ca:	8013      	strh	r3, [r2, #0]
100029cc:	7822      	ldrb	r2, [r4, #0]
100029ce:	2a00      	cmp	r2, #0
100029d0:	d00f      	beq.n	100029f2 <tft_writeString+0x5a>
100029d2:	3401      	adds	r4, #1
100029d4:	2a0a      	cmp	r2, #10
100029d6:	d1ed      	bne.n	100029b4 <tft_writeString+0x1c>
100029d8:	4b22      	ldr	r3, [pc, #136]	; (10002a64 <tft_writeString+0xcc>)
100029da:	4a1f      	ldr	r2, [pc, #124]	; (10002a58 <tft_writeString+0xc0>)
100029dc:	881b      	ldrh	r3, [r3, #0]
100029de:	8811      	ldrh	r1, [r2, #0]
100029e0:	00db      	lsls	r3, r3, #3
100029e2:	185b      	adds	r3, r3, r1
100029e4:	8013      	strh	r3, [r2, #0]
100029e6:	2200      	movs	r2, #0
100029e8:	4b1c      	ldr	r3, [pc, #112]	; (10002a5c <tft_writeString+0xc4>)
100029ea:	801a      	strh	r2, [r3, #0]
100029ec:	7822      	ldrb	r2, [r4, #0]
100029ee:	2a00      	cmp	r2, #0
100029f0:	d1ef      	bne.n	100029d2 <tft_writeString+0x3a>
100029f2:	b003      	add	sp, #12
100029f4:	bcc0      	pop	{r6, r7}
100029f6:	46b9      	mov	r9, r7
100029f8:	46b0      	mov	r8, r6
100029fa:	bdf0      	pop	{r4, r5, r6, r7, pc}
100029fc:	464b      	mov	r3, r9
100029fe:	2000      	movs	r0, #0
10002a00:	5e31      	ldrsh	r1, [r6, r0]
10002a02:	2700      	movs	r7, #0
10002a04:	5fe8      	ldrsh	r0, [r5, r7]
10002a06:	4f17      	ldr	r7, [pc, #92]	; (10002a64 <tft_writeString+0xcc>)
10002a08:	881b      	ldrh	r3, [r3, #0]
10002a0a:	46b8      	mov	r8, r7
10002a0c:	783f      	ldrb	r7, [r7, #0]
10002a0e:	9701      	str	r7, [sp, #4]
10002a10:	4f15      	ldr	r7, [pc, #84]	; (10002a68 <tft_writeString+0xd0>)
10002a12:	883f      	ldrh	r7, [r7, #0]
10002a14:	9700      	str	r7, [sp, #0]
10002a16:	f7ff ff11 	bl	1000283c <tft_drawChar>
10002a1a:	4643      	mov	r3, r8
10002a1c:	881a      	ldrh	r2, [r3, #0]
10002a1e:	8829      	ldrh	r1, [r5, #0]
10002a20:	0053      	lsls	r3, r2, #1
10002a22:	18d3      	adds	r3, r2, r3
10002a24:	005b      	lsls	r3, r3, #1
10002a26:	185b      	adds	r3, r3, r1
10002a28:	4910      	ldr	r1, [pc, #64]	; (10002a6c <tft_writeString+0xd4>)
10002a2a:	b29b      	uxth	r3, r3
10002a2c:	8809      	ldrh	r1, [r1, #0]
10002a2e:	802b      	strh	r3, [r5, #0]
10002a30:	2900      	cmp	r1, #0
10002a32:	d0cb      	beq.n	100029cc <tft_writeString+0x34>
10002a34:	490a      	ldr	r1, [pc, #40]	; (10002a60 <tft_writeString+0xc8>)
10002a36:	8808      	ldrh	r0, [r1, #0]
10002a38:	0091      	lsls	r1, r2, #2
10002a3a:	1a51      	subs	r1, r2, r1
10002a3c:	0049      	lsls	r1, r1, #1
10002a3e:	1841      	adds	r1, r0, r1
10002a40:	428b      	cmp	r3, r1
10002a42:	ddc3      	ble.n	100029cc <tft_writeString+0x34>
10002a44:	8833      	ldrh	r3, [r6, #0]
10002a46:	00d2      	lsls	r2, r2, #3
10002a48:	18d2      	adds	r2, r2, r3
10002a4a:	2300      	movs	r3, #0
10002a4c:	8032      	strh	r2, [r6, #0]
10002a4e:	802b      	strh	r3, [r5, #0]
10002a50:	e7bc      	b.n	100029cc <tft_writeString+0x34>
10002a52:	46c0      	nop			; (mov r8, r8)
10002a54:	2000064e 	.word	0x2000064e
10002a58:	2000064a 	.word	0x2000064a
10002a5c:	20000648 	.word	0x20000648
10002a60:	20000646 	.word	0x20000646
10002a64:	20000650 	.word	0x20000650
10002a68:	2000064c 	.word	0x2000064c
10002a6c:	20000652 	.word	0x20000652

10002a70 <tft_setCursor>:
10002a70:	4b02      	ldr	r3, [pc, #8]	; (10002a7c <tft_setCursor+0xc>)
10002a72:	8018      	strh	r0, [r3, #0]
10002a74:	4b02      	ldr	r3, [pc, #8]	; (10002a80 <tft_setCursor+0x10>)
10002a76:	8019      	strh	r1, [r3, #0]
10002a78:	4770      	bx	lr
10002a7a:	46c0      	nop			; (mov r8, r8)
10002a7c:	20000648 	.word	0x20000648
10002a80:	2000064a 	.word	0x2000064a

10002a84 <tft_setTextSize>:
10002a84:	1c03      	adds	r3, r0, #0
10002a86:	2800      	cmp	r0, #0
10002a88:	d100      	bne.n	10002a8c <tft_setTextSize+0x8>
10002a8a:	2301      	movs	r3, #1
10002a8c:	4a01      	ldr	r2, [pc, #4]	; (10002a94 <tft_setTextSize+0x10>)
10002a8e:	b2db      	uxtb	r3, r3
10002a90:	8013      	strh	r3, [r2, #0]
10002a92:	4770      	bx	lr
10002a94:	20000650 	.word	0x20000650

10002a98 <tft_setTextColor>:
10002a98:	4b02      	ldr	r3, [pc, #8]	; (10002aa4 <tft_setTextColor+0xc>)
10002a9a:	8018      	strh	r0, [r3, #0]
10002a9c:	4b02      	ldr	r3, [pc, #8]	; (10002aa8 <tft_setTextColor+0x10>)
10002a9e:	8018      	strh	r0, [r3, #0]
10002aa0:	4770      	bx	lr
10002aa2:	46c0      	nop			; (mov r8, r8)
10002aa4:	2000064c 	.word	0x2000064c
10002aa8:	2000064e 	.word	0x2000064e

10002aac <gpio_set_function>:
10002aac:	4a09      	ldr	r2, [pc, #36]	; (10002ad4 <gpio_set_function+0x28>)
10002aae:	0083      	lsls	r3, r0, #2
10002ab0:	4694      	mov	ip, r2
10002ab2:	2240      	movs	r2, #64	; 0x40
10002ab4:	4463      	add	r3, ip
10002ab6:	b510      	push	{r4, lr}
10002ab8:	681c      	ldr	r4, [r3, #0]
10002aba:	00c0      	lsls	r0, r0, #3
10002abc:	4062      	eors	r2, r4
10002abe:	24c0      	movs	r4, #192	; 0xc0
10002ac0:	4014      	ands	r4, r2
10002ac2:	2280      	movs	r2, #128	; 0x80
10002ac4:	0152      	lsls	r2, r2, #5
10002ac6:	4313      	orrs	r3, r2
10002ac8:	601c      	str	r4, [r3, #0]
10002aca:	4b03      	ldr	r3, [pc, #12]	; (10002ad8 <gpio_set_function+0x2c>)
10002acc:	469c      	mov	ip, r3
10002ace:	4460      	add	r0, ip
10002ad0:	6041      	str	r1, [r0, #4]
10002ad2:	bd10      	pop	{r4, pc}
10002ad4:	4001c004 	.word	0x4001c004
10002ad8:	40014000 	.word	0x40014000

10002adc <gpio_set_pulls>:
10002adc:	4b0a      	ldr	r3, [pc, #40]	; (10002b08 <gpio_set_pulls+0x2c>)
10002ade:	0080      	lsls	r0, r0, #2
10002ae0:	469c      	mov	ip, r3
10002ae2:	2304      	movs	r3, #4
10002ae4:	4460      	add	r0, ip
10002ae6:	2900      	cmp	r1, #0
10002ae8:	d001      	beq.n	10002aee <gpio_set_pulls+0x12>
10002aea:	230c      	movs	r3, #12
10002aec:	2108      	movs	r1, #8
10002aee:	2a00      	cmp	r2, #0
10002af0:	d100      	bne.n	10002af4 <gpio_set_pulls+0x18>
10002af2:	000b      	movs	r3, r1
10002af4:	6802      	ldr	r2, [r0, #0]
10002af6:	4053      	eors	r3, r2
10002af8:	220c      	movs	r2, #12
10002afa:	401a      	ands	r2, r3
10002afc:	2380      	movs	r3, #128	; 0x80
10002afe:	015b      	lsls	r3, r3, #5
10002b00:	4318      	orrs	r0, r3
10002b02:	6002      	str	r2, [r0, #0]
10002b04:	4770      	bx	lr
10002b06:	46c0      	nop			; (mov r8, r8)
10002b08:	4001c004 	.word	0x4001c004

10002b0c <gpio_set_outover>:
10002b0c:	4b07      	ldr	r3, [pc, #28]	; (10002b2c <gpio_set_outover+0x20>)
10002b0e:	00c0      	lsls	r0, r0, #3
10002b10:	469c      	mov	ip, r3
10002b12:	4460      	add	r0, ip
10002b14:	6803      	ldr	r3, [r0, #0]
10002b16:	0209      	lsls	r1, r1, #8
10002b18:	4059      	eors	r1, r3
10002b1a:	23c0      	movs	r3, #192	; 0xc0
10002b1c:	009b      	lsls	r3, r3, #2
10002b1e:	4019      	ands	r1, r3
10002b20:	2380      	movs	r3, #128	; 0x80
10002b22:	015b      	lsls	r3, r3, #5
10002b24:	4318      	orrs	r0, r3
10002b26:	6001      	str	r1, [r0, #0]
10002b28:	4770      	bx	lr
10002b2a:	46c0      	nop			; (mov r8, r8)
10002b2c:	40014004 	.word	0x40014004

10002b30 <gpio_set_input_enabled>:
10002b30:	4b08      	ldr	r3, [pc, #32]	; (10002b54 <gpio_set_input_enabled+0x24>)
10002b32:	0080      	lsls	r0, r0, #2
10002b34:	469c      	mov	ip, r3
10002b36:	4460      	add	r0, ip
10002b38:	2900      	cmp	r1, #0
10002b3a:	d005      	beq.n	10002b48 <gpio_set_input_enabled+0x18>
10002b3c:	2380      	movs	r3, #128	; 0x80
10002b3e:	019b      	lsls	r3, r3, #6
10002b40:	4318      	orrs	r0, r3
10002b42:	2340      	movs	r3, #64	; 0x40
10002b44:	6003      	str	r3, [r0, #0]
10002b46:	4770      	bx	lr
10002b48:	23c0      	movs	r3, #192	; 0xc0
10002b4a:	019b      	lsls	r3, r3, #6
10002b4c:	4318      	orrs	r0, r3
10002b4e:	2340      	movs	r3, #64	; 0x40
10002b50:	6003      	str	r3, [r0, #0]
10002b52:	e7f8      	b.n	10002b46 <gpio_set_input_enabled+0x16>
10002b54:	4001c004 	.word	0x4001c004

10002b58 <gpio_init>:
10002b58:	2301      	movs	r3, #1
10002b5a:	22d0      	movs	r2, #208	; 0xd0
10002b5c:	4083      	lsls	r3, r0
10002b5e:	0612      	lsls	r2, r2, #24
10002b60:	6293      	str	r3, [r2, #40]	; 0x28
10002b62:	6193      	str	r3, [r2, #24]
10002b64:	4a09      	ldr	r2, [pc, #36]	; (10002b8c <gpio_init+0x34>)
10002b66:	0083      	lsls	r3, r0, #2
10002b68:	4694      	mov	ip, r2
10002b6a:	2240      	movs	r2, #64	; 0x40
10002b6c:	4463      	add	r3, ip
10002b6e:	6819      	ldr	r1, [r3, #0]
10002b70:	00c0      	lsls	r0, r0, #3
10002b72:	404a      	eors	r2, r1
10002b74:	21c0      	movs	r1, #192	; 0xc0
10002b76:	4011      	ands	r1, r2
10002b78:	2280      	movs	r2, #128	; 0x80
10002b7a:	0152      	lsls	r2, r2, #5
10002b7c:	4313      	orrs	r3, r2
10002b7e:	6019      	str	r1, [r3, #0]
10002b80:	4b03      	ldr	r3, [pc, #12]	; (10002b90 <gpio_init+0x38>)
10002b82:	469c      	mov	ip, r3
10002b84:	2305      	movs	r3, #5
10002b86:	4460      	add	r0, ip
10002b88:	6043      	str	r3, [r0, #4]
10002b8a:	4770      	bx	lr
10002b8c:	4001c004 	.word	0x4001c004
10002b90:	40014000 	.word	0x40014000

10002b94 <running_on_fpga>:
10002b94:	4b02      	ldr	r3, [pc, #8]	; (10002ba0 <running_on_fpga+0xc>)
10002b96:	6818      	ldr	r0, [r3, #0]
10002b98:	0780      	lsls	r0, r0, #30
10002b9a:	0fc0      	lsrs	r0, r0, #31
10002b9c:	4770      	bx	lr
10002b9e:	46c0      	nop			; (mov r8, r8)
10002ba0:	4006c000 	.word	0x4006c000

10002ba4 <hw_claim_lock>:
10002ba4:	f3ef 8010 	mrs	r0, PRIMASK
10002ba8:	b672      	cpsid	i
10002baa:	4a03      	ldr	r2, [pc, #12]	; (10002bb8 <hw_claim_lock+0x14>)
10002bac:	6813      	ldr	r3, [r2, #0]
10002bae:	2b00      	cmp	r3, #0
10002bb0:	d0fc      	beq.n	10002bac <hw_claim_lock+0x8>
10002bb2:	f3bf 8f5f 	dmb	sy
10002bb6:	4770      	bx	lr
10002bb8:	d000012c 	.word	0xd000012c

10002bbc <hw_claim_unlock>:
10002bbc:	f3bf 8f5f 	dmb	sy
10002bc0:	2200      	movs	r2, #0
10002bc2:	4b02      	ldr	r3, [pc, #8]	; (10002bcc <hw_claim_unlock+0x10>)
10002bc4:	601a      	str	r2, [r3, #0]
10002bc6:	f380 8810 	msr	PRIMASK, r0
10002bca:	4770      	bx	lr
10002bcc:	d000012c 	.word	0xd000012c

10002bd0 <hw_claim_or_assert>:
10002bd0:	b570      	push	{r4, r5, r6, lr}
10002bd2:	f3ef 8c10 	mrs	ip, PRIMASK
10002bd6:	b672      	cpsid	i
10002bd8:	4d0d      	ldr	r5, [pc, #52]	; (10002c10 <hw_claim_or_assert+0x40>)
10002bda:	682b      	ldr	r3, [r5, #0]
10002bdc:	2b00      	cmp	r3, #0
10002bde:	d0fc      	beq.n	10002bda <hw_claim_or_assert+0xa>
10002be0:	f3bf 8f5f 	dmb	sy
10002be4:	2407      	movs	r4, #7
10002be6:	08cb      	lsrs	r3, r1, #3
10002be8:	18c6      	adds	r6, r0, r3
10002bea:	5cc0      	ldrb	r0, [r0, r3]
10002bec:	2301      	movs	r3, #1
10002bee:	400c      	ands	r4, r1
10002bf0:	40a3      	lsls	r3, r4
10002bf2:	001c      	movs	r4, r3
10002bf4:	4004      	ands	r4, r0
10002bf6:	4203      	tst	r3, r0
10002bf8:	d107      	bne.n	10002c0a <hw_claim_or_assert+0x3a>
10002bfa:	4303      	orrs	r3, r0
10002bfc:	7033      	strb	r3, [r6, #0]
10002bfe:	f3bf 8f5f 	dmb	sy
10002c02:	602c      	str	r4, [r5, #0]
10002c04:	f38c 8810 	msr	PRIMASK, ip
10002c08:	bd70      	pop	{r4, r5, r6, pc}
10002c0a:	0010      	movs	r0, r2
10002c0c:	f001 fad8 	bl	100041c0 <panic>
10002c10:	d000012c 	.word	0xd000012c

10002c14 <spin_locks_reset>:
10002c14:	2100      	movs	r1, #0
10002c16:	4b04      	ldr	r3, [pc, #16]	; (10002c28 <spin_locks_reset+0x14>)
10002c18:	4a04      	ldr	r2, [pc, #16]	; (10002c2c <spin_locks_reset+0x18>)
10002c1a:	f3bf 8f5f 	dmb	sy
10002c1e:	c302      	stmia	r3!, {r1}
10002c20:	4293      	cmp	r3, r2
10002c22:	d1fa      	bne.n	10002c1a <spin_locks_reset+0x6>
10002c24:	4770      	bx	lr
10002c26:	46c0      	nop			; (mov r8, r8)
10002c28:	d0000100 	.word	0xd0000100
10002c2c:	d0000180 	.word	0xd0000180

10002c30 <next_striped_spin_lock_num>:
10002c30:	4a04      	ldr	r2, [pc, #16]	; (10002c44 <next_striped_spin_lock_num+0x14>)
10002c32:	7810      	ldrb	r0, [r2, #0]
10002c34:	1c43      	adds	r3, r0, #1
10002c36:	b2db      	uxtb	r3, r3
10002c38:	2b17      	cmp	r3, #23
10002c3a:	d900      	bls.n	10002c3e <next_striped_spin_lock_num+0xe>
10002c3c:	2310      	movs	r3, #16
10002c3e:	7013      	strb	r3, [r2, #0]
10002c40:	4770      	bx	lr
10002c42:	46c0      	nop			; (mov r8, r8)
10002c44:	200001a8 	.word	0x200001a8

10002c48 <irq_set_enabled>:
10002c48:	2301      	movs	r3, #1
10002c4a:	4083      	lsls	r3, r0
10002c4c:	2900      	cmp	r1, #0
10002c4e:	d004      	beq.n	10002c5a <irq_set_enabled+0x12>
10002c50:	4a03      	ldr	r2, [pc, #12]	; (10002c60 <irq_set_enabled+0x18>)
10002c52:	6013      	str	r3, [r2, #0]
10002c54:	4a03      	ldr	r2, [pc, #12]	; (10002c64 <irq_set_enabled+0x1c>)
10002c56:	6013      	str	r3, [r2, #0]
10002c58:	4770      	bx	lr
10002c5a:	4a03      	ldr	r2, [pc, #12]	; (10002c68 <irq_set_enabled+0x20>)
10002c5c:	6013      	str	r3, [r2, #0]
10002c5e:	e7fb      	b.n	10002c58 <irq_set_enabled+0x10>
10002c60:	e000e280 	.word	0xe000e280
10002c64:	e000e100 	.word	0xe000e100
10002c68:	e000e180 	.word	0xe000e180

10002c6c <irq_get_vtable_handler>:
10002c6c:	4b02      	ldr	r3, [pc, #8]	; (10002c78 <irq_get_vtable_handler+0xc>)
10002c6e:	3010      	adds	r0, #16
10002c70:	689b      	ldr	r3, [r3, #8]
10002c72:	0080      	lsls	r0, r0, #2
10002c74:	58c0      	ldr	r0, [r0, r3]
10002c76:	4770      	bx	lr
10002c78:	e000ed00 	.word	0xe000ed00

10002c7c <irq_set_exclusive_handler>:
10002c7c:	b570      	push	{r4, r5, r6, lr}
10002c7e:	000d      	movs	r5, r1
10002c80:	f3ef 8610 	mrs	r6, PRIMASK
10002c84:	b672      	cpsid	i
10002c86:	4a0f      	ldr	r2, [pc, #60]	; (10002cc4 <irq_set_exclusive_handler+0x48>)
10002c88:	6813      	ldr	r3, [r2, #0]
10002c8a:	2b00      	cmp	r3, #0
10002c8c:	d0fc      	beq.n	10002c88 <irq_set_exclusive_handler+0xc>
10002c8e:	f3bf 8f5f 	dmb	sy
10002c92:	4b0d      	ldr	r3, [pc, #52]	; (10002cc8 <irq_set_exclusive_handler+0x4c>)
10002c94:	3010      	adds	r0, #16
10002c96:	689b      	ldr	r3, [r3, #8]
10002c98:	0084      	lsls	r4, r0, #2
10002c9a:	591b      	ldr	r3, [r3, r4]
10002c9c:	4a0b      	ldr	r2, [pc, #44]	; (10002ccc <irq_set_exclusive_handler+0x50>)
10002c9e:	4293      	cmp	r3, r2
10002ca0:	d003      	beq.n	10002caa <irq_set_exclusive_handler+0x2e>
10002ca2:	429d      	cmp	r5, r3
10002ca4:	d001      	beq.n	10002caa <irq_set_exclusive_handler+0x2e>
10002ca6:	f001 faa3 	bl	100041f0 <hard_assertion_failure>
10002caa:	4b07      	ldr	r3, [pc, #28]	; (10002cc8 <irq_set_exclusive_handler+0x4c>)
10002cac:	689b      	ldr	r3, [r3, #8]
10002cae:	511d      	str	r5, [r3, r4]
10002cb0:	f3bf 8f5f 	dmb	sy
10002cb4:	f3bf 8f5f 	dmb	sy
10002cb8:	2200      	movs	r2, #0
10002cba:	4b02      	ldr	r3, [pc, #8]	; (10002cc4 <irq_set_exclusive_handler+0x48>)
10002cbc:	601a      	str	r2, [r3, #0]
10002cbe:	f386 8810 	msr	PRIMASK, r6
10002cc2:	bd70      	pop	{r4, r5, r6, pc}
10002cc4:	d0000124 	.word	0xd0000124
10002cc8:	e000ed00 	.word	0xe000ed00
10002ccc:	100001cd 	.word	0x100001cd

10002cd0 <irq_remove_handler>:
10002cd0:	b5f0      	push	{r4, r5, r6, r7, lr}
10002cd2:	46de      	mov	lr, fp
10002cd4:	4657      	mov	r7, sl
10002cd6:	464e      	mov	r6, r9
10002cd8:	4645      	mov	r5, r8
10002cda:	b5e0      	push	{r5, r6, r7, lr}
10002cdc:	000c      	movs	r4, r1
10002cde:	b083      	sub	sp, #12
10002ce0:	f3ef 8910 	mrs	r9, PRIMASK
10002ce4:	b672      	cpsid	i
10002ce6:	4a58      	ldr	r2, [pc, #352]	; (10002e48 <irq_remove_handler+0x178>)
10002ce8:	6813      	ldr	r3, [r2, #0]
10002cea:	2b00      	cmp	r3, #0
10002cec:	d0fc      	beq.n	10002ce8 <irq_remove_handler+0x18>
10002cee:	f3bf 8f5f 	dmb	sy
10002cf2:	4b56      	ldr	r3, [pc, #344]	; (10002e4c <irq_remove_handler+0x17c>)
10002cf4:	689a      	ldr	r2, [r3, #8]
10002cf6:	0003      	movs	r3, r0
10002cf8:	3310      	adds	r3, #16
10002cfa:	009f      	lsls	r7, r3, #2
10002cfc:	59d5      	ldr	r5, [r2, r7]
10002cfe:	4a54      	ldr	r2, [pc, #336]	; (10002e50 <irq_remove_handler+0x180>)
10002d00:	4690      	mov	r8, r2
10002d02:	4295      	cmp	r5, r2
10002d04:	d032      	beq.n	10002d6c <irq_remove_handler+0x9c>
10002d06:	42a5      	cmp	r5, r4
10002d08:	d043      	beq.n	10002d92 <irq_remove_handler+0xc2>
10002d0a:	4e52      	ldr	r6, [pc, #328]	; (10002e54 <irq_remove_handler+0x184>)
10002d0c:	1baa      	subs	r2, r5, r6
10002d0e:	2a2f      	cmp	r2, #47	; 0x2f
10002d10:	d82c      	bhi.n	10002d6c <irq_remove_handler+0x9c>
10002d12:	2201      	movs	r2, #1
10002d14:	4082      	lsls	r2, r0
10002d16:	4692      	mov	sl, r2
10002d18:	4651      	mov	r1, sl
10002d1a:	4a4f      	ldr	r2, [pc, #316]	; (10002e58 <irq_remove_handler+0x188>)
10002d1c:	6812      	ldr	r2, [r2, #0]
10002d1e:	4011      	ands	r1, r2
10002d20:	9101      	str	r1, [sp, #4]
10002d22:	4651      	mov	r1, sl
10002d24:	4a4d      	ldr	r2, [pc, #308]	; (10002e5c <irq_remove_handler+0x18c>)
10002d26:	6011      	str	r1, [r2, #0]
10002d28:	f3bf 8f5f 	dmb	sy
10002d2c:	f3ef 8205 	mrs	r2, IPSR
10002d30:	4693      	mov	fp, r2
10002d32:	2a00      	cmp	r2, #0
10002d34:	d133      	bne.n	10002d9e <irq_remove_handler+0xce>
10002d36:	2301      	movs	r3, #1
10002d38:	002a      	movs	r2, r5
10002d3a:	439a      	bics	r2, r3
10002d3c:	6893      	ldr	r3, [r2, #8]
10002d3e:	429c      	cmp	r4, r3
10002d40:	d108      	bne.n	10002d54 <irq_remove_handler+0x84>
10002d42:	e077      	b.n	10002e34 <irq_remove_handler+0x164>
10002d44:	004b      	lsls	r3, r1, #1
10002d46:	185b      	adds	r3, r3, r1
10002d48:	009b      	lsls	r3, r3, #2
10002d4a:	18f3      	adds	r3, r6, r3
10002d4c:	6899      	ldr	r1, [r3, #8]
10002d4e:	42a1      	cmp	r1, r4
10002d50:	d02a      	beq.n	10002da8 <irq_remove_handler+0xd8>
10002d52:	001a      	movs	r2, r3
10002d54:	2106      	movs	r1, #6
10002d56:	5651      	ldrsb	r1, [r2, r1]
10002d58:	2900      	cmp	r1, #0
10002d5a:	daf3      	bge.n	10002d44 <irq_remove_handler+0x74>
10002d5c:	9b01      	ldr	r3, [sp, #4]
10002d5e:	2b00      	cmp	r3, #0
10002d60:	d019      	beq.n	10002d96 <irq_remove_handler+0xc6>
10002d62:	4652      	mov	r2, sl
10002d64:	4b3e      	ldr	r3, [pc, #248]	; (10002e60 <irq_remove_handler+0x190>)
10002d66:	601a      	str	r2, [r3, #0]
10002d68:	4b3b      	ldr	r3, [pc, #236]	; (10002e58 <irq_remove_handler+0x188>)
10002d6a:	601a      	str	r2, [r3, #0]
10002d6c:	4b37      	ldr	r3, [pc, #220]	; (10002e4c <irq_remove_handler+0x17c>)
10002d6e:	689b      	ldr	r3, [r3, #8]
10002d70:	51dd      	str	r5, [r3, r7]
10002d72:	f3bf 8f5f 	dmb	sy
10002d76:	f3bf 8f5f 	dmb	sy
10002d7a:	2200      	movs	r2, #0
10002d7c:	4b32      	ldr	r3, [pc, #200]	; (10002e48 <irq_remove_handler+0x178>)
10002d7e:	601a      	str	r2, [r3, #0]
10002d80:	f389 8810 	msr	PRIMASK, r9
10002d84:	b003      	add	sp, #12
10002d86:	bcf0      	pop	{r4, r5, r6, r7}
10002d88:	46bb      	mov	fp, r7
10002d8a:	46b2      	mov	sl, r6
10002d8c:	46a9      	mov	r9, r5
10002d8e:	46a0      	mov	r8, r4
10002d90:	bdf0      	pop	{r4, r5, r6, r7, pc}
10002d92:	0015      	movs	r5, r2
10002d94:	e7ea      	b.n	10002d6c <irq_remove_handler+0x9c>
10002d96:	4652      	mov	r2, sl
10002d98:	4b30      	ldr	r3, [pc, #192]	; (10002e5c <irq_remove_handler+0x18c>)
10002d9a:	601a      	str	r2, [r3, #0]
10002d9c:	e7e6      	b.n	10002d6c <irq_remove_handler+0x9c>
10002d9e:	4293      	cmp	r3, r2
10002da0:	d0c9      	beq.n	10002d36 <irq_remove_handler+0x66>
10002da2:	f001 fa25 	bl	100041f0 <hard_assertion_failure>
10002da6:	e7c6      	b.n	10002d36 <irq_remove_handler+0x66>
10002da8:	2106      	movs	r1, #6
10002daa:	5659      	ldrsb	r1, [r3, r1]
10002dac:	2900      	cmp	r1, #0
10002dae:	db21      	blt.n	10002df4 <irq_remove_handler+0x124>
10002db0:	004a      	lsls	r2, r1, #1
10002db2:	1850      	adds	r0, r2, r1
10002db4:	0080      	lsls	r0, r0, #2
10002db6:	1834      	adds	r4, r6, r0
10002db8:	4680      	mov	r8, r0
10002dba:	68a0      	ldr	r0, [r4, #8]
10002dbc:	6098      	str	r0, [r3, #8]
10002dbe:	79e0      	ldrb	r0, [r4, #7]
10002dc0:	71d8      	strb	r0, [r3, #7]
10002dc2:	2006      	movs	r0, #6
10002dc4:	5620      	ldrsb	r0, [r4, r0]
10002dc6:	7198      	strb	r0, [r3, #6]
10002dc8:	2800      	cmp	r0, #0
10002dca:	db24      	blt.n	10002e16 <irq_remove_handler+0x146>
10002dcc:	88a4      	ldrh	r4, [r4, #4]
10002dce:	1af0      	subs	r0, r6, r3
10002dd0:	0564      	lsls	r4, r4, #21
10002dd2:	1524      	asrs	r4, r4, #20
10002dd4:	4444      	add	r4, r8
10002dd6:	1900      	adds	r0, r0, r4
10002dd8:	24e0      	movs	r4, #224	; 0xe0
10002dda:	0500      	lsls	r0, r0, #20
10002ddc:	0d40      	lsrs	r0, r0, #21
10002dde:	0224      	lsls	r4, r4, #8
10002de0:	4320      	orrs	r0, r4
10002de2:	8098      	strh	r0, [r3, #4]
10002de4:	1852      	adds	r2, r2, r1
10002de6:	4b1f      	ldr	r3, [pc, #124]	; (10002e64 <irq_remove_handler+0x194>)
10002de8:	0092      	lsls	r2, r2, #2
10002dea:	18b6      	adds	r6, r6, r2
10002dec:	781a      	ldrb	r2, [r3, #0]
10002dee:	7019      	strb	r1, [r3, #0]
10002df0:	71b2      	strb	r2, [r6, #6]
10002df2:	e7b3      	b.n	10002d5c <irq_remove_handler+0x8c>
10002df4:	4659      	mov	r1, fp
10002df6:	2900      	cmp	r1, #0
10002df8:	d10f      	bne.n	10002e1a <irq_remove_handler+0x14a>
10002dfa:	31ff      	adds	r1, #255	; 0xff
10002dfc:	7191      	strb	r1, [r2, #6]
10002dfe:	491a      	ldr	r1, [pc, #104]	; (10002e68 <irq_remove_handler+0x198>)
10002e00:	8091      	strh	r1, [r2, #4]
10002e02:	4918      	ldr	r1, [pc, #96]	; (10002e64 <irq_remove_handler+0x194>)
10002e04:	780a      	ldrb	r2, [r1, #0]
10002e06:	719a      	strb	r2, [r3, #6]
10002e08:	4a18      	ldr	r2, [pc, #96]	; (10002e6c <irq_remove_handler+0x19c>)
10002e0a:	1b9b      	subs	r3, r3, r6
10002e0c:	415b      	adcs	r3, r3
10002e0e:	435a      	muls	r2, r3
10002e10:	0d12      	lsrs	r2, r2, #20
10002e12:	700a      	strb	r2, [r1, #0]
10002e14:	e7a2      	b.n	10002d5c <irq_remove_handler+0x8c>
10002e16:	4816      	ldr	r0, [pc, #88]	; (10002e70 <irq_remove_handler+0x1a0>)
10002e18:	e7e3      	b.n	10002de2 <irq_remove_handler+0x112>
10002e1a:	4a16      	ldr	r2, [pc, #88]	; (10002e74 <irq_remove_handler+0x1a4>)
10002e1c:	4916      	ldr	r1, [pc, #88]	; (10002e78 <irq_remove_handler+0x1a8>)
10002e1e:	1ad2      	subs	r2, r2, r3
10002e20:	3a08      	subs	r2, #8
10002e22:	0250      	lsls	r0, r2, #9
10002e24:	0d40      	lsrs	r0, r0, #21
10002e26:	4301      	orrs	r1, r0
10002e28:	8099      	strh	r1, [r3, #4]
10002e2a:	4914      	ldr	r1, [pc, #80]	; (10002e7c <irq_remove_handler+0x1ac>)
10002e2c:	0852      	lsrs	r2, r2, #1
10002e2e:	430a      	orrs	r2, r1
10002e30:	80da      	strh	r2, [r3, #6]
10002e32:	e793      	b.n	10002d5c <irq_remove_handler+0x8c>
10002e34:	2106      	movs	r1, #6
10002e36:	5651      	ldrsb	r1, [r2, r1]
10002e38:	0013      	movs	r3, r2
10002e3a:	2900      	cmp	r1, #0
10002e3c:	dab8      	bge.n	10002db0 <irq_remove_handler+0xe0>
10002e3e:	465a      	mov	r2, fp
10002e40:	2a00      	cmp	r2, #0
10002e42:	d1ea      	bne.n	10002e1a <irq_remove_handler+0x14a>
10002e44:	4645      	mov	r5, r8
10002e46:	e7dc      	b.n	10002e02 <irq_remove_handler+0x132>
10002e48:	d0000124 	.word	0xd0000124
10002e4c:	e000ed00 	.word	0xe000ed00
10002e50:	100001cd 	.word	0x100001cd
10002e54:	200001ac 	.word	0x200001ac
10002e58:	e000e100 	.word	0xe000e100
10002e5c:	e000e180 	.word	0xe000e180
10002e60:	e000e280 	.word	0xe000e280
10002e64:	20000655 	.word	0x20000655
10002e68:	ffffbd01 	.word	0xffffbd01
10002e6c:	0000aaaa 	.word	0x0000aaaa
10002e70:	0000bd01 	.word	0x0000bd01
10002e74:	200001e6 	.word	0x200001e6
10002e78:	fffff000 	.word	0xfffff000
10002e7c:	fffff800 	.word	0xfffff800

10002e80 <irq_add_tail_to_free_list>:
10002e80:	b570      	push	{r4, r5, r6, lr}
10002e82:	f3ef 8105 	mrs	r1, IPSR
10002e86:	2401      	movs	r4, #1
10002e88:	4304      	orrs	r4, r0
10002e8a:	f3ef 8c10 	mrs	ip, PRIMASK
10002e8e:	b672      	cpsid	i
10002e90:	4a21      	ldr	r2, [pc, #132]	; (10002f18 <irq_add_tail_to_free_list+0x98>)
10002e92:	6813      	ldr	r3, [r2, #0]
10002e94:	2b00      	cmp	r3, #0
10002e96:	d0fc      	beq.n	10002e92 <irq_add_tail_to_free_list+0x12>
10002e98:	f3bf 8f5f 	dmb	sy
10002e9c:	4b1f      	ldr	r3, [pc, #124]	; (10002f1c <irq_add_tail_to_free_list+0x9c>)
10002e9e:	0005      	movs	r5, r0
10002ea0:	4a1f      	ldr	r2, [pc, #124]	; (10002f20 <irq_add_tail_to_free_list+0xa0>)
10002ea2:	1aed      	subs	r5, r5, r3
10002ea4:	416d      	adcs	r5, r5
10002ea6:	436a      	muls	r2, r5
10002ea8:	0d12      	lsrs	r2, r2, #20
10002eaa:	4d1e      	ldr	r5, [pc, #120]	; (10002f24 <irq_add_tail_to_free_list+0xa4>)
10002eac:	0089      	lsls	r1, r1, #2
10002eae:	68ae      	ldr	r6, [r5, #8]
10002eb0:	b252      	sxtb	r2, r2
10002eb2:	5876      	ldr	r6, [r6, r1]
10002eb4:	42a6      	cmp	r6, r4
10002eb6:	d01c      	beq.n	10002ef2 <irq_add_tail_to_free_list+0x72>
10002eb8:	2106      	movs	r1, #6
10002eba:	5659      	ldrsb	r1, [r3, r1]
10002ebc:	4291      	cmp	r1, r2
10002ebe:	d01c      	beq.n	10002efa <irq_add_tail_to_free_list+0x7a>
10002ec0:	2112      	movs	r1, #18
10002ec2:	5659      	ldrsb	r1, [r3, r1]
10002ec4:	4291      	cmp	r1, r2
10002ec6:	d022      	beq.n	10002f0e <irq_add_tail_to_free_list+0x8e>
10002ec8:	211e      	movs	r1, #30
10002eca:	5659      	ldrsb	r1, [r3, r1]
10002ecc:	4291      	cmp	r1, r2
10002ece:	d020      	beq.n	10002f12 <irq_add_tail_to_free_list+0x92>
10002ed0:	212a      	movs	r1, #42	; 0x2a
10002ed2:	5659      	ldrsb	r1, [r3, r1]
10002ed4:	2403      	movs	r4, #3
10002ed6:	4291      	cmp	r1, r2
10002ed8:	d010      	beq.n	10002efc <irq_add_tail_to_free_list+0x7c>
10002eda:	4b13      	ldr	r3, [pc, #76]	; (10002f28 <irq_add_tail_to_free_list+0xa8>)
10002edc:	7819      	ldrb	r1, [r3, #0]
10002ede:	701a      	strb	r2, [r3, #0]
10002ee0:	7181      	strb	r1, [r0, #6]
10002ee2:	f3bf 8f5f 	dmb	sy
10002ee6:	2200      	movs	r2, #0
10002ee8:	4b0b      	ldr	r3, [pc, #44]	; (10002f18 <irq_add_tail_to_free_list+0x98>)
10002eea:	601a      	str	r2, [r3, #0]
10002eec:	f38c 8810 	msr	PRIMASK, ip
10002ef0:	bd70      	pop	{r4, r5, r6, pc}
10002ef2:	68ab      	ldr	r3, [r5, #8]
10002ef4:	4c0d      	ldr	r4, [pc, #52]	; (10002f2c <irq_add_tail_to_free_list+0xac>)
10002ef6:	505c      	str	r4, [r3, r1]
10002ef8:	e7ef      	b.n	10002eda <irq_add_tail_to_free_list+0x5a>
10002efa:	2400      	movs	r4, #0
10002efc:	0061      	lsls	r1, r4, #1
10002efe:	1909      	adds	r1, r1, r4
10002f00:	0089      	lsls	r1, r1, #2
10002f02:	185b      	adds	r3, r3, r1
10002f04:	21ff      	movs	r1, #255	; 0xff
10002f06:	7199      	strb	r1, [r3, #6]
10002f08:	4909      	ldr	r1, [pc, #36]	; (10002f30 <irq_add_tail_to_free_list+0xb0>)
10002f0a:	8099      	strh	r1, [r3, #4]
10002f0c:	e7e5      	b.n	10002eda <irq_add_tail_to_free_list+0x5a>
10002f0e:	2401      	movs	r4, #1
10002f10:	e7f4      	b.n	10002efc <irq_add_tail_to_free_list+0x7c>
10002f12:	2402      	movs	r4, #2
10002f14:	e7f2      	b.n	10002efc <irq_add_tail_to_free_list+0x7c>
10002f16:	46c0      	nop			; (mov r8, r8)
10002f18:	d0000124 	.word	0xd0000124
10002f1c:	200001ac 	.word	0x200001ac
10002f20:	0000aaaa 	.word	0x0000aaaa
10002f24:	e000ed00 	.word	0xe000ed00
10002f28:	20000655 	.word	0x20000655
10002f2c:	100001cd 	.word	0x100001cd
10002f30:	ffffbd01 	.word	0xffffbd01

10002f34 <irq_init_priorities>:
10002f34:	4b05      	ldr	r3, [pc, #20]	; (10002f4c <irq_init_priorities+0x18>)
10002f36:	4a06      	ldr	r2, [pc, #24]	; (10002f50 <irq_init_priorities+0x1c>)
10002f38:	6013      	str	r3, [r2, #0]
10002f3a:	4a06      	ldr	r2, [pc, #24]	; (10002f54 <irq_init_priorities+0x20>)
10002f3c:	6013      	str	r3, [r2, #0]
10002f3e:	6053      	str	r3, [r2, #4]
10002f40:	6093      	str	r3, [r2, #8]
10002f42:	60d3      	str	r3, [r2, #12]
10002f44:	6113      	str	r3, [r2, #16]
10002f46:	6153      	str	r3, [r2, #20]
10002f48:	6193      	str	r3, [r2, #24]
10002f4a:	4770      	bx	lr
10002f4c:	80808080 	.word	0x80808080
10002f50:	e000e400 	.word	0xe000e400
10002f54:	e000e404 	.word	0xe000e404

10002f58 <lock_init>:
10002f58:	4b02      	ldr	r3, [pc, #8]	; (10002f64 <lock_init+0xc>)
10002f5a:	469c      	mov	ip, r3
10002f5c:	4461      	add	r1, ip
10002f5e:	0089      	lsls	r1, r1, #2
10002f60:	6001      	str	r1, [r0, #0]
10002f62:	4770      	bx	lr
10002f64:	34000040 	.word	0x34000040

10002f68 <mutex_init>:
10002f68:	b510      	push	{r4, lr}
10002f6a:	0004      	movs	r4, r0
10002f6c:	f7ff fe60 	bl	10002c30 <next_striped_spin_lock_num>
10002f70:	0001      	movs	r1, r0
10002f72:	0020      	movs	r0, r4
10002f74:	f7ff fff0 	bl	10002f58 <lock_init>
10002f78:	23ff      	movs	r3, #255	; 0xff
10002f7a:	7123      	strb	r3, [r4, #4]
10002f7c:	f3bf 8f5f 	dmb	sy
10002f80:	bd10      	pop	{r4, pc}
10002f82:	46c0      	nop			; (mov r8, r8)

10002f84 <recursive_mutex_init>:
10002f84:	b510      	push	{r4, lr}
10002f86:	0004      	movs	r4, r0
10002f88:	f7ff fe52 	bl	10002c30 <next_striped_spin_lock_num>
10002f8c:	0001      	movs	r1, r0
10002f8e:	0020      	movs	r0, r4
10002f90:	f7ff ffe2 	bl	10002f58 <lock_init>
10002f94:	23ff      	movs	r3, #255	; 0xff
10002f96:	80a3      	strh	r3, [r4, #4]
10002f98:	f3bf 8f5f 	dmb	sy
10002f9c:	bd10      	pop	{r4, pc}
10002f9e:	46c0      	nop			; (mov r8, r8)

10002fa0 <timer_pool_entry_comparator>:
10002fa0:	6883      	ldr	r3, [r0, #8]
10002fa2:	480b      	ldr	r0, [pc, #44]	; (10002fd0 <timer_pool_entry_comparator+0x30>)
10002fa4:	b510      	push	{r4, lr}
10002fa6:	4684      	mov	ip, r0
10002fa8:	4461      	add	r1, ip
10002faa:	4462      	add	r2, ip
10002fac:	0109      	lsls	r1, r1, #4
10002fae:	0112      	lsls	r2, r2, #4
10002fb0:	189a      	adds	r2, r3, r2
10002fb2:	1859      	adds	r1, r3, r1
10002fb4:	6854      	ldr	r4, [r2, #4]
10002fb6:	684b      	ldr	r3, [r1, #4]
10002fb8:	2001      	movs	r0, #1
10002fba:	429c      	cmp	r4, r3
10002fbc:	d801      	bhi.n	10002fc2 <timer_pool_entry_comparator+0x22>
10002fbe:	d002      	beq.n	10002fc6 <timer_pool_entry_comparator+0x26>
10002fc0:	2000      	movs	r0, #0
10002fc2:	b2c0      	uxtb	r0, r0
10002fc4:	bd10      	pop	{r4, pc}
10002fc6:	6812      	ldr	r2, [r2, #0]
10002fc8:	680b      	ldr	r3, [r1, #0]
10002fca:	429a      	cmp	r2, r3
10002fcc:	d8f9      	bhi.n	10002fc2 <timer_pool_entry_comparator+0x22>
10002fce:	e7f7      	b.n	10002fc0 <timer_pool_entry_comparator+0x20>
10002fd0:	0fffffff 	.word	0x0fffffff

10002fd4 <sleep_until_callback>:
10002fd4:	4b0a      	ldr	r3, [pc, #40]	; (10003000 <sleep_until_callback+0x2c>)
10002fd6:	6819      	ldr	r1, [r3, #0]
10002fd8:	f3ef 8010 	mrs	r0, PRIMASK
10002fdc:	b672      	cpsid	i
10002fde:	680a      	ldr	r2, [r1, #0]
10002fe0:	2a00      	cmp	r2, #0
10002fe2:	d0fc      	beq.n	10002fde <sleep_until_callback+0xa>
10002fe4:	f3bf 8f5f 	dmb	sy
10002fe8:	681b      	ldr	r3, [r3, #0]
10002fea:	f3bf 8f5f 	dmb	sy
10002fee:	2200      	movs	r2, #0
10002ff0:	601a      	str	r2, [r3, #0]
10002ff2:	f380 8810 	msr	PRIMASK, r0
10002ff6:	bf40      	sev
10002ff8:	2000      	movs	r0, #0
10002ffa:	2100      	movs	r1, #0
10002ffc:	4770      	bx	lr
10002ffe:	46c0      	nop			; (mov r8, r8)
10003000:	20000630 	.word	0x20000630

10003004 <add_alarm_under_lock.isra.0>:
10003004:	b5f8      	push	{r3, r4, r5, r6, r7, lr}
10003006:	4657      	mov	r7, sl
10003008:	464e      	mov	r6, r9
1000300a:	4645      	mov	r5, r8
1000300c:	46de      	mov	lr, fp
1000300e:	b5e0      	push	{r5, r6, r7, lr}
10003010:	4699      	mov	r9, r3
10003012:	ab0c      	add	r3, sp, #48	; 0x30
10003014:	781c      	ldrb	r4, [r3, #0]
10003016:	ab0d      	add	r3, sp, #52	; 0x34
10003018:	781b      	ldrb	r3, [r3, #0]
1000301a:	0006      	movs	r6, r0
1000301c:	4690      	mov	r8, r2
1000301e:	469a      	mov	sl, r3
10003020:	6807      	ldr	r7, [r0, #0]
10003022:	2c00      	cmp	r4, #0
10003024:	d111      	bne.n	1000304a <add_alarm_under_lock.isra.0+0x46>
10003026:	7bbc      	ldrb	r4, [r7, #14]
10003028:	2c00      	cmp	r4, #0
1000302a:	d042      	beq.n	100030b2 <add_alarm_under_lock.isra.0+0xae>
1000302c:	0065      	lsls	r5, r4, #1
1000302e:	683b      	ldr	r3, [r7, #0]
10003030:	192d      	adds	r5, r5, r4
10003032:	3d03      	subs	r5, #3
10003034:	1959      	adds	r1, r3, r5
10003036:	784b      	ldrb	r3, [r1, #1]
10003038:	73bb      	strb	r3, [r7, #14]
1000303a:	2b00      	cmp	r3, #0
1000303c:	d100      	bne.n	10003040 <add_alarm_under_lock.isra.0+0x3c>
1000303e:	73fb      	strb	r3, [r7, #15]
10003040:	2300      	movs	r3, #0
10003042:	708b      	strb	r3, [r1, #2]
10003044:	704b      	strb	r3, [r1, #1]
10003046:	700b      	strb	r3, [r1, #0]
10003048:	e004      	b.n	10003054 <add_alarm_under_lock.isra.0+0x50>
1000304a:	0065      	lsls	r5, r4, #1
1000304c:	683b      	ldr	r3, [r7, #0]
1000304e:	192d      	adds	r5, r5, r4
10003050:	3d03      	subs	r5, #3
10003052:	1959      	adds	r1, r3, r5
10003054:	68b2      	ldr	r2, [r6, #8]
10003056:	4b2a      	ldr	r3, [pc, #168]	; (10003100 <add_alarm_under_lock.isra.0+0xfc>)
10003058:	4694      	mov	ip, r2
1000305a:	4642      	mov	r2, r8
1000305c:	18e3      	adds	r3, r4, r3
1000305e:	011b      	lsls	r3, r3, #4
10003060:	4463      	add	r3, ip
10003062:	601a      	str	r2, [r3, #0]
10003064:	464a      	mov	r2, r9
10003066:	605a      	str	r2, [r3, #4]
10003068:	9a0a      	ldr	r2, [sp, #40]	; 0x28
1000306a:	609a      	str	r2, [r3, #8]
1000306c:	9a0b      	ldr	r2, [sp, #44]	; 0x2c
1000306e:	60da      	str	r2, [r3, #12]
10003070:	2300      	movs	r3, #0
10003072:	708b      	strb	r3, [r1, #2]
10003074:	704b      	strb	r3, [r1, #1]
10003076:	700b      	strb	r3, [r1, #0]
10003078:	7b7b      	ldrb	r3, [r7, #13]
1000307a:	469b      	mov	fp, r3
1000307c:	2b00      	cmp	r3, #0
1000307e:	d02b      	beq.n	100030d8 <add_alarm_under_lock.isra.0+0xd4>
10003080:	0022      	movs	r2, r4
10003082:	4659      	mov	r1, fp
10003084:	68b8      	ldr	r0, [r7, #8]
10003086:	687b      	ldr	r3, [r7, #4]
10003088:	4798      	blx	r3
1000308a:	683a      	ldr	r2, [r7, #0]
1000308c:	2800      	cmp	r0, #0
1000308e:	d016      	beq.n	100030be <add_alarm_under_lock.isra.0+0xba>
10003090:	465b      	mov	r3, fp
10003092:	4658      	mov	r0, fp
10003094:	005b      	lsls	r3, r3, #1
10003096:	445b      	add	r3, fp
10003098:	1955      	adds	r5, r2, r5
1000309a:	3b03      	subs	r3, #3
1000309c:	70a8      	strb	r0, [r5, #2]
1000309e:	18d1      	adds	r1, r2, r3
100030a0:	5cd3      	ldrb	r3, [r2, r3]
100030a2:	2b00      	cmp	r3, #0
100030a4:	d000      	beq.n	100030a8 <add_alarm_under_lock.isra.0+0xa4>
100030a6:	706b      	strb	r3, [r5, #1]
100030a8:	465b      	mov	r3, fp
100030aa:	700c      	strb	r4, [r1, #0]
100030ac:	737b      	strb	r3, [r7, #13]
100030ae:	45a3      	cmp	fp, r4
100030b0:	d013      	beq.n	100030da <add_alarm_under_lock.isra.0+0xd6>
100030b2:	bcf0      	pop	{r4, r5, r6, r7}
100030b4:	46bb      	mov	fp, r7
100030b6:	46b2      	mov	sl, r6
100030b8:	46a9      	mov	r9, r5
100030ba:	46a0      	mov	r8, r4
100030bc:	bdf8      	pop	{r3, r4, r5, r6, r7, pc}
100030be:	465b      	mov	r3, fp
100030c0:	005b      	lsls	r3, r3, #1
100030c2:	445b      	add	r3, fp
100030c4:	3b03      	subs	r3, #3
100030c6:	18d3      	adds	r3, r2, r3
100030c8:	709c      	strb	r4, [r3, #2]
100030ca:	1951      	adds	r1, r2, r5
100030cc:	5d52      	ldrb	r2, [r2, r5]
100030ce:	2a00      	cmp	r2, #0
100030d0:	d000      	beq.n	100030d4 <add_alarm_under_lock.isra.0+0xd0>
100030d2:	705a      	strb	r2, [r3, #1]
100030d4:	465b      	mov	r3, fp
100030d6:	700b      	strb	r3, [r1, #0]
100030d8:	737c      	strb	r4, [r7, #13]
100030da:	4642      	mov	r2, r8
100030dc:	464b      	mov	r3, r9
100030de:	7d30      	ldrb	r0, [r6, #20]
100030e0:	f000 fbba 	bl	10003858 <hardware_alarm_set_target>
100030e4:	1e05      	subs	r5, r0, #0
100030e6:	d006      	beq.n	100030f6 <add_alarm_under_lock.isra.0+0xf2>
100030e8:	4653      	mov	r3, sl
100030ea:	2b00      	cmp	r3, #0
100030ec:	d103      	bne.n	100030f6 <add_alarm_under_lock.isra.0+0xf2>
100030ee:	0021      	movs	r1, r4
100030f0:	6830      	ldr	r0, [r6, #0]
100030f2:	f000 fdd5 	bl	10003ca0 <ph_remove_and_free_node>
100030f6:	9b0e      	ldr	r3, [sp, #56]	; 0x38
100030f8:	2b00      	cmp	r3, #0
100030fa:	d0da      	beq.n	100030b2 <add_alarm_under_lock.isra.0+0xae>
100030fc:	701d      	strb	r5, [r3, #0]
100030fe:	e7d8      	b.n	100030b2 <add_alarm_under_lock.isra.0+0xae>
10003100:	0fffffff 	.word	0x0fffffff

10003104 <alarm_pool_alarm_callback>:
10003104:	b5f0      	push	{r4, r5, r6, r7, lr}
10003106:	46de      	mov	lr, fp
10003108:	4657      	mov	r7, sl
1000310a:	464e      	mov	r6, r9
1000310c:	4645      	mov	r5, r8
1000310e:	2300      	movs	r3, #0
10003110:	b5e0      	push	{r5, r6, r7, lr}
10003112:	b08b      	sub	sp, #44	; 0x2c
10003114:	9308      	str	r3, [sp, #32]
10003116:	4b67      	ldr	r3, [pc, #412]	; (100032b4 <alarm_pool_alarm_callback+0x1b0>)
10003118:	0082      	lsls	r2, r0, #2
1000311a:	58d4      	ldr	r4, [r2, r3]
1000311c:	2300      	movs	r3, #0
1000311e:	469b      	mov	fp, r3
10003120:	9009      	str	r0, [sp, #36]	; 0x24
10003122:	f000 fb0f 	bl	10003744 <time_us_64>
10003126:	6862      	ldr	r2, [r4, #4]
10003128:	0006      	movs	r6, r0
1000312a:	000f      	movs	r7, r1
1000312c:	f3ef 8510 	mrs	r5, PRIMASK
10003130:	b672      	cpsid	i
10003132:	6813      	ldr	r3, [r2, #0]
10003134:	2b00      	cmp	r3, #0
10003136:	d0fc      	beq.n	10003132 <alarm_pool_alarm_callback+0x2e>
10003138:	f3bf 8f5f 	dmb	sy
1000313c:	6823      	ldr	r3, [r4, #0]
1000313e:	469c      	mov	ip, r3
10003140:	7b5b      	ldrb	r3, [r3, #13]
10003142:	4699      	mov	r9, r3
10003144:	2b00      	cmp	r3, #0
10003146:	d100      	bne.n	1000314a <alarm_pool_alarm_callback+0x46>
10003148:	e069      	b.n	1000321e <alarm_pool_alarm_callback+0x11a>
1000314a:	68a2      	ldr	r2, [r4, #8]
1000314c:	4b5a      	ldr	r3, [pc, #360]	; (100032b8 <alarm_pool_alarm_callback+0x1b4>)
1000314e:	4690      	mov	r8, r2
10003150:	444b      	add	r3, r9
10003152:	011b      	lsls	r3, r3, #4
10003154:	4498      	add	r8, r3
10003156:	4643      	mov	r3, r8
10003158:	681a      	ldr	r2, [r3, #0]
1000315a:	685b      	ldr	r3, [r3, #4]
1000315c:	0010      	movs	r0, r2
1000315e:	0019      	movs	r1, r3
10003160:	1b80      	subs	r0, r0, r6
10003162:	41b9      	sbcs	r1, r7
10003164:	2900      	cmp	r1, #0
10003166:	dc00      	bgt.n	1000316a <alarm_pool_alarm_callback+0x66>
10003168:	e063      	b.n	10003232 <alarm_pool_alarm_callback+0x12e>
1000316a:	9809      	ldr	r0, [sp, #36]	; 0x24
1000316c:	f000 fb74 	bl	10003858 <hardware_alarm_set_target>
10003170:	2300      	movs	r3, #0
10003172:	2200      	movs	r2, #0
10003174:	4698      	mov	r8, r3
10003176:	2300      	movs	r3, #0
10003178:	9206      	str	r2, [sp, #24]
1000317a:	9307      	str	r3, [sp, #28]
1000317c:	2300      	movs	r3, #0
1000317e:	469a      	mov	sl, r3
10003180:	6863      	ldr	r3, [r4, #4]
10003182:	f3bf 8f5f 	dmb	sy
10003186:	465a      	mov	r2, fp
10003188:	601a      	str	r2, [r3, #0]
1000318a:	f385 8810 	msr	PRIMASK, r5
1000318e:	4653      	mov	r3, sl
10003190:	2b00      	cmp	r3, #0
10003192:	d108      	bne.n	100031a6 <alarm_pool_alarm_callback+0xa2>
10003194:	2800      	cmp	r0, #0
10003196:	d1c4      	bne.n	10003122 <alarm_pool_alarm_callback+0x1e>
10003198:	b00b      	add	sp, #44	; 0x2c
1000319a:	bcf0      	pop	{r4, r5, r6, r7}
1000319c:	46bb      	mov	fp, r7
1000319e:	46b2      	mov	sl, r6
100031a0:	46a9      	mov	r9, r5
100031a2:	46a0      	mov	r8, r4
100031a4:	bdf0      	pop	{r4, r5, r6, r7, pc}
100031a6:	9b08      	ldr	r3, [sp, #32]
100031a8:	4641      	mov	r1, r8
100031aa:	0218      	lsls	r0, r3, #8
100031ac:	464b      	mov	r3, r9
100031ae:	4318      	orrs	r0, r3
100031b0:	47d0      	blx	sl
100031b2:	6862      	ldr	r2, [r4, #4]
100031b4:	0006      	movs	r6, r0
100031b6:	000f      	movs	r7, r1
100031b8:	f3ef 8510 	mrs	r5, PRIMASK
100031bc:	b672      	cpsid	i
100031be:	6813      	ldr	r3, [r2, #0]
100031c0:	2b00      	cmp	r3, #0
100031c2:	d0fc      	beq.n	100031be <alarm_pool_alarm_callback+0xba>
100031c4:	f3bf 8f5f 	dmb	sy
100031c8:	2f00      	cmp	r7, #0
100031ca:	db50      	blt.n	1000326e <alarm_pool_alarm_callback+0x16a>
100031cc:	0033      	movs	r3, r6
100031ce:	433b      	orrs	r3, r7
100031d0:	d002      	beq.n	100031d8 <alarm_pool_alarm_callback+0xd4>
100031d2:	6923      	ldr	r3, [r4, #16]
100031d4:	2b00      	cmp	r3, #0
100031d6:	d161      	bne.n	1000329c <alarm_pool_alarm_callback+0x198>
100031d8:	6823      	ldr	r3, [r4, #0]
100031da:	7bd9      	ldrb	r1, [r3, #15]
100031dc:	2900      	cmp	r1, #0
100031de:	d007      	beq.n	100031f0 <alarm_pool_alarm_callback+0xec>
100031e0:	004a      	lsls	r2, r1, #1
100031e2:	1852      	adds	r2, r2, r1
100031e4:	6819      	ldr	r1, [r3, #0]
100031e6:	468c      	mov	ip, r1
100031e8:	4649      	mov	r1, r9
100031ea:	4462      	add	r2, ip
100031ec:	3a03      	subs	r2, #3
100031ee:	7051      	strb	r1, [r2, #1]
100031f0:	7b9a      	ldrb	r2, [r3, #14]
100031f2:	2a00      	cmp	r2, #0
100031f4:	d101      	bne.n	100031fa <alarm_pool_alarm_callback+0xf6>
100031f6:	464a      	mov	r2, r9
100031f8:	739a      	strb	r2, [r3, #14]
100031fa:	464a      	mov	r2, r9
100031fc:	73da      	strb	r2, [r3, #15]
100031fe:	464b      	mov	r3, r9
10003200:	68e1      	ldr	r1, [r4, #12]
10003202:	3b01      	subs	r3, #1
10003204:	5cca      	ldrb	r2, [r1, r3]
10003206:	3201      	adds	r2, #1
10003208:	54ca      	strb	r2, [r1, r3]
1000320a:	465b      	mov	r3, fp
1000320c:	6123      	str	r3, [r4, #16]
1000320e:	6863      	ldr	r3, [r4, #4]
10003210:	f3bf 8f5f 	dmb	sy
10003214:	465a      	mov	r2, fp
10003216:	601a      	str	r2, [r3, #0]
10003218:	f385 8810 	msr	PRIMASK, r5
1000321c:	e781      	b.n	10003122 <alarm_pool_alarm_callback+0x1e>
1000321e:	2300      	movs	r3, #0
10003220:	2200      	movs	r2, #0
10003222:	4698      	mov	r8, r3
10003224:	2300      	movs	r3, #0
10003226:	9206      	str	r2, [sp, #24]
10003228:	9307      	str	r3, [sp, #28]
1000322a:	2300      	movs	r3, #0
1000322c:	2000      	movs	r0, #0
1000322e:	469a      	mov	sl, r3
10003230:	e7a6      	b.n	10003180 <alarm_pool_alarm_callback+0x7c>
10003232:	2900      	cmp	r1, #0
10003234:	d102      	bne.n	1000323c <alarm_pool_alarm_callback+0x138>
10003236:	2800      	cmp	r0, #0
10003238:	d000      	beq.n	1000323c <alarm_pool_alarm_callback+0x138>
1000323a:	e796      	b.n	1000316a <alarm_pool_alarm_callback+0x66>
1000323c:	2100      	movs	r1, #0
1000323e:	4660      	mov	r0, ip
10003240:	f000 fcac 	bl	10003b9c <ph_remove_head>
10003244:	4643      	mov	r3, r8
10003246:	681a      	ldr	r2, [r3, #0]
10003248:	685b      	ldr	r3, [r3, #4]
1000324a:	9206      	str	r2, [sp, #24]
1000324c:	9307      	str	r3, [sp, #28]
1000324e:	4643      	mov	r3, r8
10003250:	689b      	ldr	r3, [r3, #8]
10003252:	469a      	mov	sl, r3
10003254:	4643      	mov	r3, r8
10003256:	68db      	ldr	r3, [r3, #12]
10003258:	4698      	mov	r8, r3
1000325a:	68e3      	ldr	r3, [r4, #12]
1000325c:	444b      	add	r3, r9
1000325e:	3b01      	subs	r3, #1
10003260:	781b      	ldrb	r3, [r3, #0]
10003262:	9308      	str	r3, [sp, #32]
10003264:	021b      	lsls	r3, r3, #8
10003266:	4303      	orrs	r3, r0
10003268:	6123      	str	r3, [r4, #16]
1000326a:	2000      	movs	r0, #0
1000326c:	e788      	b.n	10003180 <alarm_pool_alarm_callback+0x7c>
1000326e:	6923      	ldr	r3, [r4, #16]
10003270:	2b00      	cmp	r3, #0
10003272:	d0b1      	beq.n	100031d8 <alarm_pool_alarm_callback+0xd4>
10003274:	9a06      	ldr	r2, [sp, #24]
10003276:	9b07      	ldr	r3, [sp, #28]
10003278:	1b92      	subs	r2, r2, r6
1000327a:	41bb      	sbcs	r3, r7
1000327c:	2b00      	cmp	r3, #0
1000327e:	db15      	blt.n	100032ac <alarm_pool_alarm_callback+0x1a8>
10003280:	4659      	mov	r1, fp
10003282:	9104      	str	r1, [sp, #16]
10003284:	2101      	movs	r1, #1
10003286:	9103      	str	r1, [sp, #12]
10003288:	4649      	mov	r1, r9
1000328a:	9102      	str	r1, [sp, #8]
1000328c:	4641      	mov	r1, r8
1000328e:	9101      	str	r1, [sp, #4]
10003290:	4651      	mov	r1, sl
10003292:	0020      	movs	r0, r4
10003294:	9100      	str	r1, [sp, #0]
10003296:	f7ff feb5 	bl	10003004 <add_alarm_under_lock.isra.0>
1000329a:	e7b6      	b.n	1000320a <alarm_pool_alarm_callback+0x106>
1000329c:	f000 fa52 	bl	10003744 <time_us_64>
100032a0:	0032      	movs	r2, r6
100032a2:	003b      	movs	r3, r7
100032a4:	1812      	adds	r2, r2, r0
100032a6:	414b      	adcs	r3, r1
100032a8:	2b00      	cmp	r3, #0
100032aa:	dae9      	bge.n	10003280 <alarm_pool_alarm_callback+0x17c>
100032ac:	2201      	movs	r2, #1
100032ae:	4b03      	ldr	r3, [pc, #12]	; (100032bc <alarm_pool_alarm_callback+0x1b8>)
100032b0:	4252      	negs	r2, r2
100032b2:	e7e5      	b.n	10003280 <alarm_pool_alarm_callback+0x17c>
100032b4:	2000061c 	.word	0x2000061c
100032b8:	0fffffff 	.word	0x0fffffff
100032bc:	7fffffff 	.word	0x7fffffff

100032c0 <alarm_pool_init_default>:
100032c0:	b510      	push	{r4, lr}
100032c2:	4c14      	ldr	r4, [pc, #80]	; (10003314 <alarm_pool_init_default+0x54>)
100032c4:	6863      	ldr	r3, [r4, #4]
100032c6:	2b00      	cmp	r3, #0
100032c8:	d004      	beq.n	100032d4 <alarm_pool_init_default+0x14>
100032ca:	210a      	movs	r1, #10
100032cc:	4812      	ldr	r0, [pc, #72]	; (10003318 <alarm_pool_init_default+0x58>)
100032ce:	f7ff fe43 	bl	10002f58 <lock_init>
100032d2:	bd10      	pop	{r4, pc}
100032d4:	0023      	movs	r3, r4
100032d6:	4a11      	ldr	r2, [pc, #68]	; (1000331c <alarm_pool_init_default+0x5c>)
100032d8:	2110      	movs	r1, #16
100032da:	6820      	ldr	r0, [r4, #0]
100032dc:	f000 fb78 	bl	100039d0 <ph_post_alloc_init>
100032e0:	2003      	movs	r0, #3
100032e2:	f000 fa23 	bl	1000372c <hardware_alarm_claim>
100032e6:	2003      	movs	r0, #3
100032e8:	f000 fb20 	bl	1000392c <hardware_alarm_cancel>
100032ec:	2003      	movs	r0, #3
100032ee:	490c      	ldr	r1, [pc, #48]	; (10003320 <alarm_pool_init_default+0x60>)
100032f0:	f000 fa6c 	bl	100037cc <hardware_alarm_set_callback>
100032f4:	f7ff fc9c 	bl	10002c30 <next_striped_spin_lock_num>
100032f8:	4b0a      	ldr	r3, [pc, #40]	; (10003324 <alarm_pool_init_default+0x64>)
100032fa:	469c      	mov	ip, r3
100032fc:	2303      	movs	r3, #3
100032fe:	7523      	strb	r3, [r4, #20]
10003300:	23d0      	movs	r3, #208	; 0xd0
10003302:	061b      	lsls	r3, r3, #24
10003304:	681b      	ldr	r3, [r3, #0]
10003306:	4460      	add	r0, ip
10003308:	7563      	strb	r3, [r4, #21]
1000330a:	4b07      	ldr	r3, [pc, #28]	; (10003328 <alarm_pool_init_default+0x68>)
1000330c:	0080      	lsls	r0, r0, #2
1000330e:	6060      	str	r0, [r4, #4]
10003310:	60dc      	str	r4, [r3, #12]
10003312:	e7da      	b.n	100032ca <alarm_pool_init_default+0xa>
10003314:	200001f4 	.word	0x200001f4
10003318:	20000630 	.word	0x20000630
1000331c:	10002fa1 	.word	0x10002fa1
10003320:	10003105 	.word	0x10003105
10003324:	34000040 	.word	0x34000040
10003328:	2000061c 	.word	0x2000061c

1000332c <alarm_pool_add_alarm_at>:
1000332c:	b5f0      	push	{r4, r5, r6, r7, lr}
1000332e:	464e      	mov	r6, r9
10003330:	4645      	mov	r5, r8
10003332:	46de      	mov	lr, fp
10003334:	4657      	mov	r7, sl
10003336:	b5e0      	push	{r5, r6, r7, lr}
10003338:	b085      	sub	sp, #20
1000333a:	9301      	str	r3, [sp, #4]
1000333c:	ab10      	add	r3, sp, #64	; 0x40
1000333e:	781b      	ldrb	r3, [r3, #0]
10003340:	0006      	movs	r6, r0
10003342:	9303      	str	r3, [sp, #12]
10003344:	2300      	movs	r3, #0
10003346:	4699      	mov	r9, r3
10003348:	4698      	mov	r8, r3
1000334a:	9200      	str	r2, [sp, #0]
1000334c:	6872      	ldr	r2, [r6, #4]
1000334e:	f3ef 8b10 	mrs	fp, PRIMASK
10003352:	b672      	cpsid	i
10003354:	6813      	ldr	r3, [r2, #0]
10003356:	2b00      	cmp	r3, #0
10003358:	d0fc      	beq.n	10003354 <alarm_pool_add_alarm_at+0x28>
1000335a:	f3bf 8f5f 	dmb	sy
1000335e:	6835      	ldr	r5, [r6, #0]
10003360:	7bac      	ldrb	r4, [r5, #14]
10003362:	2c00      	cmp	r4, #0
10003364:	d03d      	beq.n	100033e2 <alarm_pool_add_alarm_at+0xb6>
10003366:	0067      	lsls	r7, r4, #1
10003368:	682b      	ldr	r3, [r5, #0]
1000336a:	193f      	adds	r7, r7, r4
1000336c:	3f03      	subs	r7, #3
1000336e:	19db      	adds	r3, r3, r7
10003370:	785a      	ldrb	r2, [r3, #1]
10003372:	73aa      	strb	r2, [r5, #14]
10003374:	2a00      	cmp	r2, #0
10003376:	d100      	bne.n	1000337a <alarm_pool_add_alarm_at+0x4e>
10003378:	73ea      	strb	r2, [r5, #15]
1000337a:	68b1      	ldr	r1, [r6, #8]
1000337c:	4a47      	ldr	r2, [pc, #284]	; (1000349c <alarm_pool_add_alarm_at+0x170>)
1000337e:	468c      	mov	ip, r1
10003380:	9800      	ldr	r0, [sp, #0]
10003382:	9901      	ldr	r1, [sp, #4]
10003384:	18a2      	adds	r2, r4, r2
10003386:	0112      	lsls	r2, r2, #4
10003388:	4462      	add	r2, ip
1000338a:	6010      	str	r0, [r2, #0]
1000338c:	6051      	str	r1, [r2, #4]
1000338e:	990e      	ldr	r1, [sp, #56]	; 0x38
10003390:	6091      	str	r1, [r2, #8]
10003392:	990f      	ldr	r1, [sp, #60]	; 0x3c
10003394:	60d1      	str	r1, [r2, #12]
10003396:	4642      	mov	r2, r8
10003398:	709a      	strb	r2, [r3, #2]
1000339a:	705a      	strb	r2, [r3, #1]
1000339c:	701a      	strb	r2, [r3, #0]
1000339e:	7b6b      	ldrb	r3, [r5, #13]
100033a0:	469a      	mov	sl, r3
100033a2:	2b00      	cmp	r3, #0
100033a4:	d067      	beq.n	10003476 <alarm_pool_add_alarm_at+0x14a>
100033a6:	0022      	movs	r2, r4
100033a8:	0019      	movs	r1, r3
100033aa:	68a8      	ldr	r0, [r5, #8]
100033ac:	686b      	ldr	r3, [r5, #4]
100033ae:	4798      	blx	r3
100033b0:	682a      	ldr	r2, [r5, #0]
100033b2:	2800      	cmp	r0, #0
100033b4:	d052      	beq.n	1000345c <alarm_pool_add_alarm_at+0x130>
100033b6:	4653      	mov	r3, sl
100033b8:	4650      	mov	r0, sl
100033ba:	005b      	lsls	r3, r3, #1
100033bc:	4453      	add	r3, sl
100033be:	19d7      	adds	r7, r2, r7
100033c0:	3b03      	subs	r3, #3
100033c2:	70b8      	strb	r0, [r7, #2]
100033c4:	18d1      	adds	r1, r2, r3
100033c6:	5cd3      	ldrb	r3, [r2, r3]
100033c8:	2b00      	cmp	r3, #0
100033ca:	d000      	beq.n	100033ce <alarm_pool_add_alarm_at+0xa2>
100033cc:	707b      	strb	r3, [r7, #1]
100033ce:	4653      	mov	r3, sl
100033d0:	700c      	strb	r4, [r1, #0]
100033d2:	736b      	strb	r3, [r5, #13]
100033d4:	4554      	cmp	r4, sl
100033d6:	d04f      	beq.n	10003478 <alarm_pool_add_alarm_at+0x14c>
100033d8:	68f3      	ldr	r3, [r6, #12]
100033da:	191b      	adds	r3, r3, r4
100033dc:	3b01      	subs	r3, #1
100033de:	7818      	ldrb	r0, [r3, #0]
100033e0:	e000      	b.n	100033e4 <alarm_pool_add_alarm_at+0xb8>
100033e2:	2000      	movs	r0, #0
100033e4:	6873      	ldr	r3, [r6, #4]
100033e6:	f3bf 8f5f 	dmb	sy
100033ea:	4642      	mov	r2, r8
100033ec:	601a      	str	r2, [r3, #0]
100033ee:	f38b 8810 	msr	PRIMASK, fp
100033f2:	2c00      	cmp	r4, #0
100033f4:	d04f      	beq.n	10003496 <alarm_pool_add_alarm_at+0x16a>
100033f6:	464b      	mov	r3, r9
100033f8:	2b00      	cmp	r3, #0
100033fa:	d108      	bne.n	1000340e <alarm_pool_add_alarm_at+0xe2>
100033fc:	0200      	lsls	r0, r0, #8
100033fe:	4320      	orrs	r0, r4
10003400:	b005      	add	sp, #20
10003402:	bcf0      	pop	{r4, r5, r6, r7}
10003404:	46bb      	mov	fp, r7
10003406:	46b2      	mov	sl, r6
10003408:	46a9      	mov	r9, r5
1000340a:	46a0      	mov	r8, r4
1000340c:	bdf0      	pop	{r4, r5, r6, r7, pc}
1000340e:	9b03      	ldr	r3, [sp, #12]
10003410:	2b00      	cmp	r3, #0
10003412:	d03e      	beq.n	10003492 <alarm_pool_add_alarm_at+0x166>
10003414:	9b0e      	ldr	r3, [sp, #56]	; 0x38
10003416:	2000      	movs	r0, #0
10003418:	990f      	ldr	r1, [sp, #60]	; 0x3c
1000341a:	4798      	blx	r3
1000341c:	0003      	movs	r3, r0
1000341e:	0004      	movs	r4, r0
10003420:	000d      	movs	r5, r1
10003422:	430b      	orrs	r3, r1
10003424:	d035      	beq.n	10003492 <alarm_pool_add_alarm_at+0x166>
10003426:	2900      	cmp	r1, #0
10003428:	da0a      	bge.n	10003440 <alarm_pool_add_alarm_at+0x114>
1000342a:	9a00      	ldr	r2, [sp, #0]
1000342c:	9b01      	ldr	r3, [sp, #4]
1000342e:	1b12      	subs	r2, r2, r4
10003430:	41ab      	sbcs	r3, r5
10003432:	9200      	str	r2, [sp, #0]
10003434:	9301      	str	r3, [sp, #4]
10003436:	2b00      	cmp	r3, #0
10003438:	db0a      	blt.n	10003450 <alarm_pool_add_alarm_at+0x124>
1000343a:	9b03      	ldr	r3, [sp, #12]
1000343c:	4699      	mov	r9, r3
1000343e:	e785      	b.n	1000334c <alarm_pool_add_alarm_at+0x20>
10003440:	f000 f980 	bl	10003744 <time_us_64>
10003444:	1824      	adds	r4, r4, r0
10003446:	414d      	adcs	r5, r1
10003448:	9400      	str	r4, [sp, #0]
1000344a:	9501      	str	r5, [sp, #4]
1000344c:	2d00      	cmp	r5, #0
1000344e:	daf4      	bge.n	1000343a <alarm_pool_add_alarm_at+0x10e>
10003450:	2301      	movs	r3, #1
10003452:	4c13      	ldr	r4, [pc, #76]	; (100034a0 <alarm_pool_add_alarm_at+0x174>)
10003454:	425b      	negs	r3, r3
10003456:	9300      	str	r3, [sp, #0]
10003458:	9401      	str	r4, [sp, #4]
1000345a:	e7ee      	b.n	1000343a <alarm_pool_add_alarm_at+0x10e>
1000345c:	4653      	mov	r3, sl
1000345e:	005b      	lsls	r3, r3, #1
10003460:	4453      	add	r3, sl
10003462:	3b03      	subs	r3, #3
10003464:	18d3      	adds	r3, r2, r3
10003466:	709c      	strb	r4, [r3, #2]
10003468:	19d1      	adds	r1, r2, r7
1000346a:	5dd2      	ldrb	r2, [r2, r7]
1000346c:	2a00      	cmp	r2, #0
1000346e:	d000      	beq.n	10003472 <alarm_pool_add_alarm_at+0x146>
10003470:	705a      	strb	r2, [r3, #1]
10003472:	4653      	mov	r3, sl
10003474:	700b      	strb	r3, [r1, #0]
10003476:	736c      	strb	r4, [r5, #13]
10003478:	7d30      	ldrb	r0, [r6, #20]
1000347a:	9a00      	ldr	r2, [sp, #0]
1000347c:	9b01      	ldr	r3, [sp, #4]
1000347e:	f000 f9eb 	bl	10003858 <hardware_alarm_set_target>
10003482:	4681      	mov	r9, r0
10003484:	2800      	cmp	r0, #0
10003486:	d0a7      	beq.n	100033d8 <alarm_pool_add_alarm_at+0xac>
10003488:	0021      	movs	r1, r4
1000348a:	6830      	ldr	r0, [r6, #0]
1000348c:	f000 fc08 	bl	10003ca0 <ph_remove_and_free_node>
10003490:	e7a2      	b.n	100033d8 <alarm_pool_add_alarm_at+0xac>
10003492:	2000      	movs	r0, #0
10003494:	e7b4      	b.n	10003400 <alarm_pool_add_alarm_at+0xd4>
10003496:	2001      	movs	r0, #1
10003498:	4240      	negs	r0, r0
1000349a:	e7b1      	b.n	10003400 <alarm_pool_add_alarm_at+0xd4>
1000349c:	0fffffff 	.word	0x0fffffff
100034a0:	7fffffff 	.word	0x7fffffff

100034a4 <sleep_until>:
100034a4:	b5f0      	push	{r4, r5, r6, r7, lr}
100034a6:	0004      	movs	r4, r0
100034a8:	000d      	movs	r5, r1
100034aa:	2606      	movs	r6, #6
100034ac:	4276      	negs	r6, r6
100034ae:	17f7      	asrs	r7, r6, #31
100034b0:	46c6      	mov	lr, r8
100034b2:	1936      	adds	r6, r6, r4
100034b4:	416f      	adcs	r7, r5
100034b6:	b500      	push	{lr}
100034b8:	b084      	sub	sp, #16
100034ba:	428f      	cmp	r7, r1
100034bc:	d814      	bhi.n	100034e8 <sleep_until+0x44>
100034be:	d011      	beq.n	100034e4 <sleep_until+0x40>
100034c0:	f000 f940 	bl	10003744 <time_us_64>
100034c4:	0032      	movs	r2, r6
100034c6:	003b      	movs	r3, r7
100034c8:	1a12      	subs	r2, r2, r0
100034ca:	418b      	sbcs	r3, r1
100034cc:	2b00      	cmp	r3, #0
100034ce:	dc15      	bgt.n	100034fc <sleep_until+0x58>
100034d0:	2b00      	cmp	r3, #0
100034d2:	d03e      	beq.n	10003552 <sleep_until+0xae>
100034d4:	0020      	movs	r0, r4
100034d6:	0029      	movs	r1, r5
100034d8:	f000 f968 	bl	100037ac <busy_wait_until>
100034dc:	b004      	add	sp, #16
100034de:	bc80      	pop	{r7}
100034e0:	46b8      	mov	r8, r7
100034e2:	bdf0      	pop	{r4, r5, r6, r7, pc}
100034e4:	4286      	cmp	r6, r0
100034e6:	d9eb      	bls.n	100034c0 <sleep_until+0x1c>
100034e8:	2600      	movs	r6, #0
100034ea:	2700      	movs	r7, #0
100034ec:	f000 f92a 	bl	10003744 <time_us_64>
100034f0:	0032      	movs	r2, r6
100034f2:	003b      	movs	r3, r7
100034f4:	1a12      	subs	r2, r2, r0
100034f6:	418b      	sbcs	r3, r1
100034f8:	2b00      	cmp	r3, #0
100034fa:	dde9      	ble.n	100034d0 <sleep_until+0x2c>
100034fc:	2300      	movs	r3, #0
100034fe:	9302      	str	r3, [sp, #8]
10003500:	9301      	str	r3, [sp, #4]
10003502:	4b15      	ldr	r3, [pc, #84]	; (10003558 <sleep_until+0xb4>)
10003504:	0032      	movs	r2, r6
10003506:	9300      	str	r3, [sp, #0]
10003508:	4814      	ldr	r0, [pc, #80]	; (1000355c <sleep_until+0xb8>)
1000350a:	003b      	movs	r3, r7
1000350c:	f7ff ff0e 	bl	1000332c <alarm_pool_add_alarm_at>
10003510:	2800      	cmp	r0, #0
10003512:	dbdf      	blt.n	100034d4 <sleep_until+0x30>
10003514:	2300      	movs	r3, #0
10003516:	4698      	mov	r8, r3
10003518:	46bc      	mov	ip, r7
1000351a:	4a11      	ldr	r2, [pc, #68]	; (10003560 <sleep_until+0xbc>)
1000351c:	4f11      	ldr	r7, [pc, #68]	; (10003564 <sleep_until+0xc0>)
1000351e:	6a7b      	ldr	r3, [r7, #36]	; 0x24
10003520:	459c      	cmp	ip, r3
10003522:	d804      	bhi.n	1000352e <sleep_until+0x8a>
10003524:	6ab9      	ldr	r1, [r7, #40]	; 0x28
10003526:	428e      	cmp	r6, r1
10003528:	d9d4      	bls.n	100034d4 <sleep_until+0x30>
1000352a:	459c      	cmp	ip, r3
1000352c:	d1d2      	bne.n	100034d4 <sleep_until+0x30>
1000352e:	6811      	ldr	r1, [r2, #0]
10003530:	f3ef 8010 	mrs	r0, PRIMASK
10003534:	b672      	cpsid	i
10003536:	680b      	ldr	r3, [r1, #0]
10003538:	2b00      	cmp	r3, #0
1000353a:	d0fc      	beq.n	10003536 <sleep_until+0x92>
1000353c:	f3bf 8f5f 	dmb	sy
10003540:	6813      	ldr	r3, [r2, #0]
10003542:	f3bf 8f5f 	dmb	sy
10003546:	4641      	mov	r1, r8
10003548:	6019      	str	r1, [r3, #0]
1000354a:	f380 8810 	msr	PRIMASK, r0
1000354e:	bf20      	wfe
10003550:	e7e5      	b.n	1000351e <sleep_until+0x7a>
10003552:	2a00      	cmp	r2, #0
10003554:	d0be      	beq.n	100034d4 <sleep_until+0x30>
10003556:	e7d1      	b.n	100034fc <sleep_until+0x58>
10003558:	10002fd5 	.word	0x10002fd5
1000355c:	200001f4 	.word	0x200001f4
10003560:	20000630 	.word	0x20000630
10003564:	40054000 	.word	0x40054000

10003568 <sleep_ms>:
10003568:	b570      	push	{r4, r5, r6, lr}
1000356a:	0006      	movs	r6, r0
1000356c:	f000 f8ea 	bl	10003744 <time_us_64>
10003570:	22fa      	movs	r2, #250	; 0xfa
10003572:	0004      	movs	r4, r0
10003574:	000d      	movs	r5, r1
10003576:	2300      	movs	r3, #0
10003578:	0030      	movs	r0, r6
1000357a:	2100      	movs	r1, #0
1000357c:	0092      	lsls	r2, r2, #2
1000357e:	f002 ffa5 	bl	100064cc <__wrap___aeabi_lmul>
10003582:	1900      	adds	r0, r0, r4
10003584:	4169      	adcs	r1, r5
10003586:	2900      	cmp	r1, #0
10003588:	db02      	blt.n	10003590 <sleep_ms+0x28>
1000358a:	f7ff ff8b 	bl	100034a4 <sleep_until>
1000358e:	bd70      	pop	{r4, r5, r6, pc}
10003590:	2001      	movs	r0, #1
10003592:	4901      	ldr	r1, [pc, #4]	; (10003598 <sleep_ms+0x30>)
10003594:	4240      	negs	r0, r0
10003596:	e7f8      	b.n	1000358a <sleep_ms+0x22>
10003598:	7fffffff 	.word	0x7fffffff

1000359c <best_effort_wfe_or_timeout>:
1000359c:	b5f0      	push	{r4, r5, r6, r7, lr}
1000359e:	f3ef 8305 	mrs	r3, IPSR
100035a2:	46ce      	mov	lr, r9
100035a4:	4647      	mov	r7, r8
100035a6:	b580      	push	{r7, lr}
100035a8:	0005      	movs	r5, r0
100035aa:	000c      	movs	r4, r1
100035ac:	b085      	sub	sp, #20
100035ae:	2b00      	cmp	r3, #0
100035b0:	d012      	beq.n	100035d8 <best_effort_wfe_or_timeout+0x3c>
100035b2:	4a2c      	ldr	r2, [pc, #176]	; (10003664 <best_effort_wfe_or_timeout+0xc8>)
100035b4:	2000      	movs	r0, #0
100035b6:	6a53      	ldr	r3, [r2, #36]	; 0x24
100035b8:	429c      	cmp	r4, r3
100035ba:	d803      	bhi.n	100035c4 <best_effort_wfe_or_timeout+0x28>
100035bc:	6a92      	ldr	r2, [r2, #40]	; 0x28
100035be:	3001      	adds	r0, #1
100035c0:	42aa      	cmp	r2, r5
100035c2:	d304      	bcc.n	100035ce <best_effort_wfe_or_timeout+0x32>
100035c4:	b005      	add	sp, #20
100035c6:	bcc0      	pop	{r6, r7}
100035c8:	46b9      	mov	r9, r7
100035ca:	46b0      	mov	r8, r6
100035cc:	bdf0      	pop	{r4, r5, r6, r7, pc}
100035ce:	1ae0      	subs	r0, r4, r3
100035d0:	1e42      	subs	r2, r0, #1
100035d2:	4190      	sbcs	r0, r2
100035d4:	b2c0      	uxtb	r0, r0
100035d6:	e7f5      	b.n	100035c4 <best_effort_wfe_or_timeout+0x28>
100035d8:	4e23      	ldr	r6, [pc, #140]	; (10003668 <best_effort_wfe_or_timeout+0xcc>)
100035da:	9302      	str	r3, [sp, #8]
100035dc:	9301      	str	r3, [sp, #4]
100035de:	4b23      	ldr	r3, [pc, #140]	; (1000366c <best_effort_wfe_or_timeout+0xd0>)
100035e0:	0002      	movs	r2, r0
100035e2:	9300      	str	r3, [sp, #0]
100035e4:	0030      	movs	r0, r6
100035e6:	000b      	movs	r3, r1
100035e8:	f7ff fea0 	bl	1000332c <alarm_pool_add_alarm_at>
100035ec:	1e03      	subs	r3, r0, #0
100035ee:	dde0      	ble.n	100035b2 <best_effort_wfe_or_timeout+0x16>
100035f0:	bf20      	wfe
100035f2:	6871      	ldr	r1, [r6, #4]
100035f4:	f3ef 8710 	mrs	r7, PRIMASK
100035f8:	b672      	cpsid	i
100035fa:	680a      	ldr	r2, [r1, #0]
100035fc:	2a00      	cmp	r2, #0
100035fe:	d0fc      	beq.n	100035fa <best_effort_wfe_or_timeout+0x5e>
10003600:	f3bf 8f5f 	dmb	sy
10003604:	b2da      	uxtb	r2, r3
10003606:	4694      	mov	ip, r2
10003608:	6830      	ldr	r0, [r6, #0]
1000360a:	7b42      	ldrb	r2, [r0, #13]
1000360c:	4562      	cmp	r2, ip
1000360e:	d01d      	beq.n	1000364c <best_effort_wfe_or_timeout+0xb0>
10003610:	22ff      	movs	r2, #255	; 0xff
10003612:	401a      	ands	r2, r3
10003614:	0051      	lsls	r1, r2, #1
10003616:	4689      	mov	r9, r1
10003618:	6801      	ldr	r1, [r0, #0]
1000361a:	4491      	add	r9, r2
1000361c:	4688      	mov	r8, r1
1000361e:	4649      	mov	r1, r9
10003620:	4441      	add	r1, r8
10003622:	3903      	subs	r1, #3
10003624:	7889      	ldrb	r1, [r1, #2]
10003626:	2900      	cmp	r1, #0
10003628:	d013      	beq.n	10003652 <best_effort_wfe_or_timeout+0xb6>
1000362a:	68f1      	ldr	r1, [r6, #12]
1000362c:	0a1b      	lsrs	r3, r3, #8
1000362e:	4688      	mov	r8, r1
10003630:	4442      	add	r2, r8
10003632:	3a01      	subs	r2, #1
10003634:	7812      	ldrb	r2, [r2, #0]
10003636:	b2db      	uxtb	r3, r3
10003638:	429a      	cmp	r2, r3
1000363a:	d00f      	beq.n	1000365c <best_effort_wfe_or_timeout+0xc0>
1000363c:	6873      	ldr	r3, [r6, #4]
1000363e:	f3bf 8f5f 	dmb	sy
10003642:	2200      	movs	r2, #0
10003644:	601a      	str	r2, [r3, #0]
10003646:	f387 8810 	msr	PRIMASK, r7
1000364a:	e7b2      	b.n	100035b2 <best_effort_wfe_or_timeout+0x16>
1000364c:	22ff      	movs	r2, #255	; 0xff
1000364e:	401a      	ands	r2, r3
10003650:	e7eb      	b.n	1000362a <best_effort_wfe_or_timeout+0x8e>
10003652:	6932      	ldr	r2, [r6, #16]
10003654:	4293      	cmp	r3, r2
10003656:	d1f1      	bne.n	1000363c <best_effort_wfe_or_timeout+0xa0>
10003658:	6131      	str	r1, [r6, #16]
1000365a:	e7ef      	b.n	1000363c <best_effort_wfe_or_timeout+0xa0>
1000365c:	4661      	mov	r1, ip
1000365e:	f000 fb1f 	bl	10003ca0 <ph_remove_and_free_node>
10003662:	e7eb      	b.n	1000363c <best_effort_wfe_or_timeout+0xa0>
10003664:	40054000 	.word	0x40054000
10003668:	200001f4 	.word	0x200001f4
1000366c:	10002fd5 	.word	0x10002fd5

10003670 <hardware_alarm_irq_handler>:
10003670:	b5f0      	push	{r4, r5, r6, r7, lr}
10003672:	f3ef 8205 	mrs	r2, IPSR
10003676:	46d6      	mov	lr, sl
10003678:	464f      	mov	r7, r9
1000367a:	4646      	mov	r6, r8
1000367c:	0010      	movs	r0, r2
1000367e:	b5c0      	push	{r6, r7, lr}
10003680:	3810      	subs	r0, #16
10003682:	f3ef 8810 	mrs	r8, PRIMASK
10003686:	b672      	cpsid	i
10003688:	4c21      	ldr	r4, [pc, #132]	; (10003710 <hardware_alarm_irq_handler+0xa0>)
1000368a:	6823      	ldr	r3, [r4, #0]
1000368c:	2b00      	cmp	r3, #0
1000368e:	d0fc      	beq.n	1000368a <hardware_alarm_irq_handler+0x1a>
10003690:	f3bf 8f5f 	dmb	sy
10003694:	2301      	movs	r3, #1
10003696:	0019      	movs	r1, r3
10003698:	4081      	lsls	r1, r0
1000369a:	4d1e      	ldr	r5, [pc, #120]	; (10003714 <hardware_alarm_irq_handler+0xa4>)
1000369c:	001f      	movs	r7, r3
1000369e:	6369      	str	r1, [r5, #52]	; 0x34
100036a0:	46aa      	mov	sl, r5
100036a2:	4d1d      	ldr	r5, [pc, #116]	; (10003718 <hardware_alarm_irq_handler+0xa8>)
100036a4:	6029      	str	r1, [r5, #0]
100036a6:	4d1d      	ldr	r5, [pc, #116]	; (1000371c <hardware_alarm_irq_handler+0xac>)
100036a8:	782e      	ldrb	r6, [r5, #0]
100036aa:	46ac      	mov	ip, r5
100036ac:	0035      	movs	r5, r6
100036ae:	40c5      	lsrs	r5, r0
100036b0:	402f      	ands	r7, r5
100036b2:	422b      	tst	r3, r5
100036b4:	d109      	bne.n	100036ca <hardware_alarm_irq_handler+0x5a>
100036b6:	f3bf 8f5f 	dmb	sy
100036ba:	6027      	str	r7, [r4, #0]
100036bc:	f388 8810 	msr	PRIMASK, r8
100036c0:	bce0      	pop	{r5, r6, r7}
100036c2:	46ba      	mov	sl, r7
100036c4:	46b1      	mov	r9, r6
100036c6:	46a8      	mov	r8, r5
100036c8:	bdf0      	pop	{r4, r5, r6, r7, pc}
100036ca:	4653      	mov	r3, sl
100036cc:	4d14      	ldr	r5, [pc, #80]	; (10003720 <hardware_alarm_irq_handler+0xb0>)
100036ce:	6a5f      	ldr	r7, [r3, #36]	; 0x24
100036d0:	0083      	lsls	r3, r0, #2
100036d2:	595d      	ldr	r5, [r3, r5]
100036d4:	42af      	cmp	r7, r5
100036d6:	d30e      	bcc.n	100036f6 <hardware_alarm_irq_handler+0x86>
100036d8:	4a12      	ldr	r2, [pc, #72]	; (10003724 <hardware_alarm_irq_handler+0xb4>)
100036da:	438e      	bics	r6, r1
100036dc:	589b      	ldr	r3, [r3, r2]
100036de:	4662      	mov	r2, ip
100036e0:	7016      	strb	r6, [r2, #0]
100036e2:	f3bf 8f5f 	dmb	sy
100036e6:	2200      	movs	r2, #0
100036e8:	6022      	str	r2, [r4, #0]
100036ea:	f388 8810 	msr	PRIMASK, r8
100036ee:	2b00      	cmp	r3, #0
100036f0:	d0e6      	beq.n	100036c0 <hardware_alarm_irq_handler+0x50>
100036f2:	4798      	blx	r3
100036f4:	e7e4      	b.n	100036c0 <hardware_alarm_irq_handler+0x50>
100036f6:	4b0c      	ldr	r3, [pc, #48]	; (10003728 <hardware_alarm_irq_handler+0xb8>)
100036f8:	0092      	lsls	r2, r2, #2
100036fa:	469c      	mov	ip, r3
100036fc:	4462      	add	r2, ip
100036fe:	6813      	ldr	r3, [r2, #0]
10003700:	6013      	str	r3, [r2, #0]
10003702:	f3bf 8f5f 	dmb	sy
10003706:	2300      	movs	r3, #0
10003708:	6023      	str	r3, [r4, #0]
1000370a:	f388 8810 	msr	PRIMASK, r8
1000370e:	e7d7      	b.n	100036c0 <hardware_alarm_irq_handler+0x50>
10003710:	d0000128 	.word	0xd0000128
10003714:	40054000 	.word	0x40054000
10003718:	4005703c 	.word	0x4005703c
1000371c:	20000656 	.word	0x20000656
10003720:	20000634 	.word	0x20000634
10003724:	20000594 	.word	0x20000594
10003728:	40053fd0 	.word	0x40053fd0

1000372c <hardware_alarm_claim>:
1000372c:	b510      	push	{r4, lr}
1000372e:	0001      	movs	r1, r0
10003730:	4a02      	ldr	r2, [pc, #8]	; (1000373c <hardware_alarm_claim+0x10>)
10003732:	4803      	ldr	r0, [pc, #12]	; (10003740 <hardware_alarm_claim+0x14>)
10003734:	f7ff fa4c 	bl	10002bd0 <hw_claim_or_assert>
10003738:	bd10      	pop	{r4, pc}
1000373a:	46c0      	nop			; (mov r8, r8)
1000373c:	100072b4 	.word	0x100072b4
10003740:	20000654 	.word	0x20000654

10003744 <time_us_64>:
10003744:	4b03      	ldr	r3, [pc, #12]	; (10003754 <time_us_64+0x10>)
10003746:	6a59      	ldr	r1, [r3, #36]	; 0x24
10003748:	000a      	movs	r2, r1
1000374a:	6a98      	ldr	r0, [r3, #40]	; 0x28
1000374c:	6a59      	ldr	r1, [r3, #36]	; 0x24
1000374e:	428a      	cmp	r2, r1
10003750:	d1fa      	bne.n	10003748 <time_us_64+0x4>
10003752:	4770      	bx	lr
10003754:	40054000 	.word	0x40054000

10003758 <busy_wait_us>:
10003758:	b570      	push	{r4, r5, r6, lr}
1000375a:	0004      	movs	r4, r0
1000375c:	000d      	movs	r5, r1
1000375e:	4a12      	ldr	r2, [pc, #72]	; (100037a8 <busy_wait_us+0x50>)
10003760:	6a53      	ldr	r3, [r2, #36]	; 0x24
10003762:	0019      	movs	r1, r3
10003764:	6a96      	ldr	r6, [r2, #40]	; 0x28
10003766:	6a53      	ldr	r3, [r2, #36]	; 0x24
10003768:	428b      	cmp	r3, r1
1000376a:	d1fa      	bne.n	10003762 <busy_wait_us+0xa>
1000376c:	0030      	movs	r0, r6
1000376e:	0019      	movs	r1, r3
10003770:	1824      	adds	r4, r4, r0
10003772:	414d      	adcs	r5, r1
10003774:	42ab      	cmp	r3, r5
10003776:	d811      	bhi.n	1000379c <busy_wait_us+0x44>
10003778:	d00e      	beq.n	10003798 <busy_wait_us+0x40>
1000377a:	002b      	movs	r3, r5
1000377c:	490a      	ldr	r1, [pc, #40]	; (100037a8 <busy_wait_us+0x50>)
1000377e:	6a4a      	ldr	r2, [r1, #36]	; 0x24
10003780:	429a      	cmp	r2, r3
10003782:	d3fc      	bcc.n	1000377e <busy_wait_us+0x26>
10003784:	d107      	bne.n	10003796 <busy_wait_us+0x3e>
10003786:	4a08      	ldr	r2, [pc, #32]	; (100037a8 <busy_wait_us+0x50>)
10003788:	e002      	b.n	10003790 <busy_wait_us+0x38>
1000378a:	6a51      	ldr	r1, [r2, #36]	; 0x24
1000378c:	4299      	cmp	r1, r3
1000378e:	d102      	bne.n	10003796 <busy_wait_us+0x3e>
10003790:	6a91      	ldr	r1, [r2, #40]	; 0x28
10003792:	42a1      	cmp	r1, r4
10003794:	d3f9      	bcc.n	1000378a <busy_wait_us+0x32>
10003796:	bd70      	pop	{r4, r5, r6, pc}
10003798:	42a6      	cmp	r6, r4
1000379a:	d9ee      	bls.n	1000377a <busy_wait_us+0x22>
1000379c:	2301      	movs	r3, #1
1000379e:	2401      	movs	r4, #1
100037a0:	4264      	negs	r4, r4
100037a2:	17e5      	asrs	r5, r4, #31
100037a4:	425b      	negs	r3, r3
100037a6:	e7e9      	b.n	1000377c <busy_wait_us+0x24>
100037a8:	40054000 	.word	0x40054000

100037ac <busy_wait_until>:
100037ac:	4a06      	ldr	r2, [pc, #24]	; (100037c8 <busy_wait_until+0x1c>)
100037ae:	6a53      	ldr	r3, [r2, #36]	; 0x24
100037b0:	4299      	cmp	r1, r3
100037b2:	d8fc      	bhi.n	100037ae <busy_wait_until+0x2>
100037b4:	d107      	bne.n	100037c6 <busy_wait_until+0x1a>
100037b6:	4b04      	ldr	r3, [pc, #16]	; (100037c8 <busy_wait_until+0x1c>)
100037b8:	e002      	b.n	100037c0 <busy_wait_until+0x14>
100037ba:	6a5a      	ldr	r2, [r3, #36]	; 0x24
100037bc:	4291      	cmp	r1, r2
100037be:	d102      	bne.n	100037c6 <busy_wait_until+0x1a>
100037c0:	6a9a      	ldr	r2, [r3, #40]	; 0x28
100037c2:	4282      	cmp	r2, r0
100037c4:	d3f9      	bcc.n	100037ba <busy_wait_until+0xe>
100037c6:	4770      	bx	lr
100037c8:	40054000 	.word	0x40054000

100037cc <hardware_alarm_set_callback>:
100037cc:	b570      	push	{r4, r5, r6, lr}
100037ce:	0004      	movs	r4, r0
100037d0:	000d      	movs	r5, r1
100037d2:	f3ef 8610 	mrs	r6, PRIMASK
100037d6:	b672      	cpsid	i
100037d8:	4a1a      	ldr	r2, [pc, #104]	; (10003844 <hardware_alarm_set_callback+0x78>)
100037da:	6813      	ldr	r3, [r2, #0]
100037dc:	2b00      	cmp	r3, #0
100037de:	d0fc      	beq.n	100037da <hardware_alarm_set_callback+0xe>
100037e0:	f3bf 8f5f 	dmb	sy
100037e4:	2d00      	cmp	r5, #0
100037e6:	d01b      	beq.n	10003820 <hardware_alarm_set_callback+0x54>
100037e8:	0020      	movs	r0, r4
100037ea:	f7ff fa3f 	bl	10002c6c <irq_get_vtable_handler>
100037ee:	4916      	ldr	r1, [pc, #88]	; (10003848 <hardware_alarm_set_callback+0x7c>)
100037f0:	4281      	cmp	r1, r0
100037f2:	d00a      	beq.n	1000380a <hardware_alarm_set_callback+0x3e>
100037f4:	0020      	movs	r0, r4
100037f6:	f7ff fa41 	bl	10002c7c <irq_set_exclusive_handler>
100037fa:	2101      	movs	r1, #1
100037fc:	0020      	movs	r0, r4
100037fe:	f7ff fa23 	bl	10002c48 <irq_set_enabled>
10003802:	2301      	movs	r3, #1
10003804:	40a3      	lsls	r3, r4
10003806:	4a11      	ldr	r2, [pc, #68]	; (1000384c <hardware_alarm_set_callback+0x80>)
10003808:	6013      	str	r3, [r2, #0]
1000380a:	4b11      	ldr	r3, [pc, #68]	; (10003850 <hardware_alarm_set_callback+0x84>)
1000380c:	00a4      	lsls	r4, r4, #2
1000380e:	50e5      	str	r5, [r4, r3]
10003810:	f3bf 8f5f 	dmb	sy
10003814:	2200      	movs	r2, #0
10003816:	4b0b      	ldr	r3, [pc, #44]	; (10003844 <hardware_alarm_set_callback+0x78>)
10003818:	601a      	str	r2, [r3, #0]
1000381a:	f386 8810 	msr	PRIMASK, r6
1000381e:	bd70      	pop	{r4, r5, r6, pc}
10003820:	4b0b      	ldr	r3, [pc, #44]	; (10003850 <hardware_alarm_set_callback+0x84>)
10003822:	00a2      	lsls	r2, r4, #2
10003824:	50d5      	str	r5, [r2, r3]
10003826:	2201      	movs	r2, #1
10003828:	40a2      	lsls	r2, r4
1000382a:	490a      	ldr	r1, [pc, #40]	; (10003854 <hardware_alarm_set_callback+0x88>)
1000382c:	0020      	movs	r0, r4
1000382e:	780b      	ldrb	r3, [r1, #0]
10003830:	4393      	bics	r3, r2
10003832:	700b      	strb	r3, [r1, #0]
10003834:	4904      	ldr	r1, [pc, #16]	; (10003848 <hardware_alarm_set_callback+0x7c>)
10003836:	f7ff fa4b 	bl	10002cd0 <irq_remove_handler>
1000383a:	2100      	movs	r1, #0
1000383c:	0020      	movs	r0, r4
1000383e:	f7ff fa03 	bl	10002c48 <irq_set_enabled>
10003842:	e7e5      	b.n	10003810 <hardware_alarm_set_callback+0x44>
10003844:	d0000128 	.word	0xd0000128
10003848:	10003671 	.word	0x10003671
1000384c:	40056038 	.word	0x40056038
10003850:	20000594 	.word	0x20000594
10003854:	20000656 	.word	0x20000656

10003858 <hardware_alarm_set_target>:
10003858:	b5f0      	push	{r4, r5, r6, r7, lr}
1000385a:	464f      	mov	r7, r9
1000385c:	46d6      	mov	lr, sl
1000385e:	4646      	mov	r6, r8
10003860:	b5c0      	push	{r6, r7, lr}
10003862:	0007      	movs	r7, r0
10003864:	4c2c      	ldr	r4, [pc, #176]	; (10003918 <hardware_alarm_set_target+0xc0>)
10003866:	6a61      	ldr	r1, [r4, #36]	; 0x24
10003868:	000d      	movs	r5, r1
1000386a:	6aa6      	ldr	r6, [r4, #40]	; 0x28
1000386c:	6a61      	ldr	r1, [r4, #36]	; 0x24
1000386e:	42a9      	cmp	r1, r5
10003870:	d1fa      	bne.n	10003868 <hardware_alarm_set_target+0x10>
10003872:	428b      	cmp	r3, r1
10003874:	d808      	bhi.n	10003888 <hardware_alarm_set_target+0x30>
10003876:	d005      	beq.n	10003884 <hardware_alarm_set_target+0x2c>
10003878:	2001      	movs	r0, #1
1000387a:	bce0      	pop	{r5, r6, r7}
1000387c:	46ba      	mov	sl, r7
1000387e:	46b1      	mov	r9, r6
10003880:	46a8      	mov	r8, r5
10003882:	bdf0      	pop	{r4, r5, r6, r7, pc}
10003884:	42b2      	cmp	r2, r6
10003886:	d9f7      	bls.n	10003878 <hardware_alarm_set_target+0x20>
10003888:	f3ef 8a10 	mrs	sl, PRIMASK
1000388c:	b672      	cpsid	i
1000388e:	4823      	ldr	r0, [pc, #140]	; (1000391c <hardware_alarm_set_target+0xc4>)
10003890:	6801      	ldr	r1, [r0, #0]
10003892:	2900      	cmp	r1, #0
10003894:	d0fc      	beq.n	10003890 <hardware_alarm_set_target+0x38>
10003896:	f3bf 8f5f 	dmb	sy
1000389a:	2501      	movs	r5, #1
1000389c:	40bd      	lsls	r5, r7
1000389e:	4920      	ldr	r1, [pc, #128]	; (10003920 <hardware_alarm_set_target+0xc8>)
100038a0:	4c1d      	ldr	r4, [pc, #116]	; (10003918 <hardware_alarm_set_target+0xc0>)
100038a2:	4688      	mov	r8, r1
100038a4:	7809      	ldrb	r1, [r1, #0]
100038a6:	4689      	mov	r9, r1
100038a8:	4329      	orrs	r1, r5
100038aa:	b2c9      	uxtb	r1, r1
100038ac:	468c      	mov	ip, r1
100038ae:	4641      	mov	r1, r8
100038b0:	4660      	mov	r0, ip
100038b2:	7008      	strb	r0, [r1, #0]
100038b4:	1d39      	adds	r1, r7, #4
100038b6:	481b      	ldr	r0, [pc, #108]	; (10003924 <hardware_alarm_set_target+0xcc>)
100038b8:	0089      	lsls	r1, r1, #2
100038ba:	6365      	str	r5, [r4, #52]	; 0x34
100038bc:	510a      	str	r2, [r1, r4]
100038be:	00b9      	lsls	r1, r7, #2
100038c0:	500b      	str	r3, [r1, r0]
100038c2:	6a21      	ldr	r1, [r4, #32]
100038c4:	2000      	movs	r0, #0
100038c6:	4229      	tst	r1, r5
100038c8:	d019      	beq.n	100038fe <hardware_alarm_set_target+0xa6>
100038ca:	6a61      	ldr	r1, [r4, #36]	; 0x24
100038cc:	0008      	movs	r0, r1
100038ce:	6aa6      	ldr	r6, [r4, #40]	; 0x28
100038d0:	6a61      	ldr	r1, [r4, #36]	; 0x24
100038d2:	4281      	cmp	r1, r0
100038d4:	d1fa      	bne.n	100038cc <hardware_alarm_set_target+0x74>
100038d6:	428b      	cmp	r3, r1
100038d8:	d819      	bhi.n	1000390e <hardware_alarm_set_target+0xb6>
100038da:	d101      	bne.n	100038e0 <hardware_alarm_set_target+0x88>
100038dc:	42b2      	cmp	r2, r6
100038de:	d816      	bhi.n	1000390e <hardware_alarm_set_target+0xb6>
100038e0:	45cc      	cmp	ip, r9
100038e2:	d016      	beq.n	10003912 <hardware_alarm_set_target+0xba>
100038e4:	4b0c      	ldr	r3, [pc, #48]	; (10003918 <hardware_alarm_set_target+0xc0>)
100038e6:	201f      	movs	r0, #31
100038e8:	621d      	str	r5, [r3, #32]
100038ea:	635d      	str	r5, [r3, #52]	; 0x34
100038ec:	2301      	movs	r3, #1
100038ee:	4007      	ands	r7, r0
100038f0:	40bb      	lsls	r3, r7
100038f2:	4a0d      	ldr	r2, [pc, #52]	; (10003928 <hardware_alarm_set_target+0xd0>)
100038f4:	381e      	subs	r0, #30
100038f6:	6013      	str	r3, [r2, #0]
100038f8:	4643      	mov	r3, r8
100038fa:	464a      	mov	r2, r9
100038fc:	701a      	strb	r2, [r3, #0]
100038fe:	f3bf 8f5f 	dmb	sy
10003902:	2200      	movs	r2, #0
10003904:	4b05      	ldr	r3, [pc, #20]	; (1000391c <hardware_alarm_set_target+0xc4>)
10003906:	601a      	str	r2, [r3, #0]
10003908:	f38a 8810 	msr	PRIMASK, sl
1000390c:	e7b5      	b.n	1000387a <hardware_alarm_set_target+0x22>
1000390e:	2000      	movs	r0, #0
10003910:	e7f5      	b.n	100038fe <hardware_alarm_set_target+0xa6>
10003912:	2001      	movs	r0, #1
10003914:	e7f3      	b.n	100038fe <hardware_alarm_set_target+0xa6>
10003916:	46c0      	nop			; (mov r8, r8)
10003918:	40054000 	.word	0x40054000
1000391c:	d0000128 	.word	0xd0000128
10003920:	20000656 	.word	0x20000656
10003924:	20000634 	.word	0x20000634
10003928:	e000e280 	.word	0xe000e280

1000392c <hardware_alarm_cancel>:
1000392c:	f3ef 8c10 	mrs	ip, PRIMASK
10003930:	b672      	cpsid	i
10003932:	490a      	ldr	r1, [pc, #40]	; (1000395c <hardware_alarm_cancel+0x30>)
10003934:	680b      	ldr	r3, [r1, #0]
10003936:	2b00      	cmp	r3, #0
10003938:	d0fc      	beq.n	10003934 <hardware_alarm_cancel+0x8>
1000393a:	f3bf 8f5f 	dmb	sy
1000393e:	2301      	movs	r3, #1
10003940:	4083      	lsls	r3, r0
10003942:	4a07      	ldr	r2, [pc, #28]	; (10003960 <hardware_alarm_cancel+0x34>)
10003944:	4807      	ldr	r0, [pc, #28]	; (10003964 <hardware_alarm_cancel+0x38>)
10003946:	6213      	str	r3, [r2, #32]
10003948:	7802      	ldrb	r2, [r0, #0]
1000394a:	439a      	bics	r2, r3
1000394c:	7002      	strb	r2, [r0, #0]
1000394e:	f3bf 8f5f 	dmb	sy
10003952:	2300      	movs	r3, #0
10003954:	600b      	str	r3, [r1, #0]
10003956:	f38c 8810 	msr	PRIMASK, ip
1000395a:	4770      	bx	lr
1000395c:	d0000128 	.word	0xd0000128
10003960:	40054000 	.word	0x40054000
10003964:	20000656 	.word	0x20000656

10003968 <ph_merge_nodes>:
10003968:	b570      	push	{r4, r5, r6, lr}
1000396a:	0005      	movs	r5, r0
1000396c:	0014      	movs	r4, r2
1000396e:	0016      	movs	r6, r2
10003970:	2900      	cmp	r1, #0
10003972:	d015      	beq.n	100039a0 <ph_merge_nodes+0x38>
10003974:	000c      	movs	r4, r1
10003976:	2a00      	cmp	r2, #0
10003978:	d012      	beq.n	100039a0 <ph_merge_nodes+0x38>
1000397a:	6880      	ldr	r0, [r0, #8]
1000397c:	686b      	ldr	r3, [r5, #4]
1000397e:	4798      	blx	r3
10003980:	6829      	ldr	r1, [r5, #0]
10003982:	2800      	cmp	r0, #0
10003984:	d00e      	beq.n	100039a4 <ph_merge_nodes+0x3c>
10003986:	0073      	lsls	r3, r6, #1
10003988:	199b      	adds	r3, r3, r6
1000398a:	0062      	lsls	r2, r4, #1
1000398c:	3b03      	subs	r3, #3
1000398e:	1912      	adds	r2, r2, r4
10003990:	18cb      	adds	r3, r1, r3
10003992:	3a03      	subs	r2, #3
10003994:	709c      	strb	r4, [r3, #2]
10003996:	1888      	adds	r0, r1, r2
10003998:	5c8a      	ldrb	r2, [r1, r2]
1000399a:	2a00      	cmp	r2, #0
1000399c:	d115      	bne.n	100039ca <ph_merge_nodes+0x62>
1000399e:	7006      	strb	r6, [r0, #0]
100039a0:	0020      	movs	r0, r4
100039a2:	bd70      	pop	{r4, r5, r6, pc}
100039a4:	0063      	lsls	r3, r4, #1
100039a6:	191b      	adds	r3, r3, r4
100039a8:	0072      	lsls	r2, r6, #1
100039aa:	3b03      	subs	r3, #3
100039ac:	1992      	adds	r2, r2, r6
100039ae:	18cb      	adds	r3, r1, r3
100039b0:	3a03      	subs	r2, #3
100039b2:	709e      	strb	r6, [r3, #2]
100039b4:	1888      	adds	r0, r1, r2
100039b6:	5c8a      	ldrb	r2, [r1, r2]
100039b8:	2a00      	cmp	r2, #0
100039ba:	d102      	bne.n	100039c2 <ph_merge_nodes+0x5a>
100039bc:	7004      	strb	r4, [r0, #0]
100039be:	0034      	movs	r4, r6
100039c0:	e7ee      	b.n	100039a0 <ph_merge_nodes+0x38>
100039c2:	705a      	strb	r2, [r3, #1]
100039c4:	7004      	strb	r4, [r0, #0]
100039c6:	0034      	movs	r4, r6
100039c8:	e7ea      	b.n	100039a0 <ph_merge_nodes+0x38>
100039ca:	705a      	strb	r2, [r3, #1]
100039cc:	7006      	strb	r6, [r0, #0]
100039ce:	e7e7      	b.n	100039a0 <ph_merge_nodes+0x38>

100039d0 <ph_post_alloc_init>:
100039d0:	b530      	push	{r4, r5, lr}
100039d2:	6083      	str	r3, [r0, #8]
100039d4:	2300      	movs	r3, #0
100039d6:	b2cc      	uxtb	r4, r1
100039d8:	7343      	strb	r3, [r0, #13]
100039da:	3301      	adds	r3, #1
100039dc:	7304      	strb	r4, [r0, #12]
100039de:	6042      	str	r2, [r0, #4]
100039e0:	7383      	strb	r3, [r0, #14]
100039e2:	73c4      	strb	r4, [r0, #15]
100039e4:	000d      	movs	r5, r1
100039e6:	6800      	ldr	r0, [r0, #0]
100039e8:	2c01      	cmp	r4, #1
100039ea:	d906      	bls.n	100039fa <ph_post_alloc_init+0x2a>
100039ec:	1c42      	adds	r2, r0, #1
100039ee:	3301      	adds	r3, #1
100039f0:	b2db      	uxtb	r3, r3
100039f2:	7013      	strb	r3, [r2, #0]
100039f4:	3203      	adds	r2, #3
100039f6:	429c      	cmp	r4, r3
100039f8:	d1f9      	bne.n	100039ee <ph_post_alloc_init+0x1e>
100039fa:	21ff      	movs	r1, #255	; 0xff
100039fc:	4029      	ands	r1, r5
100039fe:	004b      	lsls	r3, r1, #1
10003a00:	1859      	adds	r1, r3, r1
10003a02:	2300      	movs	r3, #0
10003a04:	1840      	adds	r0, r0, r1
10003a06:	3803      	subs	r0, #3
10003a08:	7043      	strb	r3, [r0, #1]
10003a0a:	bd30      	pop	{r4, r5, pc}

10003a0c <ph_merge_two_pass>:
10003a0c:	b5f8      	push	{r3, r4, r5, r6, r7, lr}
10003a0e:	46ce      	mov	lr, r9
10003a10:	4647      	mov	r7, r8
10003a12:	0006      	movs	r6, r0
10003a14:	000c      	movs	r4, r1
10003a16:	b580      	push	{r7, lr}
10003a18:	2900      	cmp	r1, #0
10003a1a:	d007      	beq.n	10003a2c <ph_merge_two_pass+0x20>
10003a1c:	004d      	lsls	r5, r1, #1
10003a1e:	6803      	ldr	r3, [r0, #0]
10003a20:	186d      	adds	r5, r5, r1
10003a22:	3d03      	subs	r5, #3
10003a24:	195a      	adds	r2, r3, r5
10003a26:	7857      	ldrb	r7, [r2, #1]
10003a28:	2f00      	cmp	r7, #0
10003a2a:	d104      	bne.n	10003a36 <ph_merge_two_pass+0x2a>
10003a2c:	0020      	movs	r0, r4
10003a2e:	bcc0      	pop	{r6, r7}
10003a30:	46b9      	mov	r9, r7
10003a32:	46b0      	mov	r8, r6
10003a34:	bdf8      	pop	{r3, r4, r5, r6, r7, pc}
10003a36:	0079      	lsls	r1, r7, #1
10003a38:	19c9      	adds	r1, r1, r7
10003a3a:	3903      	subs	r1, #3
10003a3c:	4688      	mov	r8, r1
10003a3e:	4443      	add	r3, r8
10003a40:	7859      	ldrb	r1, [r3, #1]
10003a42:	4689      	mov	r9, r1
10003a44:	2100      	movs	r1, #0
10003a46:	7059      	strb	r1, [r3, #1]
10003a48:	7051      	strb	r1, [r2, #1]
10003a4a:	6873      	ldr	r3, [r6, #4]
10003a4c:	003a      	movs	r2, r7
10003a4e:	0021      	movs	r1, r4
10003a50:	6880      	ldr	r0, [r0, #8]
10003a52:	4798      	blx	r3
10003a54:	6833      	ldr	r3, [r6, #0]
10003a56:	2800      	cmp	r0, #0
10003a58:	d014      	beq.n	10003a84 <ph_merge_two_pass+0x78>
10003a5a:	4642      	mov	r2, r8
10003a5c:	189a      	adds	r2, r3, r2
10003a5e:	7094      	strb	r4, [r2, #2]
10003a60:	1959      	adds	r1, r3, r5
10003a62:	5d5b      	ldrb	r3, [r3, r5]
10003a64:	2b00      	cmp	r3, #0
10003a66:	d000      	beq.n	10003a6a <ph_merge_two_pass+0x5e>
10003a68:	7053      	strb	r3, [r2, #1]
10003a6a:	700f      	strb	r7, [r1, #0]
10003a6c:	0027      	movs	r7, r4
10003a6e:	4649      	mov	r1, r9
10003a70:	0030      	movs	r0, r6
10003a72:	f7ff ffcb 	bl	10003a0c <ph_merge_two_pass>
10003a76:	0039      	movs	r1, r7
10003a78:	0002      	movs	r2, r0
10003a7a:	0030      	movs	r0, r6
10003a7c:	f7ff ff74 	bl	10003968 <ph_merge_nodes>
10003a80:	0004      	movs	r4, r0
10003a82:	e7d3      	b.n	10003a2c <ph_merge_two_pass+0x20>
10003a84:	4642      	mov	r2, r8
10003a86:	4641      	mov	r1, r8
10003a88:	195d      	adds	r5, r3, r5
10003a8a:	70af      	strb	r7, [r5, #2]
10003a8c:	189a      	adds	r2, r3, r2
10003a8e:	5c5b      	ldrb	r3, [r3, r1]
10003a90:	2b00      	cmp	r3, #0
10003a92:	d000      	beq.n	10003a96 <ph_merge_two_pass+0x8a>
10003a94:	706b      	strb	r3, [r5, #1]
10003a96:	7014      	strb	r4, [r2, #0]
10003a98:	e7e9      	b.n	10003a6e <ph_merge_two_pass+0x62>
10003a9a:	46c0      	nop			; (mov r8, r8)

10003a9c <ph_remove_any_head>:
10003a9c:	b5f0      	push	{r4, r5, r6, r7, lr}
10003a9e:	4657      	mov	r7, sl
10003aa0:	4645      	mov	r5, r8
10003aa2:	46de      	mov	lr, fp
10003aa4:	464e      	mov	r6, r9
10003aa6:	b5e0      	push	{r5, r6, r7, lr}
10003aa8:	000d      	movs	r5, r1
10003aaa:	006b      	lsls	r3, r5, #1
10003aac:	6801      	ldr	r1, [r0, #0]
10003aae:	195b      	adds	r3, r3, r5
10003ab0:	1edf      	subs	r7, r3, #3
10003ab2:	0004      	movs	r4, r0
10003ab4:	5dc8      	ldrb	r0, [r1, r7]
10003ab6:	b083      	sub	sp, #12
10003ab8:	9201      	str	r2, [sp, #4]
10003aba:	19ca      	adds	r2, r1, r7
10003abc:	2800      	cmp	r0, #0
10003abe:	d050      	beq.n	10003b62 <ph_remove_any_head+0xc6>
10003ac0:	0043      	lsls	r3, r0, #1
10003ac2:	181b      	adds	r3, r3, r0
10003ac4:	3b03      	subs	r3, #3
10003ac6:	18cb      	adds	r3, r1, r3
10003ac8:	785e      	ldrb	r6, [r3, #1]
10003aca:	46b4      	mov	ip, r6
10003acc:	2e00      	cmp	r6, #0
10003ace:	d11a      	bne.n	10003b06 <ph_remove_any_head+0x6a>
10003ad0:	9e01      	ldr	r6, [sp, #4]
10003ad2:	2e00      	cmp	r6, #0
10003ad4:	d042      	beq.n	10003b5c <ph_remove_any_head+0xc0>
10003ad6:	7be6      	ldrb	r6, [r4, #15]
10003ad8:	2e00      	cmp	r6, #0
10003ada:	d004      	beq.n	10003ae6 <ph_remove_any_head+0x4a>
10003adc:	0073      	lsls	r3, r6, #1
10003ade:	199b      	adds	r3, r3, r6
10003ae0:	18cb      	adds	r3, r1, r3
10003ae2:	3b03      	subs	r3, #3
10003ae4:	705d      	strb	r5, [r3, #1]
10003ae6:	7ba3      	ldrb	r3, [r4, #14]
10003ae8:	2b00      	cmp	r3, #0
10003aea:	d100      	bne.n	10003aee <ph_remove_any_head+0x52>
10003aec:	73a5      	strb	r5, [r4, #14]
10003aee:	73e5      	strb	r5, [r4, #15]
10003af0:	2800      	cmp	r0, #0
10003af2:	d12f      	bne.n	10003b54 <ph_remove_any_head+0xb8>
10003af4:	2300      	movs	r3, #0
10003af6:	7053      	strb	r3, [r2, #1]
10003af8:	b003      	add	sp, #12
10003afa:	bcf0      	pop	{r4, r5, r6, r7}
10003afc:	46bb      	mov	fp, r7
10003afe:	46b2      	mov	sl, r6
10003b00:	46a9      	mov	r9, r5
10003b02:	46a0      	mov	r8, r4
10003b04:	bdf0      	pop	{r4, r5, r6, r7, pc}
10003b06:	0072      	lsls	r2, r6, #1
10003b08:	4462      	add	r2, ip
10003b0a:	3a03      	subs	r2, #3
10003b0c:	1889      	adds	r1, r1, r2
10003b0e:	784a      	ldrb	r2, [r1, #1]
10003b10:	4690      	mov	r8, r2
10003b12:	2200      	movs	r2, #0
10003b14:	704a      	strb	r2, [r1, #1]
10003b16:	4691      	mov	r9, r2
10003b18:	705a      	strb	r2, [r3, #1]
10003b1a:	0001      	movs	r1, r0
10003b1c:	0032      	movs	r2, r6
10003b1e:	0020      	movs	r0, r4
10003b20:	f7ff ff22 	bl	10003968 <ph_merge_nodes>
10003b24:	4643      	mov	r3, r8
10003b26:	4682      	mov	sl, r0
10003b28:	2b00      	cmp	r3, #0
10003b2a:	d007      	beq.n	10003b3c <ph_remove_any_head+0xa0>
10003b2c:	005b      	lsls	r3, r3, #1
10003b2e:	6821      	ldr	r1, [r4, #0]
10003b30:	4443      	add	r3, r8
10003b32:	3b03      	subs	r3, #3
10003b34:	18cb      	adds	r3, r1, r3
10003b36:	785a      	ldrb	r2, [r3, #1]
10003b38:	2a00      	cmp	r2, #0
10003b3a:	d116      	bne.n	10003b6a <ph_remove_any_head+0xce>
10003b3c:	4642      	mov	r2, r8
10003b3e:	4651      	mov	r1, sl
10003b40:	0020      	movs	r0, r4
10003b42:	f7ff ff11 	bl	10003968 <ph_merge_nodes>
10003b46:	6821      	ldr	r1, [r4, #0]
10003b48:	9b01      	ldr	r3, [sp, #4]
10003b4a:	19ca      	adds	r2, r1, r7
10003b4c:	2b00      	cmp	r3, #0
10003b4e:	d1c2      	bne.n	10003ad6 <ph_remove_any_head+0x3a>
10003b50:	2800      	cmp	r0, #0
10003b52:	d0cf      	beq.n	10003af4 <ph_remove_any_head+0x58>
10003b54:	0043      	lsls	r3, r0, #1
10003b56:	181b      	adds	r3, r3, r0
10003b58:	3b03      	subs	r3, #3
10003b5a:	18cb      	adds	r3, r1, r3
10003b5c:	2100      	movs	r1, #0
10003b5e:	7099      	strb	r1, [r3, #2]
10003b60:	e7c8      	b.n	10003af4 <ph_remove_any_head+0x58>
10003b62:	9b01      	ldr	r3, [sp, #4]
10003b64:	2b00      	cmp	r3, #0
10003b66:	d1b6      	bne.n	10003ad6 <ph_remove_any_head+0x3a>
10003b68:	e7c4      	b.n	10003af4 <ph_remove_any_head+0x58>
10003b6a:	0050      	lsls	r0, r2, #1
10003b6c:	1880      	adds	r0, r0, r2
10003b6e:	3803      	subs	r0, #3
10003b70:	1809      	adds	r1, r1, r0
10003b72:	7848      	ldrb	r0, [r1, #1]
10003b74:	4683      	mov	fp, r0
10003b76:	4648      	mov	r0, r9
10003b78:	7048      	strb	r0, [r1, #1]
10003b7a:	7058      	strb	r0, [r3, #1]
10003b7c:	4641      	mov	r1, r8
10003b7e:	0020      	movs	r0, r4
10003b80:	f7ff fef2 	bl	10003968 <ph_merge_nodes>
10003b84:	4659      	mov	r1, fp
10003b86:	4680      	mov	r8, r0
10003b88:	0020      	movs	r0, r4
10003b8a:	f7ff ff3f 	bl	10003a0c <ph_merge_two_pass>
10003b8e:	4641      	mov	r1, r8
10003b90:	0002      	movs	r2, r0
10003b92:	0020      	movs	r0, r4
10003b94:	f7ff fee8 	bl	10003968 <ph_merge_nodes>
10003b98:	4680      	mov	r8, r0
10003b9a:	e7cf      	b.n	10003b3c <ph_remove_any_head+0xa0>

10003b9c <ph_remove_head>:
10003b9c:	b5f0      	push	{r4, r5, r6, r7, lr}
10003b9e:	4657      	mov	r7, sl
10003ba0:	4645      	mov	r5, r8
10003ba2:	46de      	mov	lr, fp
10003ba4:	464e      	mov	r6, r9
10003ba6:	b5e0      	push	{r5, r6, r7, lr}
10003ba8:	b083      	sub	sp, #12
10003baa:	9101      	str	r1, [sp, #4]
10003bac:	7b45      	ldrb	r5, [r0, #13]
10003bae:	0004      	movs	r4, r0
10003bb0:	006b      	lsls	r3, r5, #1
10003bb2:	6800      	ldr	r0, [r0, #0]
10003bb4:	195b      	adds	r3, r3, r5
10003bb6:	1edf      	subs	r7, r3, #3
10003bb8:	5dc1      	ldrb	r1, [r0, r7]
10003bba:	19c2      	adds	r2, r0, r7
10003bbc:	2900      	cmp	r1, #0
10003bbe:	d052      	beq.n	10003c66 <ph_remove_head+0xca>
10003bc0:	004b      	lsls	r3, r1, #1
10003bc2:	185b      	adds	r3, r3, r1
10003bc4:	3b03      	subs	r3, #3
10003bc6:	18c3      	adds	r3, r0, r3
10003bc8:	785e      	ldrb	r6, [r3, #1]
10003bca:	46b4      	mov	ip, r6
10003bcc:	2e00      	cmp	r6, #0
10003bce:	d11c      	bne.n	10003c0a <ph_remove_head+0x6e>
10003bd0:	9e01      	ldr	r6, [sp, #4]
10003bd2:	2e00      	cmp	r6, #0
10003bd4:	d044      	beq.n	10003c60 <ph_remove_head+0xc4>
10003bd6:	7be6      	ldrb	r6, [r4, #15]
10003bd8:	2e00      	cmp	r6, #0
10003bda:	d004      	beq.n	10003be6 <ph_remove_head+0x4a>
10003bdc:	0073      	lsls	r3, r6, #1
10003bde:	199b      	adds	r3, r3, r6
10003be0:	18c3      	adds	r3, r0, r3
10003be2:	3b03      	subs	r3, #3
10003be4:	705d      	strb	r5, [r3, #1]
10003be6:	7ba3      	ldrb	r3, [r4, #14]
10003be8:	2b00      	cmp	r3, #0
10003bea:	d100      	bne.n	10003bee <ph_remove_head+0x52>
10003bec:	73a5      	strb	r5, [r4, #14]
10003bee:	73e5      	strb	r5, [r4, #15]
10003bf0:	2900      	cmp	r1, #0
10003bf2:	d131      	bne.n	10003c58 <ph_remove_head+0xbc>
10003bf4:	2300      	movs	r3, #0
10003bf6:	0028      	movs	r0, r5
10003bf8:	7053      	strb	r3, [r2, #1]
10003bfa:	7361      	strb	r1, [r4, #13]
10003bfc:	b003      	add	sp, #12
10003bfe:	bcf0      	pop	{r4, r5, r6, r7}
10003c00:	46bb      	mov	fp, r7
10003c02:	46b2      	mov	sl, r6
10003c04:	46a9      	mov	r9, r5
10003c06:	46a0      	mov	r8, r4
10003c08:	bdf0      	pop	{r4, r5, r6, r7, pc}
10003c0a:	0072      	lsls	r2, r6, #1
10003c0c:	4462      	add	r2, ip
10003c0e:	3a03      	subs	r2, #3
10003c10:	1880      	adds	r0, r0, r2
10003c12:	7842      	ldrb	r2, [r0, #1]
10003c14:	4690      	mov	r8, r2
10003c16:	2200      	movs	r2, #0
10003c18:	7042      	strb	r2, [r0, #1]
10003c1a:	4691      	mov	r9, r2
10003c1c:	705a      	strb	r2, [r3, #1]
10003c1e:	0020      	movs	r0, r4
10003c20:	0032      	movs	r2, r6
10003c22:	f7ff fea1 	bl	10003968 <ph_merge_nodes>
10003c26:	4643      	mov	r3, r8
10003c28:	4682      	mov	sl, r0
10003c2a:	2b00      	cmp	r3, #0
10003c2c:	d007      	beq.n	10003c3e <ph_remove_head+0xa2>
10003c2e:	005b      	lsls	r3, r3, #1
10003c30:	6821      	ldr	r1, [r4, #0]
10003c32:	4443      	add	r3, r8
10003c34:	3b03      	subs	r3, #3
10003c36:	18cb      	adds	r3, r1, r3
10003c38:	785a      	ldrb	r2, [r3, #1]
10003c3a:	2a00      	cmp	r2, #0
10003c3c:	d117      	bne.n	10003c6e <ph_remove_head+0xd2>
10003c3e:	4642      	mov	r2, r8
10003c40:	4651      	mov	r1, sl
10003c42:	0020      	movs	r0, r4
10003c44:	f7ff fe90 	bl	10003968 <ph_merge_nodes>
10003c48:	9b01      	ldr	r3, [sp, #4]
10003c4a:	0001      	movs	r1, r0
10003c4c:	6820      	ldr	r0, [r4, #0]
10003c4e:	19c2      	adds	r2, r0, r7
10003c50:	2b00      	cmp	r3, #0
10003c52:	d1c0      	bne.n	10003bd6 <ph_remove_head+0x3a>
10003c54:	2900      	cmp	r1, #0
10003c56:	d0cd      	beq.n	10003bf4 <ph_remove_head+0x58>
10003c58:	004b      	lsls	r3, r1, #1
10003c5a:	185b      	adds	r3, r3, r1
10003c5c:	3b03      	subs	r3, #3
10003c5e:	18c3      	adds	r3, r0, r3
10003c60:	2000      	movs	r0, #0
10003c62:	7098      	strb	r0, [r3, #2]
10003c64:	e7c6      	b.n	10003bf4 <ph_remove_head+0x58>
10003c66:	9b01      	ldr	r3, [sp, #4]
10003c68:	2b00      	cmp	r3, #0
10003c6a:	d1b4      	bne.n	10003bd6 <ph_remove_head+0x3a>
10003c6c:	e7c2      	b.n	10003bf4 <ph_remove_head+0x58>
10003c6e:	0050      	lsls	r0, r2, #1
10003c70:	1880      	adds	r0, r0, r2
10003c72:	3803      	subs	r0, #3
10003c74:	1809      	adds	r1, r1, r0
10003c76:	7848      	ldrb	r0, [r1, #1]
10003c78:	4683      	mov	fp, r0
10003c7a:	4648      	mov	r0, r9
10003c7c:	7048      	strb	r0, [r1, #1]
10003c7e:	7058      	strb	r0, [r3, #1]
10003c80:	4641      	mov	r1, r8
10003c82:	0020      	movs	r0, r4
10003c84:	f7ff fe70 	bl	10003968 <ph_merge_nodes>
10003c88:	4659      	mov	r1, fp
10003c8a:	4680      	mov	r8, r0
10003c8c:	0020      	movs	r0, r4
10003c8e:	f7ff febd 	bl	10003a0c <ph_merge_two_pass>
10003c92:	4641      	mov	r1, r8
10003c94:	0002      	movs	r2, r0
10003c96:	0020      	movs	r0, r4
10003c98:	f7ff fe66 	bl	10003968 <ph_merge_nodes>
10003c9c:	4680      	mov	r8, r0
10003c9e:	e7ce      	b.n	10003c3e <ph_remove_head+0xa2>

10003ca0 <ph_remove_and_free_node>:
10003ca0:	b570      	push	{r4, r5, r6, lr}
10003ca2:	0004      	movs	r4, r0
10003ca4:	2900      	cmp	r1, #0
10003ca6:	d02c      	beq.n	10003d02 <ph_remove_and_free_node+0x62>
10003ca8:	7b43      	ldrb	r3, [r0, #13]
10003caa:	428b      	cmp	r3, r1
10003cac:	d02e      	beq.n	10003d0c <ph_remove_and_free_node+0x6c>
10003cae:	6805      	ldr	r5, [r0, #0]
10003cb0:	0048      	lsls	r0, r1, #1
10003cb2:	1840      	adds	r0, r0, r1
10003cb4:	3803      	subs	r0, #3
10003cb6:	1828      	adds	r0, r5, r0
10003cb8:	7882      	ldrb	r2, [r0, #2]
10003cba:	2a00      	cmp	r2, #0
10003cbc:	d021      	beq.n	10003d02 <ph_remove_and_free_node+0x62>
10003cbe:	0053      	lsls	r3, r2, #1
10003cc0:	189b      	adds	r3, r3, r2
10003cc2:	3b03      	subs	r3, #3
10003cc4:	5cea      	ldrb	r2, [r5, r3]
10003cc6:	18ee      	adds	r6, r5, r3
10003cc8:	428a      	cmp	r2, r1
10003cca:	d102      	bne.n	10003cd2 <ph_remove_and_free_node+0x32>
10003ccc:	e01b      	b.n	10003d06 <ph_remove_and_free_node+0x66>
10003cce:	2a00      	cmp	r2, #0
10003cd0:	d008      	beq.n	10003ce4 <ph_remove_and_free_node+0x44>
10003cd2:	0053      	lsls	r3, r2, #1
10003cd4:	189b      	adds	r3, r3, r2
10003cd6:	3b03      	subs	r3, #3
10003cd8:	18eb      	adds	r3, r5, r3
10003cda:	785a      	ldrb	r2, [r3, #1]
10003cdc:	428a      	cmp	r2, r1
10003cde:	d1f6      	bne.n	10003cce <ph_remove_and_free_node+0x2e>
10003ce0:	7842      	ldrb	r2, [r0, #1]
10003ce2:	705a      	strb	r2, [r3, #1]
10003ce4:	2300      	movs	r3, #0
10003ce6:	2201      	movs	r2, #1
10003ce8:	7083      	strb	r3, [r0, #2]
10003cea:	7043      	strb	r3, [r0, #1]
10003cec:	0020      	movs	r0, r4
10003cee:	f7ff fed5 	bl	10003a9c <ph_remove_any_head>
10003cf2:	7b61      	ldrb	r1, [r4, #13]
10003cf4:	0002      	movs	r2, r0
10003cf6:	0020      	movs	r0, r4
10003cf8:	f7ff fe36 	bl	10003968 <ph_merge_nodes>
10003cfc:	7360      	strb	r0, [r4, #13]
10003cfe:	2001      	movs	r0, #1
10003d00:	e000      	b.n	10003d04 <ph_remove_and_free_node+0x64>
10003d02:	2000      	movs	r0, #0
10003d04:	bd70      	pop	{r4, r5, r6, pc}
10003d06:	7843      	ldrb	r3, [r0, #1]
10003d08:	7033      	strb	r3, [r6, #0]
10003d0a:	e7eb      	b.n	10003ce4 <ph_remove_and_free_node+0x44>
10003d0c:	2201      	movs	r2, #1
10003d0e:	0019      	movs	r1, r3
10003d10:	f7ff fec4 	bl	10003a9c <ph_remove_any_head>
10003d14:	7360      	strb	r0, [r4, #13]
10003d16:	2001      	movs	r0, #1
10003d18:	e7f4      	b.n	10003d04 <ph_remove_and_free_node+0x64>
10003d1a:	46c0      	nop			; (mov r8, r8)

10003d1c <clocks_init>:
10003d1c:	b530      	push	{r4, r5, lr}
10003d1e:	200c      	movs	r0, #12
10003d20:	b083      	sub	sp, #12
10003d22:	f000 f9b3 	bl	1000408c <watchdog_start_tick>
10003d26:	f7fe ff35 	bl	10002b94 <running_on_fpga>
10003d2a:	2800      	cmp	r0, #0
10003d2c:	d00e      	beq.n	10003d4c <clocks_init+0x30>
10003d2e:	4b99      	ldr	r3, [pc, #612]	; (10003f94 <clocks_init+0x278>)
10003d30:	4a99      	ldr	r2, [pc, #612]	; (10003f98 <clocks_init+0x27c>)
10003d32:	601a      	str	r2, [r3, #0]
10003d34:	605a      	str	r2, [r3, #4]
10003d36:	609a      	str	r2, [r3, #8]
10003d38:	60da      	str	r2, [r3, #12]
10003d3a:	611a      	str	r2, [r3, #16]
10003d3c:	615a      	str	r2, [r3, #20]
10003d3e:	619a      	str	r2, [r3, #24]
10003d40:	61da      	str	r2, [r3, #28]
10003d42:	621a      	str	r2, [r3, #32]
10003d44:	4a95      	ldr	r2, [pc, #596]	; (10003f9c <clocks_init+0x280>)
10003d46:	625a      	str	r2, [r3, #36]	; 0x24
10003d48:	b003      	add	sp, #12
10003d4a:	bd30      	pop	{r4, r5, pc}
10003d4c:	4c94      	ldr	r4, [pc, #592]	; (10003fa0 <clocks_init+0x284>)
10003d4e:	67a0      	str	r0, [r4, #120]	; 0x78
10003d50:	f000 f9a4 	bl	1000409c <xosc_init>
10003d54:	2201      	movs	r2, #1
10003d56:	4b93      	ldr	r3, [pc, #588]	; (10003fa4 <clocks_init+0x288>)
10003d58:	601a      	str	r2, [r3, #0]
10003d5a:	6c63      	ldr	r3, [r4, #68]	; 0x44
10003d5c:	2b01      	cmp	r3, #1
10003d5e:	d1fc      	bne.n	10003d5a <clocks_init+0x3e>
10003d60:	2203      	movs	r2, #3
10003d62:	4b91      	ldr	r3, [pc, #580]	; (10003fa8 <clocks_init+0x28c>)
10003d64:	601a      	str	r2, [r3, #0]
10003d66:	4a8e      	ldr	r2, [pc, #568]	; (10003fa0 <clocks_init+0x284>)
10003d68:	6b93      	ldr	r3, [r2, #56]	; 0x38
10003d6a:	2b01      	cmp	r3, #1
10003d6c:	d1fc      	bne.n	10003d68 <clocks_init+0x4c>
10003d6e:	3301      	adds	r3, #1
10003d70:	2101      	movs	r1, #1
10003d72:	4a8e      	ldr	r2, [pc, #568]	; (10003fac <clocks_init+0x290>)
10003d74:	488e      	ldr	r0, [pc, #568]	; (10003fb0 <clocks_init+0x294>)
10003d76:	9300      	str	r3, [sp, #0]
10003d78:	3304      	adds	r3, #4
10003d7a:	f000 f937 	bl	10003fec <pll_init>
10003d7e:	2305      	movs	r3, #5
10003d80:	4a8c      	ldr	r2, [pc, #560]	; (10003fb4 <clocks_init+0x298>)
10003d82:	9300      	str	r3, [sp, #0]
10003d84:	2101      	movs	r1, #1
10003d86:	488c      	ldr	r0, [pc, #560]	; (10003fb8 <clocks_init+0x29c>)
10003d88:	f000 f930 	bl	10003fec <pll_init>
10003d8c:	4b8b      	ldr	r3, [pc, #556]	; (10003fbc <clocks_init+0x2a0>)
10003d8e:	685a      	ldr	r2, [r3, #4]
10003d90:	2aff      	cmp	r2, #255	; 0xff
10003d92:	d802      	bhi.n	10003d9a <clocks_init+0x7e>
10003d94:	2280      	movs	r2, #128	; 0x80
10003d96:	0052      	lsls	r2, r2, #1
10003d98:	605a      	str	r2, [r3, #4]
10003d9a:	2280      	movs	r2, #128	; 0x80
10003d9c:	4c7d      	ldr	r4, [pc, #500]	; (10003f94 <clocks_init+0x278>)
10003d9e:	4b82      	ldr	r3, [pc, #520]	; (10003fa8 <clocks_init+0x28c>)
10003da0:	6921      	ldr	r1, [r4, #16]
10003da2:	0112      	lsls	r2, r2, #4
10003da4:	4d85      	ldr	r5, [pc, #532]	; (10003fbc <clocks_init+0x2a0>)
10003da6:	601a      	str	r2, [r3, #0]
10003da8:	2900      	cmp	r1, #0
10003daa:	d007      	beq.n	10003dbc <clocks_init+0xa0>
10003dac:	6960      	ldr	r0, [r4, #20]
10003dae:	f001 fd6f 	bl	10005890 <__wrap___aeabi_uidiv>
10003db2:	1c43      	adds	r3, r0, #1
10003db4:	0058      	lsls	r0, r3, #1
10003db6:	18c0      	adds	r0, r0, r3
10003db8:	3803      	subs	r0, #3
10003dba:	d2fd      	bcs.n	10003db8 <clocks_init+0x9c>
10003dbc:	21e0      	movs	r1, #224	; 0xe0
10003dbe:	4b7f      	ldr	r3, [pc, #508]	; (10003fbc <clocks_init+0x2a0>)
10003dc0:	2002      	movs	r0, #2
10003dc2:	681a      	ldr	r2, [r3, #0]
10003dc4:	4011      	ands	r1, r2
10003dc6:	2280      	movs	r2, #128	; 0x80
10003dc8:	0152      	lsls	r2, r2, #5
10003dca:	432a      	orrs	r2, r5
10003dcc:	6011      	str	r1, [r2, #0]
10003dce:	6819      	ldr	r1, [r3, #0]
10003dd0:	4048      	eors	r0, r1
10003dd2:	2103      	movs	r1, #3
10003dd4:	4001      	ands	r1, r0
10003dd6:	6011      	str	r1, [r2, #0]
10003dd8:	2104      	movs	r1, #4
10003dda:	689a      	ldr	r2, [r3, #8]
10003ddc:	4211      	tst	r1, r2
10003dde:	d0fc      	beq.n	10003dda <clocks_init+0xbe>
10003de0:	2280      	movs	r2, #128	; 0x80
10003de2:	2180      	movs	r1, #128	; 0x80
10003de4:	0192      	lsls	r2, r2, #6
10003de6:	432a      	orrs	r2, r5
10003de8:	0109      	lsls	r1, r1, #4
10003dea:	6011      	str	r1, [r2, #0]
10003dec:	2280      	movs	r2, #128	; 0x80
10003dee:	0052      	lsls	r2, r2, #1
10003df0:	605a      	str	r2, [r3, #4]
10003df2:	4b73      	ldr	r3, [pc, #460]	; (10003fc0 <clocks_init+0x2a4>)
10003df4:	6123      	str	r3, [r4, #16]
10003df6:	4b73      	ldr	r3, [pc, #460]	; (10003fc4 <clocks_init+0x2a8>)
10003df8:	6859      	ldr	r1, [r3, #4]
10003dfa:	29ff      	cmp	r1, #255	; 0xff
10003dfc:	d800      	bhi.n	10003e00 <clocks_init+0xe4>
10003dfe:	605a      	str	r2, [r3, #4]
10003e00:	2103      	movs	r1, #3
10003e02:	4a68      	ldr	r2, [pc, #416]	; (10003fa4 <clocks_init+0x288>)
10003e04:	4b6f      	ldr	r3, [pc, #444]	; (10003fc4 <clocks_init+0x2a8>)
10003e06:	6011      	str	r1, [r2, #0]
10003e08:	3902      	subs	r1, #2
10003e0a:	689a      	ldr	r2, [r3, #8]
10003e0c:	4211      	tst	r1, r2
10003e0e:	d0fc      	beq.n	10003e0a <clocks_init+0xee>
10003e10:	20e0      	movs	r0, #224	; 0xe0
10003e12:	681a      	ldr	r2, [r3, #0]
10003e14:	4010      	ands	r0, r2
10003e16:	2280      	movs	r2, #128	; 0x80
10003e18:	0152      	lsls	r2, r2, #5
10003e1a:	431a      	orrs	r2, r3
10003e1c:	6010      	str	r0, [r2, #0]
10003e1e:	6818      	ldr	r0, [r3, #0]
10003e20:	4048      	eors	r0, r1
10003e22:	2103      	movs	r1, #3
10003e24:	4001      	ands	r1, r0
10003e26:	2002      	movs	r0, #2
10003e28:	6011      	str	r1, [r2, #0]
10003e2a:	4966      	ldr	r1, [pc, #408]	; (10003fc4 <clocks_init+0x2a8>)
10003e2c:	688a      	ldr	r2, [r1, #8]
10003e2e:	4210      	tst	r0, r2
10003e30:	d0fc      	beq.n	10003e2c <clocks_init+0x110>
10003e32:	2280      	movs	r2, #128	; 0x80
10003e34:	0192      	lsls	r2, r2, #6
10003e36:	4313      	orrs	r3, r2
10003e38:	2280      	movs	r2, #128	; 0x80
10003e3a:	0112      	lsls	r2, r2, #4
10003e3c:	601a      	str	r2, [r3, #0]
10003e3e:	2280      	movs	r2, #128	; 0x80
10003e40:	4b61      	ldr	r3, [pc, #388]	; (10003fc8 <clocks_init+0x2ac>)
10003e42:	0052      	lsls	r2, r2, #1
10003e44:	604a      	str	r2, [r1, #4]
10003e46:	6163      	str	r3, [r4, #20]
10003e48:	4b60      	ldr	r3, [pc, #384]	; (10003fcc <clocks_init+0x2b0>)
10003e4a:	6859      	ldr	r1, [r3, #4]
10003e4c:	29ff      	cmp	r1, #255	; 0xff
10003e4e:	d800      	bhi.n	10003e52 <clocks_init+0x136>
10003e50:	605a      	str	r2, [r3, #4]
10003e52:	2280      	movs	r2, #128	; 0x80
10003e54:	4b5e      	ldr	r3, [pc, #376]	; (10003fd0 <clocks_init+0x2b4>)
10003e56:	69e1      	ldr	r1, [r4, #28]
10003e58:	0112      	lsls	r2, r2, #4
10003e5a:	4d5c      	ldr	r5, [pc, #368]	; (10003fcc <clocks_init+0x2b0>)
10003e5c:	601a      	str	r2, [r3, #0]
10003e5e:	2900      	cmp	r1, #0
10003e60:	d007      	beq.n	10003e72 <clocks_init+0x156>
10003e62:	6960      	ldr	r0, [r4, #20]
10003e64:	f001 fd14 	bl	10005890 <__wrap___aeabi_uidiv>
10003e68:	1c43      	adds	r3, r0, #1
10003e6a:	0058      	lsls	r0, r3, #1
10003e6c:	18c0      	adds	r0, r0, r3
10003e6e:	3803      	subs	r0, #3
10003e70:	d2fd      	bcs.n	10003e6e <clocks_init+0x152>
10003e72:	22e0      	movs	r2, #224	; 0xe0
10003e74:	4955      	ldr	r1, [pc, #340]	; (10003fcc <clocks_init+0x2b0>)
10003e76:	680b      	ldr	r3, [r1, #0]
10003e78:	401a      	ands	r2, r3
10003e7a:	2380      	movs	r3, #128	; 0x80
10003e7c:	015b      	lsls	r3, r3, #5
10003e7e:	432b      	orrs	r3, r5
10003e80:	601a      	str	r2, [r3, #0]
10003e82:	2380      	movs	r3, #128	; 0x80
10003e84:	2280      	movs	r2, #128	; 0x80
10003e86:	019b      	lsls	r3, r3, #6
10003e88:	432b      	orrs	r3, r5
10003e8a:	0112      	lsls	r2, r2, #4
10003e8c:	601a      	str	r2, [r3, #0]
10003e8e:	2280      	movs	r2, #128	; 0x80
10003e90:	4b41      	ldr	r3, [pc, #260]	; (10003f98 <clocks_init+0x27c>)
10003e92:	0052      	lsls	r2, r2, #1
10003e94:	604a      	str	r2, [r1, #4]
10003e96:	61e3      	str	r3, [r4, #28]
10003e98:	4b4e      	ldr	r3, [pc, #312]	; (10003fd4 <clocks_init+0x2b8>)
10003e9a:	6859      	ldr	r1, [r3, #4]
10003e9c:	29ff      	cmp	r1, #255	; 0xff
10003e9e:	d800      	bhi.n	10003ea2 <clocks_init+0x186>
10003ea0:	605a      	str	r2, [r3, #4]
10003ea2:	2280      	movs	r2, #128	; 0x80
10003ea4:	4b4c      	ldr	r3, [pc, #304]	; (10003fd8 <clocks_init+0x2bc>)
10003ea6:	6a21      	ldr	r1, [r4, #32]
10003ea8:	0112      	lsls	r2, r2, #4
10003eaa:	4d4a      	ldr	r5, [pc, #296]	; (10003fd4 <clocks_init+0x2b8>)
10003eac:	601a      	str	r2, [r3, #0]
10003eae:	2900      	cmp	r1, #0
10003eb0:	d007      	beq.n	10003ec2 <clocks_init+0x1a6>
10003eb2:	6960      	ldr	r0, [r4, #20]
10003eb4:	f001 fcec 	bl	10005890 <__wrap___aeabi_uidiv>
10003eb8:	1c43      	adds	r3, r0, #1
10003eba:	0058      	lsls	r0, r3, #1
10003ebc:	18c0      	adds	r0, r0, r3
10003ebe:	3803      	subs	r0, #3
10003ec0:	d2fd      	bcs.n	10003ebe <clocks_init+0x1a2>
10003ec2:	22e0      	movs	r2, #224	; 0xe0
10003ec4:	4943      	ldr	r1, [pc, #268]	; (10003fd4 <clocks_init+0x2b8>)
10003ec6:	680b      	ldr	r3, [r1, #0]
10003ec8:	401a      	ands	r2, r3
10003eca:	2380      	movs	r3, #128	; 0x80
10003ecc:	015b      	lsls	r3, r3, #5
10003ece:	432b      	orrs	r3, r5
10003ed0:	601a      	str	r2, [r3, #0]
10003ed2:	2380      	movs	r3, #128	; 0x80
10003ed4:	2280      	movs	r2, #128	; 0x80
10003ed6:	019b      	lsls	r3, r3, #6
10003ed8:	432b      	orrs	r3, r5
10003eda:	0112      	lsls	r2, r2, #4
10003edc:	601a      	str	r2, [r3, #0]
10003ede:	2380      	movs	r3, #128	; 0x80
10003ee0:	2280      	movs	r2, #128	; 0x80
10003ee2:	005b      	lsls	r3, r3, #1
10003ee4:	604b      	str	r3, [r1, #4]
10003ee6:	4b2c      	ldr	r3, [pc, #176]	; (10003f98 <clocks_init+0x27c>)
10003ee8:	02d2      	lsls	r2, r2, #11
10003eea:	6223      	str	r3, [r4, #32]
10003eec:	4b3b      	ldr	r3, [pc, #236]	; (10003fdc <clocks_init+0x2c0>)
10003eee:	6859      	ldr	r1, [r3, #4]
10003ef0:	4291      	cmp	r1, r2
10003ef2:	d200      	bcs.n	10003ef6 <clocks_init+0x1da>
10003ef4:	605a      	str	r2, [r3, #4]
10003ef6:	2280      	movs	r2, #128	; 0x80
10003ef8:	4b39      	ldr	r3, [pc, #228]	; (10003fe0 <clocks_init+0x2c4>)
10003efa:	6a61      	ldr	r1, [r4, #36]	; 0x24
10003efc:	0112      	lsls	r2, r2, #4
10003efe:	4d37      	ldr	r5, [pc, #220]	; (10003fdc <clocks_init+0x2c0>)
10003f00:	601a      	str	r2, [r3, #0]
10003f02:	2900      	cmp	r1, #0
10003f04:	d007      	beq.n	10003f16 <clocks_init+0x1fa>
10003f06:	6960      	ldr	r0, [r4, #20]
10003f08:	f001 fcc2 	bl	10005890 <__wrap___aeabi_uidiv>
10003f0c:	1c43      	adds	r3, r0, #1
10003f0e:	0058      	lsls	r0, r3, #1
10003f10:	18c0      	adds	r0, r0, r3
10003f12:	3803      	subs	r0, #3
10003f14:	d2fd      	bcs.n	10003f12 <clocks_init+0x1f6>
10003f16:	22e0      	movs	r2, #224	; 0xe0
10003f18:	4930      	ldr	r1, [pc, #192]	; (10003fdc <clocks_init+0x2c0>)
10003f1a:	680b      	ldr	r3, [r1, #0]
10003f1c:	401a      	ands	r2, r3
10003f1e:	2380      	movs	r3, #128	; 0x80
10003f20:	015b      	lsls	r3, r3, #5
10003f22:	432b      	orrs	r3, r5
10003f24:	601a      	str	r2, [r3, #0]
10003f26:	2380      	movs	r3, #128	; 0x80
10003f28:	2280      	movs	r2, #128	; 0x80
10003f2a:	019b      	lsls	r3, r3, #6
10003f2c:	432b      	orrs	r3, r5
10003f2e:	0112      	lsls	r2, r2, #4
10003f30:	601a      	str	r2, [r3, #0]
10003f32:	2380      	movs	r3, #128	; 0x80
10003f34:	02db      	lsls	r3, r3, #11
10003f36:	604b      	str	r3, [r1, #4]
10003f38:	4b18      	ldr	r3, [pc, #96]	; (10003f9c <clocks_init+0x280>)
10003f3a:	6263      	str	r3, [r4, #36]	; 0x24
10003f3c:	4b29      	ldr	r3, [pc, #164]	; (10003fe4 <clocks_init+0x2c8>)
10003f3e:	685a      	ldr	r2, [r3, #4]
10003f40:	2aff      	cmp	r2, #255	; 0xff
10003f42:	d802      	bhi.n	10003f4a <clocks_init+0x22e>
10003f44:	2280      	movs	r2, #128	; 0x80
10003f46:	0052      	lsls	r2, r2, #1
10003f48:	605a      	str	r2, [r3, #4]
10003f4a:	2280      	movs	r2, #128	; 0x80
10003f4c:	4b26      	ldr	r3, [pc, #152]	; (10003fe8 <clocks_init+0x2cc>)
10003f4e:	69a1      	ldr	r1, [r4, #24]
10003f50:	0112      	lsls	r2, r2, #4
10003f52:	4d24      	ldr	r5, [pc, #144]	; (10003fe4 <clocks_init+0x2c8>)
10003f54:	601a      	str	r2, [r3, #0]
10003f56:	2900      	cmp	r1, #0
10003f58:	d007      	beq.n	10003f6a <clocks_init+0x24e>
10003f5a:	6960      	ldr	r0, [r4, #20]
10003f5c:	f001 fc98 	bl	10005890 <__wrap___aeabi_uidiv>
10003f60:	1c43      	adds	r3, r0, #1
10003f62:	0058      	lsls	r0, r3, #1
10003f64:	18c0      	adds	r0, r0, r3
10003f66:	3803      	subs	r0, #3
10003f68:	d2fd      	bcs.n	10003f66 <clocks_init+0x24a>
10003f6a:	22e0      	movs	r2, #224	; 0xe0
10003f6c:	491d      	ldr	r1, [pc, #116]	; (10003fe4 <clocks_init+0x2c8>)
10003f6e:	680b      	ldr	r3, [r1, #0]
10003f70:	401a      	ands	r2, r3
10003f72:	2380      	movs	r3, #128	; 0x80
10003f74:	015b      	lsls	r3, r3, #5
10003f76:	432b      	orrs	r3, r5
10003f78:	601a      	str	r2, [r3, #0]
10003f7a:	2380      	movs	r3, #128	; 0x80
10003f7c:	2280      	movs	r2, #128	; 0x80
10003f7e:	019b      	lsls	r3, r3, #6
10003f80:	432b      	orrs	r3, r5
10003f82:	0112      	lsls	r2, r2, #4
10003f84:	601a      	str	r2, [r3, #0]
10003f86:	2380      	movs	r3, #128	; 0x80
10003f88:	005b      	lsls	r3, r3, #1
10003f8a:	604b      	str	r3, [r1, #4]
10003f8c:	4b0e      	ldr	r3, [pc, #56]	; (10003fc8 <clocks_init+0x2ac>)
10003f8e:	61a3      	str	r3, [r4, #24]
10003f90:	e6da      	b.n	10003d48 <clocks_init+0x2c>
10003f92:	46c0      	nop			; (mov r8, r8)
10003f94:	200005a4 	.word	0x200005a4
10003f98:	02dc6c00 	.word	0x02dc6c00
10003f9c:	0000b71b 	.word	0x0000b71b
10003fa0:	40008000 	.word	0x40008000
10003fa4:	4000b03c 	.word	0x4000b03c
10003fa8:	4000b030 	.word	0x4000b030
10003fac:	59682f00 	.word	0x59682f00
10003fb0:	40028000 	.word	0x40028000
10003fb4:	47868c00 	.word	0x47868c00
10003fb8:	4002c000 	.word	0x4002c000
10003fbc:	40008030 	.word	0x40008030
10003fc0:	00b71b00 	.word	0x00b71b00
10003fc4:	4000803c 	.word	0x4000803c
10003fc8:	07735940 	.word	0x07735940
10003fcc:	40008054 	.word	0x40008054
10003fd0:	4000b054 	.word	0x4000b054
10003fd4:	40008060 	.word	0x40008060
10003fd8:	4000b060 	.word	0x4000b060
10003fdc:	4000806c 	.word	0x4000806c
10003fe0:	4000b06c 	.word	0x4000b06c
10003fe4:	40008048 	.word	0x40008048
10003fe8:	4000b048 	.word	0x4000b048

10003fec <pll_init>:
10003fec:	b5f8      	push	{r3, r4, r5, r6, r7, lr}
10003fee:	0004      	movs	r4, r0
10003ff0:	4821      	ldr	r0, [pc, #132]	; (10004078 <pll_init+0x8c>)
10003ff2:	001d      	movs	r5, r3
10003ff4:	0017      	movs	r7, r2
10003ff6:	000e      	movs	r6, r1
10003ff8:	f001 fc4a 	bl	10005890 <__wrap___aeabi_uidiv>
10003ffc:	0001      	movs	r1, r0
10003ffe:	0038      	movs	r0, r7
10004000:	f001 fc46 	bl	10005890 <__wrap___aeabi_uidiv>
10004004:	9b06      	ldr	r3, [sp, #24]
10004006:	0429      	lsls	r1, r5, #16
10004008:	031b      	lsls	r3, r3, #12
1000400a:	4319      	orrs	r1, r3
1000400c:	6823      	ldr	r3, [r4, #0]
1000400e:	2b00      	cmp	r3, #0
10004010:	db20      	blt.n	10004054 <pll_init+0x68>
10004012:	4b1a      	ldr	r3, [pc, #104]	; (1000407c <pll_init+0x90>)
10004014:	4d1a      	ldr	r5, [pc, #104]	; (10004080 <pll_init+0x94>)
10004016:	18e2      	adds	r2, r4, r3
10004018:	4253      	negs	r3, r2
1000401a:	415a      	adcs	r2, r3
1000401c:	2380      	movs	r3, #128	; 0x80
1000401e:	015b      	lsls	r3, r3, #5
10004020:	469c      	mov	ip, r3
10004022:	0312      	lsls	r2, r2, #12
10004024:	4b17      	ldr	r3, [pc, #92]	; (10004084 <pll_init+0x98>)
10004026:	4462      	add	r2, ip
10004028:	601a      	str	r2, [r3, #0]
1000402a:	4b17      	ldr	r3, [pc, #92]	; (10004088 <pll_init+0x9c>)
1000402c:	601a      	str	r2, [r3, #0]
1000402e:	0017      	movs	r7, r2
10004030:	68ab      	ldr	r3, [r5, #8]
10004032:	439f      	bics	r7, r3
10004034:	d1fb      	bne.n	1000402e <pll_init+0x42>
10004036:	22c0      	movs	r2, #192	; 0xc0
10004038:	1d23      	adds	r3, r4, #4
1000403a:	0192      	lsls	r2, r2, #6
1000403c:	431a      	orrs	r2, r3
1000403e:	2321      	movs	r3, #33	; 0x21
10004040:	6026      	str	r6, [r4, #0]
10004042:	60a0      	str	r0, [r4, #8]
10004044:	6013      	str	r3, [r2, #0]
10004046:	6823      	ldr	r3, [r4, #0]
10004048:	2b00      	cmp	r3, #0
1000404a:	dafc      	bge.n	10004046 <pll_init+0x5a>
1000404c:	2308      	movs	r3, #8
1000404e:	60e1      	str	r1, [r4, #12]
10004050:	6013      	str	r3, [r2, #0]
10004052:	bdf8      	pop	{r3, r4, r5, r6, r7, pc}
10004054:	233f      	movs	r3, #63	; 0x3f
10004056:	6822      	ldr	r2, [r4, #0]
10004058:	4013      	ands	r3, r2
1000405a:	42b3      	cmp	r3, r6
1000405c:	d1d9      	bne.n	10004012 <pll_init+0x26>
1000405e:	68a3      	ldr	r3, [r4, #8]
10004060:	051b      	lsls	r3, r3, #20
10004062:	0d1b      	lsrs	r3, r3, #20
10004064:	4283      	cmp	r3, r0
10004066:	d1d4      	bne.n	10004012 <pll_init+0x26>
10004068:	22ee      	movs	r2, #238	; 0xee
1000406a:	68e3      	ldr	r3, [r4, #12]
1000406c:	02d2      	lsls	r2, r2, #11
1000406e:	4013      	ands	r3, r2
10004070:	428b      	cmp	r3, r1
10004072:	d1ce      	bne.n	10004012 <pll_init+0x26>
10004074:	e7ed      	b.n	10004052 <pll_init+0x66>
10004076:	46c0      	nop			; (mov r8, r8)
10004078:	00b71b00 	.word	0x00b71b00
1000407c:	bffd4000 	.word	0xbffd4000
10004080:	4000c000 	.word	0x4000c000
10004084:	4000e000 	.word	0x4000e000
10004088:	4000f000 	.word	0x4000f000

1000408c <watchdog_start_tick>:
1000408c:	2380      	movs	r3, #128	; 0x80
1000408e:	4a02      	ldr	r2, [pc, #8]	; (10004098 <watchdog_start_tick+0xc>)
10004090:	009b      	lsls	r3, r3, #2
10004092:	4303      	orrs	r3, r0
10004094:	62d3      	str	r3, [r2, #44]	; 0x2c
10004096:	4770      	bx	lr
10004098:	40058000 	.word	0x40058000

1000409c <xosc_init>:
1000409c:	23aa      	movs	r3, #170	; 0xaa
1000409e:	4a06      	ldr	r2, [pc, #24]	; (100040b8 <xosc_init+0x1c>)
100040a0:	011b      	lsls	r3, r3, #4
100040a2:	6013      	str	r3, [r2, #0]
100040a4:	232f      	movs	r3, #47	; 0x2f
100040a6:	4905      	ldr	r1, [pc, #20]	; (100040bc <xosc_init+0x20>)
100040a8:	60d3      	str	r3, [r2, #12]
100040aa:	4b05      	ldr	r3, [pc, #20]	; (100040c0 <xosc_init+0x24>)
100040ac:	6019      	str	r1, [r3, #0]
100040ae:	6853      	ldr	r3, [r2, #4]
100040b0:	2b00      	cmp	r3, #0
100040b2:	dafc      	bge.n	100040ae <xosc_init+0x12>
100040b4:	4770      	bx	lr
100040b6:	46c0      	nop			; (mov r8, r8)
100040b8:	40024000 	.word	0x40024000
100040bc:	00fab000 	.word	0x00fab000
100040c0:	40026000 	.word	0x40026000

100040c4 <runtime_init>:
100040c4:	4b2c      	ldr	r3, [pc, #176]	; (10004178 <runtime_init+0xb4>)
100040c6:	4a2d      	ldr	r2, [pc, #180]	; (1000417c <runtime_init+0xb8>)
100040c8:	b570      	push	{r4, r5, r6, lr}
100040ca:	601a      	str	r2, [r3, #0]
100040cc:	4a2c      	ldr	r2, [pc, #176]	; (10004180 <runtime_init+0xbc>)
100040ce:	4b2d      	ldr	r3, [pc, #180]	; (10004184 <runtime_init+0xc0>)
100040d0:	492d      	ldr	r1, [pc, #180]	; (10004188 <runtime_init+0xc4>)
100040d2:	601a      	str	r2, [r3, #0]
100040d4:	0014      	movs	r4, r2
100040d6:	688b      	ldr	r3, [r1, #8]
100040d8:	439c      	bics	r4, r3
100040da:	d1fb      	bne.n	100040d4 <runtime_init+0x10>
100040dc:	4d2b      	ldr	r5, [pc, #172]	; (1000418c <runtime_init+0xc8>)
100040de:	4e2c      	ldr	r6, [pc, #176]	; (10004190 <runtime_init+0xcc>)
100040e0:	42b5      	cmp	r5, r6
100040e2:	d208      	bcs.n	100040f6 <runtime_init+0x32>
100040e4:	3e01      	subs	r6, #1
100040e6:	1b76      	subs	r6, r6, r5
100040e8:	08b6      	lsrs	r6, r6, #2
100040ea:	cd08      	ldmia	r5!, {r3}
100040ec:	4798      	blx	r3
100040ee:	0023      	movs	r3, r4
100040f0:	3401      	adds	r4, #1
100040f2:	42b3      	cmp	r3, r6
100040f4:	d1f9      	bne.n	100040ea <runtime_init+0x26>
100040f6:	f7ff fe11 	bl	10003d1c <clocks_init>
100040fa:	4a26      	ldr	r2, [pc, #152]	; (10004194 <runtime_init+0xd0>)
100040fc:	4b21      	ldr	r3, [pc, #132]	; (10004184 <runtime_init+0xc0>)
100040fe:	601a      	str	r2, [r3, #0]
10004100:	4a21      	ldr	r2, [pc, #132]	; (10004188 <runtime_init+0xc4>)
10004102:	6893      	ldr	r3, [r2, #8]
10004104:	43db      	mvns	r3, r3
10004106:	01db      	lsls	r3, r3, #7
10004108:	09dd      	lsrs	r5, r3, #7
1000410a:	2b00      	cmp	r3, #0
1000410c:	d1f9      	bne.n	10004102 <runtime_init+0x3e>
1000410e:	2240      	movs	r2, #64	; 0x40
10004110:	4b21      	ldr	r3, [pc, #132]	; (10004198 <runtime_init+0xd4>)
10004112:	4c22      	ldr	r4, [pc, #136]	; (1000419c <runtime_init+0xd8>)
10004114:	4e22      	ldr	r6, [pc, #136]	; (100041a0 <runtime_init+0xdc>)
10004116:	679a      	str	r2, [r3, #120]	; 0x78
10004118:	675a      	str	r2, [r3, #116]	; 0x74
1000411a:	671a      	str	r2, [r3, #112]	; 0x70
1000411c:	66da      	str	r2, [r3, #108]	; 0x6c
1000411e:	42b4      	cmp	r4, r6
10004120:	d208      	bcs.n	10004134 <runtime_init+0x70>
10004122:	6823      	ldr	r3, [r4, #0]
10004124:	0020      	movs	r0, r4
10004126:	2b00      	cmp	r3, #0
10004128:	d020      	beq.n	1000416c <runtime_init+0xa8>
1000412a:	3408      	adds	r4, #8
1000412c:	f7fe ff2a 	bl	10002f84 <recursive_mutex_init>
10004130:	42b4      	cmp	r4, r6
10004132:	d3f6      	bcc.n	10004122 <runtime_init+0x5e>
10004134:	4e1b      	ldr	r6, [pc, #108]	; (100041a4 <runtime_init+0xe0>)
10004136:	4c1c      	ldr	r4, [pc, #112]	; (100041a8 <runtime_init+0xe4>)
10004138:	22c0      	movs	r2, #192	; 0xc0
1000413a:	68a1      	ldr	r1, [r4, #8]
1000413c:	0030      	movs	r0, r6
1000413e:	f002 fae7 	bl	10006710 <__wrap___aeabi_memcpy>
10004142:	60a6      	str	r6, [r4, #8]
10004144:	f7fe fd66 	bl	10002c14 <spin_locks_reset>
10004148:	f7fe fef4 	bl	10002f34 <irq_init_priorities>
1000414c:	f7ff f8b8 	bl	100032c0 <alarm_pool_init_default>
10004150:	4c16      	ldr	r4, [pc, #88]	; (100041ac <runtime_init+0xe8>)
10004152:	4e17      	ldr	r6, [pc, #92]	; (100041b0 <runtime_init+0xec>)
10004154:	42b4      	cmp	r4, r6
10004156:	d208      	bcs.n	1000416a <runtime_init+0xa6>
10004158:	3e01      	subs	r6, #1
1000415a:	1b36      	subs	r6, r6, r4
1000415c:	08b6      	lsrs	r6, r6, #2
1000415e:	cc08      	ldmia	r4!, {r3}
10004160:	4798      	blx	r3
10004162:	002b      	movs	r3, r5
10004164:	3501      	adds	r5, #1
10004166:	429e      	cmp	r6, r3
10004168:	d1f9      	bne.n	1000415e <runtime_init+0x9a>
1000416a:	bd70      	pop	{r4, r5, r6, pc}
1000416c:	3408      	adds	r4, #8
1000416e:	f7fe fefb 	bl	10002f68 <mutex_init>
10004172:	42b4      	cmp	r4, r6
10004174:	d3d5      	bcc.n	10004122 <runtime_init+0x5e>
10004176:	e7dd      	b.n	10004134 <runtime_init+0x70>
10004178:	4000e000 	.word	0x4000e000
1000417c:	fefbcdbf 	.word	0xfefbcdbf
10004180:	003c7ffe 	.word	0x003c7ffe
10004184:	4000f000 	.word	0x4000f000
10004188:	4000c000 	.word	0x4000c000
1000418c:	20000248 	.word	0x20000248
10004190:	20000258 	.word	0x20000258
10004194:	01ffffff 	.word	0x01ffffff
10004198:	4001f000 	.word	0x4001f000
1000419c:	20000240 	.word	0x20000240
100041a0:	20000248 	.word	0x20000248
100041a4:	20000000 	.word	0x20000000
100041a8:	e000ed00 	.word	0xe000ed00
100041ac:	20000258 	.word	0x20000258
100041b0:	20000260 	.word	0x20000260

100041b4 <_exit>:
100041b4:	be00      	bkpt	0x0000
100041b6:	e7fd      	b.n	100041b4 <_exit>

100041b8 <exit>:
100041b8:	b510      	push	{r4, lr}
100041ba:	f7ff fffb 	bl	100041b4 <_exit>
100041be:	46c0      	nop			; (mov r8, r8)

100041c0 <panic>:
100041c0:	b40f      	push	{r0, r1, r2, r3}
100041c2:	b500      	push	{lr}
100041c4:	4808      	ldr	r0, [pc, #32]	; (100041e8 <panic+0x28>)
100041c6:	b083      	sub	sp, #12
100041c8:	f002 fbd4 	bl	10006974 <__wrap_puts>
100041cc:	9b04      	ldr	r3, [sp, #16]
100041ce:	2b00      	cmp	r3, #0
100041d0:	d007      	beq.n	100041e2 <panic+0x22>
100041d2:	a905      	add	r1, sp, #20
100041d4:	0018      	movs	r0, r3
100041d6:	9101      	str	r1, [sp, #4]
100041d8:	f001 fada 	bl	10005790 <weak_raw_vprintf>
100041dc:	4803      	ldr	r0, [pc, #12]	; (100041ec <panic+0x2c>)
100041de:	f002 fbc9 	bl	10006974 <__wrap_puts>
100041e2:	2001      	movs	r0, #1
100041e4:	f7ff ffe6 	bl	100041b4 <_exit>
100041e8:	100072d8 	.word	0x100072d8
100041ec:	100072e8 	.word	0x100072e8

100041f0 <hard_assertion_failure>:
100041f0:	b510      	push	{r4, lr}
100041f2:	4801      	ldr	r0, [pc, #4]	; (100041f8 <hard_assertion_failure+0x8>)
100041f4:	f7ff ffe4 	bl	100041c0 <panic>
100041f8:	100072ec 	.word	0x100072ec

100041fc <_out_buffer>:
100041fc:	429a      	cmp	r2, r3
100041fe:	d200      	bcs.n	10004202 <_out_buffer+0x6>
10004200:	5488      	strb	r0, [r1, r2]
10004202:	4770      	bx	lr

10004204 <_out_null>:
10004204:	4770      	bx	lr
10004206:	46c0      	nop			; (mov r8, r8)

10004208 <_out_rev>:
10004208:	b5f8      	push	{r3, r4, r5, r6, r7, lr}
1000420a:	4657      	mov	r7, sl
1000420c:	464e      	mov	r6, r9
1000420e:	4645      	mov	r5, r8
10004210:	46de      	mov	lr, fp
10004212:	b5e0      	push	{r5, r6, r7, lr}
10004214:	4699      	mov	r9, r3
10004216:	9b0a      	ldr	r3, [sp, #40]	; 0x28
10004218:	0007      	movs	r7, r0
1000421a:	469a      	mov	sl, r3
1000421c:	9b0d      	ldr	r3, [sp, #52]	; 0x34
1000421e:	4688      	mov	r8, r1
10004220:	4693      	mov	fp, r2
10004222:	0015      	movs	r5, r2
10004224:	9e0b      	ldr	r6, [sp, #44]	; 0x2c
10004226:	079b      	lsls	r3, r3, #30
10004228:	d110      	bne.n	1000424c <_out_rev+0x44>
1000422a:	9b0c      	ldr	r3, [sp, #48]	; 0x30
1000422c:	429e      	cmp	r6, r3
1000422e:	d20d      	bcs.n	1000424c <_out_rev+0x44>
10004230:	1b9d      	subs	r5, r3, r6
10004232:	0014      	movs	r4, r2
10004234:	000e      	movs	r6, r1
10004236:	445d      	add	r5, fp
10004238:	0022      	movs	r2, r4
1000423a:	464b      	mov	r3, r9
1000423c:	3401      	adds	r4, #1
1000423e:	0031      	movs	r1, r6
10004240:	2020      	movs	r0, #32
10004242:	47b8      	blx	r7
10004244:	42a5      	cmp	r5, r4
10004246:	d1f7      	bne.n	10004238 <_out_rev+0x30>
10004248:	46b0      	mov	r8, r6
1000424a:	9e0b      	ldr	r6, [sp, #44]	; 0x2c
1000424c:	2e00      	cmp	r6, #0
1000424e:	d027      	beq.n	100042a0 <_out_rev+0x98>
10004250:	4644      	mov	r4, r8
10004252:	1975      	adds	r5, r6, r5
10004254:	4653      	mov	r3, sl
10004256:	1baa      	subs	r2, r5, r6
10004258:	3e01      	subs	r6, #1
1000425a:	5d98      	ldrb	r0, [r3, r6]
1000425c:	0021      	movs	r1, r4
1000425e:	464b      	mov	r3, r9
10004260:	47b8      	blx	r7
10004262:	2e00      	cmp	r6, #0
10004264:	d1f6      	bne.n	10004254 <_out_rev+0x4c>
10004266:	0023      	movs	r3, r4
10004268:	002c      	movs	r4, r5
1000426a:	4698      	mov	r8, r3
1000426c:	9b0d      	ldr	r3, [sp, #52]	; 0x34
1000426e:	079b      	lsls	r3, r3, #30
10004270:	d50f      	bpl.n	10004292 <_out_rev+0x8a>
10004272:	465b      	mov	r3, fp
10004274:	1ae5      	subs	r5, r4, r3
10004276:	9b0c      	ldr	r3, [sp, #48]	; 0x30
10004278:	42ab      	cmp	r3, r5
1000427a:	d90a      	bls.n	10004292 <_out_rev+0x8a>
1000427c:	4646      	mov	r6, r8
1000427e:	4698      	mov	r8, r3
10004280:	0022      	movs	r2, r4
10004282:	464b      	mov	r3, r9
10004284:	0031      	movs	r1, r6
10004286:	2020      	movs	r0, #32
10004288:	3501      	adds	r5, #1
1000428a:	47b8      	blx	r7
1000428c:	3401      	adds	r4, #1
1000428e:	45a8      	cmp	r8, r5
10004290:	d8f6      	bhi.n	10004280 <_out_rev+0x78>
10004292:	0020      	movs	r0, r4
10004294:	bcf0      	pop	{r4, r5, r6, r7}
10004296:	46bb      	mov	fp, r7
10004298:	46b2      	mov	sl, r6
1000429a:	46a9      	mov	r9, r5
1000429c:	46a0      	mov	r8, r4
1000429e:	bdf8      	pop	{r3, r4, r5, r6, r7, pc}
100042a0:	002c      	movs	r4, r5
100042a2:	e7e3      	b.n	1000426c <_out_rev+0x64>

100042a4 <_ntoa_format>:
100042a4:	b5f0      	push	{r4, r5, r6, r7, lr}
100042a6:	464f      	mov	r7, r9
100042a8:	4646      	mov	r6, r8
100042aa:	46d6      	mov	lr, sl
100042ac:	b5c0      	push	{r6, r7, lr}
100042ae:	b084      	sub	sp, #16
100042b0:	4698      	mov	r8, r3
100042b2:	ab0e      	add	r3, sp, #56	; 0x38
100042b4:	781b      	ldrb	r3, [r3, #0]
100042b6:	9f12      	ldr	r7, [sp, #72]	; 0x48
100042b8:	4699      	mov	r9, r3
100042ba:	4694      	mov	ip, r2
100042bc:	9c0d      	ldr	r4, [sp, #52]	; 0x34
100042be:	9b10      	ldr	r3, [sp, #64]	; 0x40
100042c0:	9e11      	ldr	r6, [sp, #68]	; 0x44
100042c2:	07ba      	lsls	r2, r7, #30
100042c4:	d425      	bmi.n	10004312 <_ntoa_format+0x6e>
100042c6:	2e00      	cmp	r6, #0
100042c8:	d14b      	bne.n	10004362 <_ntoa_format+0xbe>
100042ca:	429c      	cmp	r4, r3
100042cc:	d300      	bcc.n	100042d0 <_ntoa_format+0x2c>
100042ce:	e0bf      	b.n	10004450 <_ntoa_format+0x1ac>
100042d0:	2201      	movs	r2, #1
100042d2:	403a      	ands	r2, r7
100042d4:	4692      	mov	sl, r2
100042d6:	2c1f      	cmp	r4, #31
100042d8:	d900      	bls.n	100042dc <_ntoa_format+0x38>
100042da:	e0b8      	b.n	1000444e <_ntoa_format+0x1aa>
100042dc:	9a0c      	ldr	r2, [sp, #48]	; 0x30
100042de:	1e55      	subs	r5, r2, #1
100042e0:	2230      	movs	r2, #48	; 0x30
100042e2:	e001      	b.n	100042e8 <_ntoa_format+0x44>
100042e4:	2c20      	cmp	r4, #32
100042e6:	d003      	beq.n	100042f0 <_ntoa_format+0x4c>
100042e8:	3401      	adds	r4, #1
100042ea:	552a      	strb	r2, [r5, r4]
100042ec:	42a3      	cmp	r3, r4
100042ee:	d8f9      	bhi.n	100042e4 <_ntoa_format+0x40>
100042f0:	4652      	mov	r2, sl
100042f2:	2a00      	cmp	r2, #0
100042f4:	d00d      	beq.n	10004312 <_ntoa_format+0x6e>
100042f6:	42a6      	cmp	r6, r4
100042f8:	d90b      	bls.n	10004312 <_ntoa_format+0x6e>
100042fa:	2c20      	cmp	r4, #32
100042fc:	d044      	beq.n	10004388 <_ntoa_format+0xe4>
100042fe:	9a0c      	ldr	r2, [sp, #48]	; 0x30
10004300:	1e55      	subs	r5, r2, #1
10004302:	2230      	movs	r2, #48	; 0x30
10004304:	e001      	b.n	1000430a <_ntoa_format+0x66>
10004306:	2c20      	cmp	r4, #32
10004308:	d03e      	beq.n	10004388 <_ntoa_format+0xe4>
1000430a:	3401      	adds	r4, #1
1000430c:	552a      	strb	r2, [r5, r4]
1000430e:	42b4      	cmp	r4, r6
10004310:	d1f9      	bne.n	10004306 <_ntoa_format+0x62>
10004312:	06fa      	lsls	r2, r7, #27
10004314:	d54d      	bpl.n	100043b2 <_ntoa_format+0x10e>
10004316:	057a      	lsls	r2, r7, #21
10004318:	d43f      	bmi.n	1000439a <_ntoa_format+0xf6>
1000431a:	2c00      	cmp	r4, #0
1000431c:	d139      	bne.n	10004392 <_ntoa_format+0xee>
1000431e:	9b0f      	ldr	r3, [sp, #60]	; 0x3c
10004320:	2b10      	cmp	r3, #16
10004322:	d100      	bne.n	10004326 <_ntoa_format+0x82>
10004324:	e079      	b.n	1000441a <_ntoa_format+0x176>
10004326:	9b0f      	ldr	r3, [sp, #60]	; 0x3c
10004328:	2b02      	cmp	r3, #2
1000432a:	d100      	bne.n	1000432e <_ntoa_format+0x8a>
1000432c:	e08a      	b.n	10004444 <_ntoa_format+0x1a0>
1000432e:	2330      	movs	r3, #48	; 0x30
10004330:	9a0c      	ldr	r2, [sp, #48]	; 0x30
10004332:	2401      	movs	r4, #1
10004334:	7013      	strb	r3, [r2, #0]
10004336:	464b      	mov	r3, r9
10004338:	2b00      	cmp	r3, #0
1000433a:	d03f      	beq.n	100043bc <_ntoa_format+0x118>
1000433c:	232d      	movs	r3, #45	; 0x2d
1000433e:	9a0c      	ldr	r2, [sp, #48]	; 0x30
10004340:	5513      	strb	r3, [r2, r4]
10004342:	3401      	adds	r4, #1
10004344:	9b0c      	ldr	r3, [sp, #48]	; 0x30
10004346:	4662      	mov	r2, ip
10004348:	9300      	str	r3, [sp, #0]
1000434a:	9703      	str	r7, [sp, #12]
1000434c:	4643      	mov	r3, r8
1000434e:	9602      	str	r6, [sp, #8]
10004350:	9401      	str	r4, [sp, #4]
10004352:	f7ff ff59 	bl	10004208 <_out_rev>
10004356:	b004      	add	sp, #16
10004358:	bce0      	pop	{r5, r6, r7}
1000435a:	46ba      	mov	sl, r7
1000435c:	46b1      	mov	r9, r6
1000435e:	46a8      	mov	r8, r5
10004360:	bdf0      	pop	{r4, r5, r6, r7, pc}
10004362:	2201      	movs	r2, #1
10004364:	0015      	movs	r5, r2
10004366:	403d      	ands	r5, r7
10004368:	46aa      	mov	sl, r5
1000436a:	423a      	tst	r2, r7
1000436c:	d02f      	beq.n	100043ce <_ntoa_format+0x12a>
1000436e:	464a      	mov	r2, r9
10004370:	2a00      	cmp	r2, #0
10004372:	d102      	bne.n	1000437a <_ntoa_format+0xd6>
10004374:	320c      	adds	r2, #12
10004376:	423a      	tst	r2, r7
10004378:	d000      	beq.n	1000437c <_ntoa_format+0xd8>
1000437a:	3e01      	subs	r6, #1
1000437c:	429c      	cmp	r4, r3
1000437e:	d2ba      	bcs.n	100042f6 <_ntoa_format+0x52>
10004380:	2c1f      	cmp	r4, #31
10004382:	d9ab      	bls.n	100042dc <_ntoa_format+0x38>
10004384:	2e20      	cmp	r6, #32
10004386:	d927      	bls.n	100043d8 <_ntoa_format+0x134>
10004388:	2420      	movs	r4, #32
1000438a:	06fa      	lsls	r2, r7, #27
1000438c:	d5da      	bpl.n	10004344 <_ntoa_format+0xa0>
1000438e:	057a      	lsls	r2, r7, #21
10004390:	d403      	bmi.n	1000439a <_ntoa_format+0xf6>
10004392:	42a3      	cmp	r3, r4
10004394:	d02d      	beq.n	100043f2 <_ntoa_format+0x14e>
10004396:	42a6      	cmp	r6, r4
10004398:	d02b      	beq.n	100043f2 <_ntoa_format+0x14e>
1000439a:	9b0f      	ldr	r3, [sp, #60]	; 0x3c
1000439c:	2b10      	cmp	r3, #16
1000439e:	d032      	beq.n	10004406 <_ntoa_format+0x162>
100043a0:	2b02      	cmp	r3, #2
100043a2:	d020      	beq.n	100043e6 <_ntoa_format+0x142>
100043a4:	2c20      	cmp	r4, #32
100043a6:	d0cd      	beq.n	10004344 <_ntoa_format+0xa0>
100043a8:	2230      	movs	r2, #48	; 0x30
100043aa:	9b0c      	ldr	r3, [sp, #48]	; 0x30
100043ac:	191b      	adds	r3, r3, r4
100043ae:	701a      	strb	r2, [r3, #0]
100043b0:	3401      	adds	r4, #1
100043b2:	2c20      	cmp	r4, #32
100043b4:	d0c6      	beq.n	10004344 <_ntoa_format+0xa0>
100043b6:	464b      	mov	r3, r9
100043b8:	2b00      	cmp	r3, #0
100043ba:	d1bf      	bne.n	1000433c <_ntoa_format+0x98>
100043bc:	077b      	lsls	r3, r7, #29
100043be:	d40d      	bmi.n	100043dc <_ntoa_format+0x138>
100043c0:	073b      	lsls	r3, r7, #28
100043c2:	d5bf      	bpl.n	10004344 <_ntoa_format+0xa0>
100043c4:	2320      	movs	r3, #32
100043c6:	9a0c      	ldr	r2, [sp, #48]	; 0x30
100043c8:	5513      	strb	r3, [r2, r4]
100043ca:	3401      	adds	r4, #1
100043cc:	e7ba      	b.n	10004344 <_ntoa_format+0xa0>
100043ce:	429c      	cmp	r4, r3
100043d0:	d29f      	bcs.n	10004312 <_ntoa_format+0x6e>
100043d2:	2c1f      	cmp	r4, #31
100043d4:	d800      	bhi.n	100043d8 <_ntoa_format+0x134>
100043d6:	e781      	b.n	100042dc <_ntoa_format+0x38>
100043d8:	2420      	movs	r4, #32
100043da:	e79a      	b.n	10004312 <_ntoa_format+0x6e>
100043dc:	232b      	movs	r3, #43	; 0x2b
100043de:	9a0c      	ldr	r2, [sp, #48]	; 0x30
100043e0:	5513      	strb	r3, [r2, r4]
100043e2:	3401      	adds	r4, #1
100043e4:	e7ae      	b.n	10004344 <_ntoa_format+0xa0>
100043e6:	2c20      	cmp	r4, #32
100043e8:	d0ac      	beq.n	10004344 <_ntoa_format+0xa0>
100043ea:	9b0c      	ldr	r3, [sp, #48]	; 0x30
100043ec:	191b      	adds	r3, r3, r4
100043ee:	3401      	adds	r4, #1
100043f0:	e03a      	b.n	10004468 <_ntoa_format+0x1c4>
100043f2:	1e63      	subs	r3, r4, #1
100043f4:	2c01      	cmp	r4, #1
100043f6:	d092      	beq.n	1000431e <_ntoa_format+0x7a>
100043f8:	9a0f      	ldr	r2, [sp, #60]	; 0x3c
100043fa:	2a10      	cmp	r2, #16
100043fc:	d02a      	beq.n	10004454 <_ntoa_format+0x1b0>
100043fe:	2a02      	cmp	r2, #2
10004400:	d02f      	beq.n	10004462 <_ntoa_format+0x1be>
10004402:	001c      	movs	r4, r3
10004404:	e7d0      	b.n	100043a8 <_ntoa_format+0x104>
10004406:	06bb      	lsls	r3, r7, #26
10004408:	d40e      	bmi.n	10004428 <_ntoa_format+0x184>
1000440a:	2c20      	cmp	r4, #32
1000440c:	d09a      	beq.n	10004344 <_ntoa_format+0xa0>
1000440e:	9b0c      	ldr	r3, [sp, #48]	; 0x30
10004410:	191a      	adds	r2, r3, r4
10004412:	3401      	adds	r4, #1
10004414:	2378      	movs	r3, #120	; 0x78
10004416:	7013      	strb	r3, [r2, #0]
10004418:	e7c4      	b.n	100043a4 <_ntoa_format+0x100>
1000441a:	06bb      	lsls	r3, r7, #26
1000441c:	d40d      	bmi.n	1000443a <_ntoa_format+0x196>
1000441e:	2378      	movs	r3, #120	; 0x78
10004420:	9a0c      	ldr	r2, [sp, #48]	; 0x30
10004422:	2401      	movs	r4, #1
10004424:	7013      	strb	r3, [r2, #0]
10004426:	e7bf      	b.n	100043a8 <_ntoa_format+0x104>
10004428:	2c20      	cmp	r4, #32
1000442a:	d100      	bne.n	1000442e <_ntoa_format+0x18a>
1000442c:	e78a      	b.n	10004344 <_ntoa_format+0xa0>
1000442e:	2258      	movs	r2, #88	; 0x58
10004430:	9b0c      	ldr	r3, [sp, #48]	; 0x30
10004432:	191b      	adds	r3, r3, r4
10004434:	701a      	strb	r2, [r3, #0]
10004436:	3401      	adds	r4, #1
10004438:	e7b4      	b.n	100043a4 <_ntoa_format+0x100>
1000443a:	2358      	movs	r3, #88	; 0x58
1000443c:	9a0c      	ldr	r2, [sp, #48]	; 0x30
1000443e:	2401      	movs	r4, #1
10004440:	7013      	strb	r3, [r2, #0]
10004442:	e7b1      	b.n	100043a8 <_ntoa_format+0x104>
10004444:	9a0c      	ldr	r2, [sp, #48]	; 0x30
10004446:	3360      	adds	r3, #96	; 0x60
10004448:	2401      	movs	r4, #1
1000444a:	7013      	strb	r3, [r2, #0]
1000444c:	e7ac      	b.n	100043a8 <_ntoa_format+0x104>
1000444e:	2420      	movs	r4, #32
10004450:	2600      	movs	r6, #0
10004452:	e75e      	b.n	10004312 <_ntoa_format+0x6e>
10004454:	3c02      	subs	r4, #2
10004456:	06ba      	lsls	r2, r7, #26
10004458:	d4e9      	bmi.n	1000442e <_ntoa_format+0x18a>
1000445a:	9a0c      	ldr	r2, [sp, #48]	; 0x30
1000445c:	1912      	adds	r2, r2, r4
1000445e:	001c      	movs	r4, r3
10004460:	e7d8      	b.n	10004414 <_ntoa_format+0x170>
10004462:	9a0c      	ldr	r2, [sp, #48]	; 0x30
10004464:	4692      	mov	sl, r2
10004466:	4453      	add	r3, sl
10004468:	2262      	movs	r2, #98	; 0x62
1000446a:	701a      	strb	r2, [r3, #0]
1000446c:	e79a      	b.n	100043a4 <_ntoa_format+0x100>
1000446e:	46c0      	nop			; (mov r8, r8)

10004470 <_out_char>:
10004470:	b510      	push	{r4, lr}
10004472:	2800      	cmp	r0, #0
10004474:	d100      	bne.n	10004478 <_out_char+0x8>
10004476:	bd10      	pop	{r4, pc}
10004478:	f002 fa30 	bl	100068dc <__wrap_putchar>
1000447c:	e7fb      	b.n	10004476 <_out_char+0x6>
1000447e:	46c0      	nop			; (mov r8, r8)

10004480 <_etoa>:
10004480:	b5f0      	push	{r4, r5, r6, r7, lr}
10004482:	46de      	mov	lr, fp
10004484:	4657      	mov	r7, sl
10004486:	464e      	mov	r6, r9
10004488:	4645      	mov	r5, r8
1000448a:	b5e0      	push	{r5, r6, r7, lr}
1000448c:	b09b      	sub	sp, #108	; 0x6c
1000448e:	469b      	mov	fp, r3
10004490:	9b24      	ldr	r3, [sp, #144]	; 0x90
10004492:	4689      	mov	r9, r1
10004494:	4698      	mov	r8, r3
10004496:	9b25      	ldr	r3, [sp, #148]	; 0x94
10004498:	900b      	str	r0, [sp, #44]	; 0x2c
1000449a:	920c      	str	r2, [sp, #48]	; 0x30
1000449c:	4640      	mov	r0, r8
1000449e:	4642      	mov	r2, r8
100044a0:	0019      	movs	r1, r3
100044a2:	469a      	mov	sl, r3
100044a4:	f001 fcbd 	bl	10005e22 <__wrap___aeabi_dcmpun>
100044a8:	2800      	cmp	r0, #0
100044aa:	d000      	beq.n	100044ae <_etoa+0x2e>
100044ac:	e0d8      	b.n	10004660 <_etoa+0x1e0>
100044ae:	2201      	movs	r2, #1
100044b0:	4640      	mov	r0, r8
100044b2:	4651      	mov	r1, sl
100044b4:	4b77      	ldr	r3, [pc, #476]	; (10004694 <_etoa+0x214>)
100044b6:	4252      	negs	r2, r2
100044b8:	f001 fcae 	bl	10005e18 <__wrap___aeabi_dcmpgt>
100044bc:	2800      	cmp	r0, #0
100044be:	d000      	beq.n	100044c2 <_etoa+0x42>
100044c0:	e0ce      	b.n	10004660 <_etoa+0x1e0>
100044c2:	2201      	movs	r2, #1
100044c4:	4640      	mov	r0, r8
100044c6:	4651      	mov	r1, sl
100044c8:	4b73      	ldr	r3, [pc, #460]	; (10004698 <_etoa+0x218>)
100044ca:	4252      	negs	r2, r2
100044cc:	f001 fc8e 	bl	10005dec <__wrap___aeabi_dcmplt>
100044d0:	2800      	cmp	r0, #0
100044d2:	d000      	beq.n	100044d6 <_etoa+0x56>
100044d4:	e0c4      	b.n	10004660 <_etoa+0x1e0>
100044d6:	2200      	movs	r2, #0
100044d8:	2300      	movs	r3, #0
100044da:	4640      	mov	r0, r8
100044dc:	4651      	mov	r1, sl
100044de:	f001 fc85 	bl	10005dec <__wrap___aeabi_dcmplt>
100044e2:	2800      	cmp	r0, #0
100044e4:	d000      	beq.n	100044e8 <_etoa+0x68>
100044e6:	e1b9      	b.n	1000485c <_etoa+0x3dc>
100044e8:	4642      	mov	r2, r8
100044ea:	4653      	mov	r3, sl
100044ec:	920a      	str	r2, [sp, #40]	; 0x28
100044ee:	9309      	str	r3, [sp, #36]	; 0x24
100044f0:	2380      	movs	r3, #128	; 0x80
100044f2:	9a28      	ldr	r2, [sp, #160]	; 0xa0
100044f4:	00db      	lsls	r3, r3, #3
100044f6:	401a      	ands	r2, r3
100044f8:	920e      	str	r2, [sp, #56]	; 0x38
100044fa:	9a28      	ldr	r2, [sp, #160]	; 0xa0
100044fc:	421a      	tst	r2, r3
100044fe:	d101      	bne.n	10004504 <_etoa+0x84>
10004500:	2306      	movs	r3, #6
10004502:	9326      	str	r3, [sp, #152]	; 0x98
10004504:	9a0a      	ldr	r2, [sp, #40]	; 0x28
10004506:	9b09      	ldr	r3, [sp, #36]	; 0x24
10004508:	0016      	movs	r6, r2
1000450a:	4313      	orrs	r3, r2
1000450c:	d000      	beq.n	10004510 <_etoa+0x90>
1000450e:	e0c7      	b.n	100046a0 <_etoa+0x220>
10004510:	9b28      	ldr	r3, [sp, #160]	; 0xa0
10004512:	2500      	movs	r5, #0
10004514:	2600      	movs	r6, #0
10004516:	051b      	lsls	r3, r3, #20
10004518:	d400      	bmi.n	1000451c <_etoa+0x9c>
1000451a:	e19b      	b.n	10004854 <_etoa+0x3d4>
1000451c:	2300      	movs	r3, #0
1000451e:	930d      	str	r3, [sp, #52]	; 0x34
10004520:	9a26      	ldr	r2, [sp, #152]	; 0x98
10004522:	9b0d      	ldr	r3, [sp, #52]	; 0x34
10004524:	429a      	cmp	r2, r3
10004526:	dc00      	bgt.n	1000452a <_etoa+0xaa>
10004528:	e19f      	b.n	1000486a <_etoa+0x3ea>
1000452a:	1ad0      	subs	r0, r2, r3
1000452c:	1e43      	subs	r3, r0, #1
1000452e:	9326      	str	r3, [sp, #152]	; 0x98
10004530:	2380      	movs	r3, #128	; 0x80
10004532:	9a28      	ldr	r2, [sp, #160]	; 0xa0
10004534:	00db      	lsls	r3, r3, #3
10004536:	431a      	orrs	r2, r3
10004538:	2300      	movs	r3, #0
1000453a:	2700      	movs	r7, #0
1000453c:	9228      	str	r2, [sp, #160]	; 0xa0
1000453e:	930d      	str	r3, [sp, #52]	; 0x34
10004540:	9b27      	ldr	r3, [sp, #156]	; 0x9c
10004542:	2400      	movs	r4, #0
10004544:	42bb      	cmp	r3, r7
10004546:	d900      	bls.n	1000454a <_etoa+0xca>
10004548:	1bdc      	subs	r4, r3, r7
1000454a:	2302      	movs	r3, #2
1000454c:	9a28      	ldr	r2, [sp, #160]	; 0xa0
1000454e:	401a      	ands	r2, r3
10004550:	920e      	str	r2, [sp, #56]	; 0x38
10004552:	9a28      	ldr	r2, [sp, #160]	; 0xa0
10004554:	4213      	tst	r3, r2
10004556:	d003      	beq.n	10004560 <_etoa+0xe0>
10004558:	427b      	negs	r3, r7
1000455a:	417b      	adcs	r3, r7
1000455c:	425b      	negs	r3, r3
1000455e:	401c      	ands	r4, r3
10004560:	9b0d      	ldr	r3, [sp, #52]	; 0x34
10004562:	2b00      	cmp	r3, #0
10004564:	d007      	beq.n	10004576 <_etoa+0xf6>
10004566:	980a      	ldr	r0, [sp, #40]	; 0x28
10004568:	9909      	ldr	r1, [sp, #36]	; 0x24
1000456a:	002a      	movs	r2, r5
1000456c:	0033      	movs	r3, r6
1000456e:	f001 fbdc 	bl	10005d2a <__wrap___aeabi_ddiv>
10004572:	900a      	str	r0, [sp, #40]	; 0x28
10004574:	9109      	str	r1, [sp, #36]	; 0x24
10004576:	2200      	movs	r2, #0
10004578:	2300      	movs	r3, #0
1000457a:	4640      	mov	r0, r8
1000457c:	4651      	mov	r1, sl
1000457e:	f001 fc35 	bl	10005dec <__wrap___aeabi_dcmplt>
10004582:	2800      	cmp	r0, #0
10004584:	d005      	beq.n	10004592 <_etoa+0x112>
10004586:	2080      	movs	r0, #128	; 0x80
10004588:	0600      	lsls	r0, r0, #24
1000458a:	4684      	mov	ip, r0
1000458c:	9909      	ldr	r1, [sp, #36]	; 0x24
1000458e:	4461      	add	r1, ip
10004590:	9109      	str	r1, [sp, #36]	; 0x24
10004592:	9a28      	ldr	r2, [sp, #160]	; 0xa0
10004594:	4b41      	ldr	r3, [pc, #260]	; (1000469c <_etoa+0x21c>)
10004596:	9d0b      	ldr	r5, [sp, #44]	; 0x2c
10004598:	4013      	ands	r3, r2
1000459a:	9304      	str	r3, [sp, #16]
1000459c:	9b26      	ldr	r3, [sp, #152]	; 0x98
1000459e:	9a0a      	ldr	r2, [sp, #40]	; 0x28
100045a0:	9302      	str	r3, [sp, #8]
100045a2:	9b09      	ldr	r3, [sp, #36]	; 0x24
100045a4:	9403      	str	r4, [sp, #12]
100045a6:	9200      	str	r2, [sp, #0]
100045a8:	9301      	str	r3, [sp, #4]
100045aa:	4649      	mov	r1, r9
100045ac:	465b      	mov	r3, fp
100045ae:	0028      	movs	r0, r5
100045b0:	9a0c      	ldr	r2, [sp, #48]	; 0x30
100045b2:	f000 f98b 	bl	100048cc <_ftoa>
100045b6:	0004      	movs	r4, r0
100045b8:	2f00      	cmp	r7, #0
100045ba:	d062      	beq.n	10004682 <_etoa+0x202>
100045bc:	9b28      	ldr	r3, [sp, #160]	; 0xa0
100045be:	0022      	movs	r2, r4
100045c0:	0698      	lsls	r0, r3, #26
100045c2:	231f      	movs	r3, #31
100045c4:	17c0      	asrs	r0, r0, #31
100045c6:	4398      	bics	r0, r3
100045c8:	1c63      	adds	r3, r4, #1
100045ca:	4698      	mov	r8, r3
100045cc:	4649      	mov	r1, r9
100045ce:	465b      	mov	r3, fp
100045d0:	3065      	adds	r0, #101	; 0x65
100045d2:	47a8      	blx	r5
100045d4:	9b0d      	ldr	r3, [sp, #52]	; 0x34
100045d6:	2500      	movs	r5, #0
100045d8:	17da      	asrs	r2, r3, #31
100045da:	189c      	adds	r4, r3, r2
100045dc:	0fdb      	lsrs	r3, r3, #31
100045de:	469a      	mov	sl, r3
100045e0:	4054      	eors	r4, r2
100045e2:	3f01      	subs	r7, #1
100045e4:	e001      	b.n	100045ea <_etoa+0x16a>
100045e6:	2d20      	cmp	r5, #32
100045e8:	d013      	beq.n	10004612 <_etoa+0x192>
100045ea:	aa0a      	add	r2, sp, #40	; 0x28
100045ec:	4694      	mov	ip, r2
100045ee:	231f      	movs	r3, #31
100045f0:	0020      	movs	r0, r4
100045f2:	4463      	add	r3, ip
100045f4:	210a      	movs	r1, #10
100045f6:	3501      	adds	r5, #1
100045f8:	195e      	adds	r6, r3, r5
100045fa:	f001 f949 	bl	10005890 <__wrap___aeabi_uidiv>
100045fe:	3130      	adds	r1, #48	; 0x30
10004600:	7031      	strb	r1, [r6, #0]
10004602:	0020      	movs	r0, r4
10004604:	210a      	movs	r1, #10
10004606:	f001 f943 	bl	10005890 <__wrap___aeabi_uidiv>
1000460a:	0026      	movs	r6, r4
1000460c:	0004      	movs	r4, r0
1000460e:	2e09      	cmp	r6, #9
10004610:	d8e9      	bhi.n	100045e6 <_etoa+0x166>
10004612:	2305      	movs	r3, #5
10004614:	9306      	str	r3, [sp, #24]
10004616:	2300      	movs	r3, #0
10004618:	9304      	str	r3, [sp, #16]
1000461a:	330a      	adds	r3, #10
1000461c:	9303      	str	r3, [sp, #12]
1000461e:	4653      	mov	r3, sl
10004620:	9705      	str	r7, [sp, #20]
10004622:	9f0b      	ldr	r7, [sp, #44]	; 0x2c
10004624:	9302      	str	r3, [sp, #8]
10004626:	ab12      	add	r3, sp, #72	; 0x48
10004628:	9300      	str	r3, [sp, #0]
1000462a:	4642      	mov	r2, r8
1000462c:	465b      	mov	r3, fp
1000462e:	4649      	mov	r1, r9
10004630:	0038      	movs	r0, r7
10004632:	9501      	str	r5, [sp, #4]
10004634:	f7ff fe36 	bl	100042a4 <_ntoa_format>
10004638:	9b0e      	ldr	r3, [sp, #56]	; 0x38
1000463a:	0004      	movs	r4, r0
1000463c:	2b00      	cmp	r3, #0
1000463e:	d020      	beq.n	10004682 <_etoa+0x202>
10004640:	9b0c      	ldr	r3, [sp, #48]	; 0x30
10004642:	1ac5      	subs	r5, r0, r3
10004644:	9b27      	ldr	r3, [sp, #156]	; 0x9c
10004646:	42ab      	cmp	r3, r5
10004648:	d91b      	bls.n	10004682 <_etoa+0x202>
1000464a:	001e      	movs	r6, r3
1000464c:	0022      	movs	r2, r4
1000464e:	465b      	mov	r3, fp
10004650:	4649      	mov	r1, r9
10004652:	2020      	movs	r0, #32
10004654:	3501      	adds	r5, #1
10004656:	47b8      	blx	r7
10004658:	3401      	adds	r4, #1
1000465a:	42ae      	cmp	r6, r5
1000465c:	d8f6      	bhi.n	1000464c <_etoa+0x1cc>
1000465e:	e010      	b.n	10004682 <_etoa+0x202>
10004660:	9b28      	ldr	r3, [sp, #160]	; 0xa0
10004662:	4642      	mov	r2, r8
10004664:	9304      	str	r3, [sp, #16]
10004666:	9b27      	ldr	r3, [sp, #156]	; 0x9c
10004668:	4649      	mov	r1, r9
1000466a:	9303      	str	r3, [sp, #12]
1000466c:	9b26      	ldr	r3, [sp, #152]	; 0x98
1000466e:	980b      	ldr	r0, [sp, #44]	; 0x2c
10004670:	9302      	str	r3, [sp, #8]
10004672:	4653      	mov	r3, sl
10004674:	9200      	str	r2, [sp, #0]
10004676:	9301      	str	r3, [sp, #4]
10004678:	465b      	mov	r3, fp
1000467a:	9a0c      	ldr	r2, [sp, #48]	; 0x30
1000467c:	f000 f926 	bl	100048cc <_ftoa>
10004680:	0004      	movs	r4, r0
10004682:	0020      	movs	r0, r4
10004684:	b01b      	add	sp, #108	; 0x6c
10004686:	bcf0      	pop	{r4, r5, r6, r7}
10004688:	46bb      	mov	fp, r7
1000468a:	46b2      	mov	sl, r6
1000468c:	46a9      	mov	r9, r5
1000468e:	46a0      	mov	r8, r4
10004690:	bdf0      	pop	{r4, r5, r6, r7, pc}
10004692:	46c0      	nop			; (mov r8, r8)
10004694:	7fefffff 	.word	0x7fefffff
10004698:	ffefffff 	.word	0xffefffff
1000469c:	fffff7ff 	.word	0xfffff7ff
100046a0:	4b73      	ldr	r3, [pc, #460]	; (10004870 <_etoa+0x3f0>)
100046a2:	9f09      	ldr	r7, [sp, #36]	; 0x24
100046a4:	469c      	mov	ip, r3
100046a6:	0078      	lsls	r0, r7, #1
100046a8:	0d40      	lsrs	r0, r0, #21
100046aa:	4460      	add	r0, ip
100046ac:	f001 fbcc 	bl	10005e48 <__wrap___aeabi_i2d>
100046b0:	4a70      	ldr	r2, [pc, #448]	; (10004874 <_etoa+0x3f4>)
100046b2:	4b71      	ldr	r3, [pc, #452]	; (10004878 <_etoa+0x3f8>)
100046b4:	f001 fb57 	bl	10005d66 <__wrap___aeabi_dmul>
100046b8:	4a70      	ldr	r2, [pc, #448]	; (1000487c <_etoa+0x3fc>)
100046ba:	4b71      	ldr	r3, [pc, #452]	; (10004880 <_etoa+0x400>)
100046bc:	f001 fb2c 	bl	10005d18 <__wrap___aeabi_dadd>
100046c0:	033b      	lsls	r3, r7, #12
100046c2:	4a70      	ldr	r2, [pc, #448]	; (10004884 <_etoa+0x404>)
100046c4:	0b1b      	lsrs	r3, r3, #12
100046c6:	431a      	orrs	r2, r3
100046c8:	0004      	movs	r4, r0
100046ca:	000d      	movs	r5, r1
100046cc:	0030      	movs	r0, r6
100046ce:	0011      	movs	r1, r2
100046d0:	4b6d      	ldr	r3, [pc, #436]	; (10004888 <_etoa+0x408>)
100046d2:	2200      	movs	r2, #0
100046d4:	f001 fb17 	bl	10005d06 <__wrap___aeabi_dsub>
100046d8:	4a6c      	ldr	r2, [pc, #432]	; (1000488c <_etoa+0x40c>)
100046da:	4b6d      	ldr	r3, [pc, #436]	; (10004890 <_etoa+0x410>)
100046dc:	f001 fb43 	bl	10005d66 <__wrap___aeabi_dmul>
100046e0:	0002      	movs	r2, r0
100046e2:	000b      	movs	r3, r1
100046e4:	0020      	movs	r0, r4
100046e6:	0029      	movs	r1, r5
100046e8:	f001 fb16 	bl	10005d18 <__wrap___aeabi_dadd>
100046ec:	f001 fbc4 	bl	10005e78 <__wrap___aeabi_d2iz>
100046f0:	900d      	str	r0, [sp, #52]	; 0x34
100046f2:	f001 fba9 	bl	10005e48 <__wrap___aeabi_i2d>
100046f6:	4a67      	ldr	r2, [pc, #412]	; (10004894 <_etoa+0x414>)
100046f8:	4b67      	ldr	r3, [pc, #412]	; (10004898 <_etoa+0x418>)
100046fa:	0004      	movs	r4, r0
100046fc:	000d      	movs	r5, r1
100046fe:	f001 fb32 	bl	10005d66 <__wrap___aeabi_dmul>
10004702:	2200      	movs	r2, #0
10004704:	4b65      	ldr	r3, [pc, #404]	; (1000489c <_etoa+0x41c>)
10004706:	f001 fb07 	bl	10005d18 <__wrap___aeabi_dadd>
1000470a:	f001 fbb5 	bl	10005e78 <__wrap___aeabi_d2iz>
1000470e:	4a64      	ldr	r2, [pc, #400]	; (100048a0 <_etoa+0x420>)
10004710:	0006      	movs	r6, r0
10004712:	4b64      	ldr	r3, [pc, #400]	; (100048a4 <_etoa+0x424>)
10004714:	0020      	movs	r0, r4
10004716:	0029      	movs	r1, r5
10004718:	f001 fb25 	bl	10005d66 <__wrap___aeabi_dmul>
1000471c:	0004      	movs	r4, r0
1000471e:	0030      	movs	r0, r6
10004720:	000d      	movs	r5, r1
10004722:	960f      	str	r6, [sp, #60]	; 0x3c
10004724:	f001 fb90 	bl	10005e48 <__wrap___aeabi_i2d>
10004728:	4a5f      	ldr	r2, [pc, #380]	; (100048a8 <_etoa+0x428>)
1000472a:	4b60      	ldr	r3, [pc, #384]	; (100048ac <_etoa+0x42c>)
1000472c:	f001 fb1b 	bl	10005d66 <__wrap___aeabi_dmul>
10004730:	0002      	movs	r2, r0
10004732:	000b      	movs	r3, r1
10004734:	0020      	movs	r0, r4
10004736:	0029      	movs	r1, r5
10004738:	f001 fae5 	bl	10005d06 <__wrap___aeabi_dsub>
1000473c:	0002      	movs	r2, r0
1000473e:	000b      	movs	r3, r1
10004740:	0006      	movs	r6, r0
10004742:	000f      	movs	r7, r1
10004744:	f001 fb0f 	bl	10005d66 <__wrap___aeabi_dmul>
10004748:	0032      	movs	r2, r6
1000474a:	0004      	movs	r4, r0
1000474c:	000d      	movs	r5, r1
1000474e:	003b      	movs	r3, r7
10004750:	0030      	movs	r0, r6
10004752:	0039      	movs	r1, r7
10004754:	f001 fae0 	bl	10005d18 <__wrap___aeabi_dadd>
10004758:	2200      	movs	r2, #0
1000475a:	9010      	str	r0, [sp, #64]	; 0x40
1000475c:	9111      	str	r1, [sp, #68]	; 0x44
1000475e:	4b54      	ldr	r3, [pc, #336]	; (100048b0 <_etoa+0x430>)
10004760:	0020      	movs	r0, r4
10004762:	0029      	movs	r1, r5
10004764:	f001 fae1 	bl	10005d2a <__wrap___aeabi_ddiv>
10004768:	2200      	movs	r2, #0
1000476a:	4b52      	ldr	r3, [pc, #328]	; (100048b4 <_etoa+0x434>)
1000476c:	f001 fad4 	bl	10005d18 <__wrap___aeabi_dadd>
10004770:	0002      	movs	r2, r0
10004772:	000b      	movs	r3, r1
10004774:	0020      	movs	r0, r4
10004776:	0029      	movs	r1, r5
10004778:	f001 fad7 	bl	10005d2a <__wrap___aeabi_ddiv>
1000477c:	2200      	movs	r2, #0
1000477e:	4b4e      	ldr	r3, [pc, #312]	; (100048b8 <_etoa+0x438>)
10004780:	f001 faca 	bl	10005d18 <__wrap___aeabi_dadd>
10004784:	0002      	movs	r2, r0
10004786:	000b      	movs	r3, r1
10004788:	0020      	movs	r0, r4
1000478a:	0029      	movs	r1, r5
1000478c:	f001 facd 	bl	10005d2a <__wrap___aeabi_ddiv>
10004790:	000d      	movs	r5, r1
10004792:	2180      	movs	r1, #128	; 0x80
10004794:	0004      	movs	r4, r0
10004796:	0032      	movs	r2, r6
10004798:	003b      	movs	r3, r7
1000479a:	2000      	movs	r0, #0
1000479c:	05c9      	lsls	r1, r1, #23
1000479e:	f001 fab2 	bl	10005d06 <__wrap___aeabi_dsub>
100047a2:	0002      	movs	r2, r0
100047a4:	000b      	movs	r3, r1
100047a6:	0020      	movs	r0, r4
100047a8:	0029      	movs	r1, r5
100047aa:	f001 fab5 	bl	10005d18 <__wrap___aeabi_dadd>
100047ae:	0002      	movs	r2, r0
100047b0:	000b      	movs	r3, r1
100047b2:	9810      	ldr	r0, [sp, #64]	; 0x40
100047b4:	9911      	ldr	r1, [sp, #68]	; 0x44
100047b6:	f001 fab8 	bl	10005d2a <__wrap___aeabi_ddiv>
100047ba:	2200      	movs	r2, #0
100047bc:	4b31      	ldr	r3, [pc, #196]	; (10004884 <_etoa+0x404>)
100047be:	f001 faab 	bl	10005d18 <__wrap___aeabi_dadd>
100047c2:	4b3e      	ldr	r3, [pc, #248]	; (100048bc <_etoa+0x43c>)
100047c4:	9c0f      	ldr	r4, [sp, #60]	; 0x3c
100047c6:	469c      	mov	ip, r3
100047c8:	4464      	add	r4, ip
100047ca:	2200      	movs	r2, #0
100047cc:	0523      	lsls	r3, r4, #20
100047ce:	f001 faca 	bl	10005d66 <__wrap___aeabi_dmul>
100047d2:	0005      	movs	r5, r0
100047d4:	000e      	movs	r6, r1
100047d6:	0002      	movs	r2, r0
100047d8:	000b      	movs	r3, r1
100047da:	980a      	ldr	r0, [sp, #40]	; 0x28
100047dc:	9909      	ldr	r1, [sp, #36]	; 0x24
100047de:	f001 fb05 	bl	10005dec <__wrap___aeabi_dcmplt>
100047e2:	2800      	cmp	r0, #0
100047e4:	d00a      	beq.n	100047fc <_etoa+0x37c>
100047e6:	9b0d      	ldr	r3, [sp, #52]	; 0x34
100047e8:	0028      	movs	r0, r5
100047ea:	3b01      	subs	r3, #1
100047ec:	0031      	movs	r1, r6
100047ee:	930d      	str	r3, [sp, #52]	; 0x34
100047f0:	2200      	movs	r2, #0
100047f2:	4b30      	ldr	r3, [pc, #192]	; (100048b4 <_etoa+0x434>)
100047f4:	f001 fa99 	bl	10005d2a <__wrap___aeabi_ddiv>
100047f8:	0005      	movs	r5, r0
100047fa:	000e      	movs	r6, r1
100047fc:	27c6      	movs	r7, #198	; 0xc6
100047fe:	990d      	ldr	r1, [sp, #52]	; 0x34
10004800:	002b      	movs	r3, r5
10004802:	3163      	adds	r1, #99	; 0x63
10004804:	428f      	cmp	r7, r1
10004806:	41bf      	sbcs	r7, r7
10004808:	9928      	ldr	r1, [sp, #160]	; 0xa0
1000480a:	427f      	negs	r7, r7
1000480c:	3704      	adds	r7, #4
1000480e:	0509      	lsls	r1, r1, #20
10004810:	d400      	bmi.n	10004814 <_etoa+0x394>
10004812:	e695      	b.n	10004540 <_etoa+0xc0>
10004814:	4333      	orrs	r3, r6
10004816:	d100      	bne.n	1000481a <_etoa+0x39a>
10004818:	e682      	b.n	10004520 <_etoa+0xa0>
1000481a:	9c09      	ldr	r4, [sp, #36]	; 0x24
1000481c:	4a28      	ldr	r2, [pc, #160]	; (100048c0 <_etoa+0x440>)
1000481e:	0021      	movs	r1, r4
10004820:	4b28      	ldr	r3, [pc, #160]	; (100048c4 <_etoa+0x444>)
10004822:	980a      	ldr	r0, [sp, #40]	; 0x28
10004824:	f001 faf0 	bl	10005e08 <__wrap___aeabi_dcmpge>
10004828:	2800      	cmp	r0, #0
1000482a:	d008      	beq.n	1000483e <_etoa+0x3be>
1000482c:	2200      	movs	r2, #0
1000482e:	0021      	movs	r1, r4
10004830:	4b25      	ldr	r3, [pc, #148]	; (100048c8 <_etoa+0x448>)
10004832:	980a      	ldr	r0, [sp, #40]	; 0x28
10004834:	f001 fada 	bl	10005dec <__wrap___aeabi_dcmplt>
10004838:	2800      	cmp	r0, #0
1000483a:	d000      	beq.n	1000483e <_etoa+0x3be>
1000483c:	e670      	b.n	10004520 <_etoa+0xa0>
1000483e:	9b26      	ldr	r3, [sp, #152]	; 0x98
10004840:	2b00      	cmp	r3, #0
10004842:	d100      	bne.n	10004846 <_etoa+0x3c6>
10004844:	e67c      	b.n	10004540 <_etoa+0xc0>
10004846:	9b0e      	ldr	r3, [sp, #56]	; 0x38
10004848:	1e5a      	subs	r2, r3, #1
1000484a:	4193      	sbcs	r3, r2
1000484c:	9a26      	ldr	r2, [sp, #152]	; 0x98
1000484e:	1ad3      	subs	r3, r2, r3
10004850:	9326      	str	r3, [sp, #152]	; 0x98
10004852:	e675      	b.n	10004540 <_etoa+0xc0>
10004854:	2300      	movs	r3, #0
10004856:	2704      	movs	r7, #4
10004858:	930d      	str	r3, [sp, #52]	; 0x34
1000485a:	e671      	b.n	10004540 <_etoa+0xc0>
1000485c:	4643      	mov	r3, r8
1000485e:	930a      	str	r3, [sp, #40]	; 0x28
10004860:	2380      	movs	r3, #128	; 0x80
10004862:	061b      	lsls	r3, r3, #24
10004864:	4453      	add	r3, sl
10004866:	9309      	str	r3, [sp, #36]	; 0x24
10004868:	e642      	b.n	100044f0 <_etoa+0x70>
1000486a:	2300      	movs	r3, #0
1000486c:	9326      	str	r3, [sp, #152]	; 0x98
1000486e:	e65f      	b.n	10004530 <_etoa+0xb0>
10004870:	fffffc01 	.word	0xfffffc01
10004874:	509f79fb 	.word	0x509f79fb
10004878:	3fd34413 	.word	0x3fd34413
1000487c:	8b60c8b3 	.word	0x8b60c8b3
10004880:	3fc68a28 	.word	0x3fc68a28
10004884:	3ff00000 	.word	0x3ff00000
10004888:	3ff80000 	.word	0x3ff80000
1000488c:	636f4361 	.word	0x636f4361
10004890:	3fd287a7 	.word	0x3fd287a7
10004894:	0979a371 	.word	0x0979a371
10004898:	400a934f 	.word	0x400a934f
1000489c:	3fe00000 	.word	0x3fe00000
100048a0:	bbb55516 	.word	0xbbb55516
100048a4:	40026bb1 	.word	0x40026bb1
100048a8:	fefa39ef 	.word	0xfefa39ef
100048ac:	3fe62e42 	.word	0x3fe62e42
100048b0:	402c0000 	.word	0x402c0000
100048b4:	40240000 	.word	0x40240000
100048b8:	40180000 	.word	0x40180000
100048bc:	000003ff 	.word	0x000003ff
100048c0:	eb1c432d 	.word	0xeb1c432d
100048c4:	3f1a36e2 	.word	0x3f1a36e2
100048c8:	412e8480 	.word	0x412e8480

100048cc <_ftoa>:
100048cc:	b5f0      	push	{r4, r5, r6, r7, lr}
100048ce:	464e      	mov	r6, r9
100048d0:	46de      	mov	lr, fp
100048d2:	4657      	mov	r7, sl
100048d4:	4645      	mov	r5, r8
100048d6:	b5e0      	push	{r5, r6, r7, lr}
100048d8:	b097      	sub	sp, #92	; 0x5c
100048da:	4699      	mov	r9, r3
100048dc:	9e20      	ldr	r6, [sp, #128]	; 0x80
100048de:	9f21      	ldr	r7, [sp, #132]	; 0x84
100048e0:	9b22      	ldr	r3, [sp, #136]	; 0x88
100048e2:	4683      	mov	fp, r0
100048e4:	4698      	mov	r8, r3
100048e6:	9107      	str	r1, [sp, #28]
100048e8:	920c      	str	r2, [sp, #48]	; 0x30
100048ea:	003b      	movs	r3, r7
100048ec:	0032      	movs	r2, r6
100048ee:	0030      	movs	r0, r6
100048f0:	0039      	movs	r1, r7
100048f2:	f001 fa96 	bl	10005e22 <__wrap___aeabi_dcmpun>
100048f6:	2800      	cmp	r0, #0
100048f8:	d000      	beq.n	100048fc <_ftoa+0x30>
100048fa:	e1a9      	b.n	10004c50 <_ftoa+0x384>
100048fc:	2201      	movs	r2, #1
100048fe:	0030      	movs	r0, r6
10004900:	0039      	movs	r1, r7
10004902:	4bca      	ldr	r3, [pc, #808]	; (10004c2c <_ftoa+0x360>)
10004904:	4252      	negs	r2, r2
10004906:	f001 fa71 	bl	10005dec <__wrap___aeabi_dcmplt>
1000490a:	2800      	cmp	r0, #0
1000490c:	d000      	beq.n	10004910 <_ftoa+0x44>
1000490e:	e0e1      	b.n	10004ad4 <_ftoa+0x208>
10004910:	2201      	movs	r2, #1
10004912:	0030      	movs	r0, r6
10004914:	0039      	movs	r1, r7
10004916:	4bc6      	ldr	r3, [pc, #792]	; (10004c30 <_ftoa+0x364>)
10004918:	4252      	negs	r2, r2
1000491a:	f001 fa7d 	bl	10005e18 <__wrap___aeabi_dcmpgt>
1000491e:	2800      	cmp	r0, #0
10004920:	d000      	beq.n	10004924 <_ftoa+0x58>
10004922:	e0b7      	b.n	10004a94 <_ftoa+0x1c8>
10004924:	2200      	movs	r2, #0
10004926:	0030      	movs	r0, r6
10004928:	0039      	movs	r1, r7
1000492a:	4bc2      	ldr	r3, [pc, #776]	; (10004c34 <_ftoa+0x368>)
1000492c:	f001 fa74 	bl	10005e18 <__wrap___aeabi_dcmpgt>
10004930:	2800      	cmp	r0, #0
10004932:	d000      	beq.n	10004936 <_ftoa+0x6a>
10004934:	e099      	b.n	10004a6a <_ftoa+0x19e>
10004936:	2200      	movs	r2, #0
10004938:	0030      	movs	r0, r6
1000493a:	0039      	movs	r1, r7
1000493c:	4bbe      	ldr	r3, [pc, #760]	; (10004c38 <_ftoa+0x36c>)
1000493e:	f001 fa55 	bl	10005dec <__wrap___aeabi_dcmplt>
10004942:	2800      	cmp	r0, #0
10004944:	d000      	beq.n	10004948 <_ftoa+0x7c>
10004946:	e090      	b.n	10004a6a <_ftoa+0x19e>
10004948:	2200      	movs	r2, #0
1000494a:	2300      	movs	r3, #0
1000494c:	0030      	movs	r0, r6
1000494e:	0039      	movs	r1, r7
10004950:	f001 fa4c 	bl	10005dec <__wrap___aeabi_dcmplt>
10004954:	2800      	cmp	r0, #0
10004956:	d000      	beq.n	1000495a <_ftoa+0x8e>
10004958:	e0b1      	b.n	10004abe <_ftoa+0x1f2>
1000495a:	2300      	movs	r3, #0
1000495c:	930d      	str	r3, [sp, #52]	; 0x34
1000495e:	9b24      	ldr	r3, [sp, #144]	; 0x90
10004960:	055b      	lsls	r3, r3, #21
10004962:	d401      	bmi.n	10004968 <_ftoa+0x9c>
10004964:	2306      	movs	r3, #6
10004966:	4698      	mov	r8, r3
10004968:	ab08      	add	r3, sp, #32
1000496a:	469c      	mov	ip, r3
1000496c:	2217      	movs	r2, #23
1000496e:	2400      	movs	r4, #0
10004970:	2330      	movs	r3, #48	; 0x30
10004972:	4641      	mov	r1, r8
10004974:	4462      	add	r2, ip
10004976:	e004      	b.n	10004982 <_ftoa+0xb6>
10004978:	3401      	adds	r4, #1
1000497a:	5513      	strb	r3, [r2, r4]
1000497c:	3901      	subs	r1, #1
1000497e:	2c20      	cmp	r4, #32
10004980:	d001      	beq.n	10004986 <_ftoa+0xba>
10004982:	2909      	cmp	r1, #9
10004984:	d8f8      	bhi.n	10004978 <_ftoa+0xac>
10004986:	4688      	mov	r8, r1
10004988:	0030      	movs	r0, r6
1000498a:	0039      	movs	r1, r7
1000498c:	f001 fa74 	bl	10005e78 <__wrap___aeabi_d2iz>
10004990:	4643      	mov	r3, r8
10004992:	00da      	lsls	r2, r3, #3
10004994:	4ba9      	ldr	r3, [pc, #676]	; (10004c3c <_ftoa+0x370>)
10004996:	0005      	movs	r5, r0
10004998:	189b      	adds	r3, r3, r2
1000499a:	681a      	ldr	r2, [r3, #0]
1000499c:	685b      	ldr	r3, [r3, #4]
1000499e:	9208      	str	r2, [sp, #32]
100049a0:	9309      	str	r3, [sp, #36]	; 0x24
100049a2:	f001 fa51 	bl	10005e48 <__wrap___aeabi_i2d>
100049a6:	0002      	movs	r2, r0
100049a8:	000b      	movs	r3, r1
100049aa:	0030      	movs	r0, r6
100049ac:	0039      	movs	r1, r7
100049ae:	f001 f9aa 	bl	10005d06 <__wrap___aeabi_dsub>
100049b2:	9a08      	ldr	r2, [sp, #32]
100049b4:	9b09      	ldr	r3, [sp, #36]	; 0x24
100049b6:	f001 f9d6 	bl	10005d66 <__wrap___aeabi_dmul>
100049ba:	900a      	str	r0, [sp, #40]	; 0x28
100049bc:	910b      	str	r1, [sp, #44]	; 0x2c
100049be:	f001 fa7f 	bl	10005ec0 <__wrap___aeabi_d2uiz>
100049c2:	4682      	mov	sl, r0
100049c4:	f001 fa3c 	bl	10005e40 <__wrap___aeabi_ui2d>
100049c8:	0002      	movs	r2, r0
100049ca:	000b      	movs	r3, r1
100049cc:	980a      	ldr	r0, [sp, #40]	; 0x28
100049ce:	990b      	ldr	r1, [sp, #44]	; 0x2c
100049d0:	f001 f999 	bl	10005d06 <__wrap___aeabi_dsub>
100049d4:	2200      	movs	r2, #0
100049d6:	4b9a      	ldr	r3, [pc, #616]	; (10004c40 <_ftoa+0x374>)
100049d8:	900a      	str	r0, [sp, #40]	; 0x28
100049da:	910b      	str	r1, [sp, #44]	; 0x2c
100049dc:	f001 fa1c 	bl	10005e18 <__wrap___aeabi_dcmpgt>
100049e0:	2800      	cmp	r0, #0
100049e2:	d100      	bne.n	100049e6 <_ftoa+0x11a>
100049e4:	e0c0      	b.n	10004b68 <_ftoa+0x29c>
100049e6:	2301      	movs	r3, #1
100049e8:	469c      	mov	ip, r3
100049ea:	44e2      	add	sl, ip
100049ec:	4650      	mov	r0, sl
100049ee:	f001 fa27 	bl	10005e40 <__wrap___aeabi_ui2d>
100049f2:	0002      	movs	r2, r0
100049f4:	000b      	movs	r3, r1
100049f6:	9808      	ldr	r0, [sp, #32]
100049f8:	9909      	ldr	r1, [sp, #36]	; 0x24
100049fa:	f001 f9fd 	bl	10005df8 <__wrap___aeabi_dcmple>
100049fe:	2800      	cmp	r0, #0
10004a00:	d002      	beq.n	10004a08 <_ftoa+0x13c>
10004a02:	2300      	movs	r3, #0
10004a04:	469a      	mov	sl, r3
10004a06:	3501      	adds	r5, #1
10004a08:	4643      	mov	r3, r8
10004a0a:	2b00      	cmp	r3, #0
10004a0c:	d06a      	beq.n	10004ae4 <_ftoa+0x218>
10004a0e:	ab08      	add	r3, sp, #32
10004a10:	2617      	movs	r6, #23
10004a12:	469c      	mov	ip, r3
10004a14:	9508      	str	r5, [sp, #32]
10004a16:	4466      	add	r6, ip
10004a18:	4655      	mov	r5, sl
10004a1a:	e014      	b.n	10004a46 <_ftoa+0x17a>
10004a1c:	2301      	movs	r3, #1
10004a1e:	425b      	negs	r3, r3
10004a20:	4443      	add	r3, r8
10004a22:	210a      	movs	r1, #10
10004a24:	0028      	movs	r0, r5
10004a26:	469a      	mov	sl, r3
10004a28:	f000 ff32 	bl	10005890 <__wrap___aeabi_uidiv>
10004a2c:	3401      	adds	r4, #1
10004a2e:	3130      	adds	r1, #48	; 0x30
10004a30:	1937      	adds	r7, r6, r4
10004a32:	7039      	strb	r1, [r7, #0]
10004a34:	0028      	movs	r0, r5
10004a36:	210a      	movs	r1, #10
10004a38:	f000 ff2a 	bl	10005890 <__wrap___aeabi_uidiv>
10004a3c:	2d09      	cmp	r5, #9
10004a3e:	d800      	bhi.n	10004a42 <_ftoa+0x176>
10004a40:	e0d0      	b.n	10004be4 <_ftoa+0x318>
10004a42:	46d0      	mov	r8, sl
10004a44:	0005      	movs	r5, r0
10004a46:	2c20      	cmp	r4, #32
10004a48:	d1e8      	bne.n	10004a1c <_ftoa+0x150>
10004a4a:	ab0e      	add	r3, sp, #56	; 0x38
10004a4c:	4698      	mov	r8, r3
10004a4e:	2303      	movs	r3, #3
10004a50:	9a24      	ldr	r2, [sp, #144]	; 0x90
10004a52:	4013      	ands	r3, r2
10004a54:	2b01      	cmp	r3, #1
10004a56:	d100      	bne.n	10004a5a <_ftoa+0x18e>
10004a58:	e096      	b.n	10004b88 <_ftoa+0x2bc>
10004a5a:	2320      	movs	r3, #32
10004a5c:	9a24      	ldr	r2, [sp, #144]	; 0x90
10004a5e:	9301      	str	r3, [sp, #4]
10004a60:	9203      	str	r2, [sp, #12]
10004a62:	9a23      	ldr	r2, [sp, #140]	; 0x8c
10004a64:	4643      	mov	r3, r8
10004a66:	9202      	str	r2, [sp, #8]
10004a68:	e01e      	b.n	10004aa8 <_ftoa+0x1dc>
10004a6a:	9b24      	ldr	r3, [sp, #144]	; 0x90
10004a6c:	4658      	mov	r0, fp
10004a6e:	9304      	str	r3, [sp, #16]
10004a70:	9b23      	ldr	r3, [sp, #140]	; 0x8c
10004a72:	9600      	str	r6, [sp, #0]
10004a74:	9701      	str	r7, [sp, #4]
10004a76:	9303      	str	r3, [sp, #12]
10004a78:	4643      	mov	r3, r8
10004a7a:	9a0c      	ldr	r2, [sp, #48]	; 0x30
10004a7c:	9302      	str	r3, [sp, #8]
10004a7e:	9907      	ldr	r1, [sp, #28]
10004a80:	464b      	mov	r3, r9
10004a82:	f7ff fcfd 	bl	10004480 <_etoa>
10004a86:	b017      	add	sp, #92	; 0x5c
10004a88:	bcf0      	pop	{r4, r5, r6, r7}
10004a8a:	46bb      	mov	fp, r7
10004a8c:	46b2      	mov	sl, r6
10004a8e:	46a9      	mov	r9, r5
10004a90:	46a0      	mov	r8, r4
10004a92:	bdf0      	pop	{r4, r5, r6, r7, pc}
10004a94:	9b24      	ldr	r3, [sp, #144]	; 0x90
10004a96:	075b      	lsls	r3, r3, #29
10004a98:	d40e      	bmi.n	10004ab8 <_ftoa+0x1ec>
10004a9a:	2203      	movs	r2, #3
10004a9c:	4b69      	ldr	r3, [pc, #420]	; (10004c44 <_ftoa+0x378>)
10004a9e:	9924      	ldr	r1, [sp, #144]	; 0x90
10004aa0:	9201      	str	r2, [sp, #4]
10004aa2:	9103      	str	r1, [sp, #12]
10004aa4:	9923      	ldr	r1, [sp, #140]	; 0x8c
10004aa6:	9102      	str	r1, [sp, #8]
10004aa8:	9300      	str	r3, [sp, #0]
10004aaa:	4658      	mov	r0, fp
10004aac:	464b      	mov	r3, r9
10004aae:	9a0c      	ldr	r2, [sp, #48]	; 0x30
10004ab0:	9907      	ldr	r1, [sp, #28]
10004ab2:	f7ff fba9 	bl	10004208 <_out_rev>
10004ab6:	e7e6      	b.n	10004a86 <_ftoa+0x1ba>
10004ab8:	2204      	movs	r2, #4
10004aba:	4b63      	ldr	r3, [pc, #396]	; (10004c48 <_ftoa+0x37c>)
10004abc:	e7ef      	b.n	10004a9e <_ftoa+0x1d2>
10004abe:	003b      	movs	r3, r7
10004ac0:	0032      	movs	r2, r6
10004ac2:	2000      	movs	r0, #0
10004ac4:	2100      	movs	r1, #0
10004ac6:	f001 f91e 	bl	10005d06 <__wrap___aeabi_dsub>
10004aca:	2301      	movs	r3, #1
10004acc:	0006      	movs	r6, r0
10004ace:	000f      	movs	r7, r1
10004ad0:	930d      	str	r3, [sp, #52]	; 0x34
10004ad2:	e744      	b.n	1000495e <_ftoa+0x92>
10004ad4:	9b24      	ldr	r3, [sp, #144]	; 0x90
10004ad6:	9303      	str	r3, [sp, #12]
10004ad8:	9b23      	ldr	r3, [sp, #140]	; 0x8c
10004ada:	9302      	str	r3, [sp, #8]
10004adc:	2304      	movs	r3, #4
10004ade:	9301      	str	r3, [sp, #4]
10004ae0:	4b5a      	ldr	r3, [pc, #360]	; (10004c4c <_ftoa+0x380>)
10004ae2:	e7e1      	b.n	10004aa8 <_ftoa+0x1dc>
10004ae4:	0028      	movs	r0, r5
10004ae6:	f001 f9af 	bl	10005e48 <__wrap___aeabi_i2d>
10004aea:	0002      	movs	r2, r0
10004aec:	000b      	movs	r3, r1
10004aee:	0030      	movs	r0, r6
10004af0:	0039      	movs	r1, r7
10004af2:	f001 f908 	bl	10005d06 <__wrap___aeabi_dsub>
10004af6:	4b52      	ldr	r3, [pc, #328]	; (10004c40 <_ftoa+0x374>)
10004af8:	2200      	movs	r2, #0
10004afa:	0006      	movs	r6, r0
10004afc:	000f      	movs	r7, r1
10004afe:	f001 f975 	bl	10005dec <__wrap___aeabi_dcmplt>
10004b02:	ab0e      	add	r3, sp, #56	; 0x38
10004b04:	4698      	mov	r8, r3
10004b06:	2800      	cmp	r0, #0
10004b08:	d10a      	bne.n	10004b20 <_ftoa+0x254>
10004b0a:	2200      	movs	r2, #0
10004b0c:	0030      	movs	r0, r6
10004b0e:	0039      	movs	r1, r7
10004b10:	4b4b      	ldr	r3, [pc, #300]	; (10004c40 <_ftoa+0x374>)
10004b12:	f001 f981 	bl	10005e18 <__wrap___aeabi_dcmpgt>
10004b16:	2800      	cmp	r0, #0
10004b18:	d102      	bne.n	10004b20 <_ftoa+0x254>
10004b1a:	07eb      	lsls	r3, r5, #31
10004b1c:	d500      	bpl.n	10004b20 <_ftoa+0x254>
10004b1e:	3501      	adds	r5, #1
10004b20:	2c20      	cmp	r4, #32
10004b22:	d094      	beq.n	10004a4e <_ftoa+0x182>
10004b24:	aa08      	add	r2, sp, #32
10004b26:	4694      	mov	ip, r2
10004b28:	2317      	movs	r3, #23
10004b2a:	0028      	movs	r0, r5
10004b2c:	4463      	add	r3, ip
10004b2e:	210a      	movs	r1, #10
10004b30:	3401      	adds	r4, #1
10004b32:	191e      	adds	r6, r3, r4
10004b34:	f000 fe84 	bl	10005840 <__wrap___aeabi_idiv>
10004b38:	3130      	adds	r1, #48	; 0x30
10004b3a:	0028      	movs	r0, r5
10004b3c:	7031      	strb	r1, [r6, #0]
10004b3e:	210a      	movs	r1, #10
10004b40:	f000 fe7e 	bl	10005840 <__wrap___aeabi_idiv>
10004b44:	1e05      	subs	r5, r0, #0
10004b46:	d1eb      	bne.n	10004b20 <_ftoa+0x254>
10004b48:	2303      	movs	r3, #3
10004b4a:	9a24      	ldr	r2, [sp, #144]	; 0x90
10004b4c:	4013      	ands	r3, r2
10004b4e:	2b01      	cmp	r3, #1
10004b50:	d01b      	beq.n	10004b8a <_ftoa+0x2be>
10004b52:	2c20      	cmp	r4, #32
10004b54:	d100      	bne.n	10004b58 <_ftoa+0x28c>
10004b56:	e780      	b.n	10004a5a <_ftoa+0x18e>
10004b58:	9b0d      	ldr	r3, [sp, #52]	; 0x34
10004b5a:	2b00      	cmp	r3, #0
10004b5c:	d035      	beq.n	10004bca <_ftoa+0x2fe>
10004b5e:	222d      	movs	r2, #45	; 0x2d
10004b60:	4641      	mov	r1, r8
10004b62:	1c63      	adds	r3, r4, #1
10004b64:	550a      	strb	r2, [r1, r4]
10004b66:	e779      	b.n	10004a5c <_ftoa+0x190>
10004b68:	2200      	movs	r2, #0
10004b6a:	980a      	ldr	r0, [sp, #40]	; 0x28
10004b6c:	990b      	ldr	r1, [sp, #44]	; 0x2c
10004b6e:	4b34      	ldr	r3, [pc, #208]	; (10004c40 <_ftoa+0x374>)
10004b70:	f001 f93c 	bl	10005dec <__wrap___aeabi_dcmplt>
10004b74:	2800      	cmp	r0, #0
10004b76:	d000      	beq.n	10004b7a <_ftoa+0x2ae>
10004b78:	e746      	b.n	10004a08 <_ftoa+0x13c>
10004b7a:	4653      	mov	r3, sl
10004b7c:	2b00      	cmp	r3, #0
10004b7e:	d151      	bne.n	10004c24 <_ftoa+0x358>
10004b80:	2301      	movs	r3, #1
10004b82:	469c      	mov	ip, r3
10004b84:	44e2      	add	sl, ip
10004b86:	e73f      	b.n	10004a08 <_ftoa+0x13c>
10004b88:	2420      	movs	r4, #32
10004b8a:	9b23      	ldr	r3, [sp, #140]	; 0x8c
10004b8c:	2b00      	cmp	r3, #0
10004b8e:	d0e0      	beq.n	10004b52 <_ftoa+0x286>
10004b90:	9b0d      	ldr	r3, [sp, #52]	; 0x34
10004b92:	2b00      	cmp	r3, #0
10004b94:	d103      	bne.n	10004b9e <_ftoa+0x2d2>
10004b96:	9a24      	ldr	r2, [sp, #144]	; 0x90
10004b98:	330c      	adds	r3, #12
10004b9a:	4213      	tst	r3, r2
10004b9c:	d002      	beq.n	10004ba4 <_ftoa+0x2d8>
10004b9e:	9b23      	ldr	r3, [sp, #140]	; 0x8c
10004ba0:	3b01      	subs	r3, #1
10004ba2:	9323      	str	r3, [sp, #140]	; 0x8c
10004ba4:	9b23      	ldr	r3, [sp, #140]	; 0x8c
10004ba6:	42a3      	cmp	r3, r4
10004ba8:	d9d3      	bls.n	10004b52 <_ftoa+0x286>
10004baa:	ab08      	add	r3, sp, #32
10004bac:	469c      	mov	ip, r3
10004bae:	2217      	movs	r2, #23
10004bb0:	2330      	movs	r3, #48	; 0x30
10004bb2:	4462      	add	r2, ip
10004bb4:	2c20      	cmp	r4, #32
10004bb6:	d100      	bne.n	10004bba <_ftoa+0x2ee>
10004bb8:	e74f      	b.n	10004a5a <_ftoa+0x18e>
10004bba:	9923      	ldr	r1, [sp, #140]	; 0x8c
10004bbc:	3401      	adds	r4, #1
10004bbe:	5513      	strb	r3, [r2, r4]
10004bc0:	428c      	cmp	r4, r1
10004bc2:	d0c6      	beq.n	10004b52 <_ftoa+0x286>
10004bc4:	2c20      	cmp	r4, #32
10004bc6:	d1f8      	bne.n	10004bba <_ftoa+0x2ee>
10004bc8:	e747      	b.n	10004a5a <_ftoa+0x18e>
10004bca:	9b24      	ldr	r3, [sp, #144]	; 0x90
10004bcc:	075b      	lsls	r3, r3, #29
10004bce:	d424      	bmi.n	10004c1a <_ftoa+0x34e>
10004bd0:	9a24      	ldr	r2, [sp, #144]	; 0x90
10004bd2:	0023      	movs	r3, r4
10004bd4:	0712      	lsls	r2, r2, #28
10004bd6:	d400      	bmi.n	10004bda <_ftoa+0x30e>
10004bd8:	e740      	b.n	10004a5c <_ftoa+0x190>
10004bda:	2220      	movs	r2, #32
10004bdc:	4641      	mov	r1, r8
10004bde:	3301      	adds	r3, #1
10004be0:	550a      	strb	r2, [r1, r4]
10004be2:	e73b      	b.n	10004a5c <_ftoa+0x190>
10004be4:	4657      	mov	r7, sl
10004be6:	9d08      	ldr	r5, [sp, #32]
10004be8:	2c20      	cmp	r4, #32
10004bea:	d100      	bne.n	10004bee <_ftoa+0x322>
10004bec:	e72d      	b.n	10004a4a <_ftoa+0x17e>
10004bee:	0022      	movs	r2, r4
10004bf0:	2130      	movs	r1, #48	; 0x30
10004bf2:	4640      	mov	r0, r8
10004bf4:	2f00      	cmp	r7, #0
10004bf6:	d009      	beq.n	10004c0c <_ftoa+0x340>
10004bf8:	3201      	adds	r2, #1
10004bfa:	54b1      	strb	r1, [r6, r2]
10004bfc:	2a20      	cmp	r2, #32
10004bfe:	d100      	bne.n	10004c02 <_ftoa+0x336>
10004c00:	e723      	b.n	10004a4a <_ftoa+0x17e>
10004c02:	43d3      	mvns	r3, r2
10004c04:	191b      	adds	r3, r3, r4
10004c06:	181b      	adds	r3, r3, r0
10004c08:	2b00      	cmp	r3, #0
10004c0a:	d1f5      	bne.n	10004bf8 <_ftoa+0x32c>
10004c0c:	ab0e      	add	r3, sp, #56	; 0x38
10004c0e:	4698      	mov	r8, r3
10004c10:	232e      	movs	r3, #46	; 0x2e
10004c12:	4641      	mov	r1, r8
10004c14:	1c54      	adds	r4, r2, #1
10004c16:	548b      	strb	r3, [r1, r2]
10004c18:	e782      	b.n	10004b20 <_ftoa+0x254>
10004c1a:	222b      	movs	r2, #43	; 0x2b
10004c1c:	4641      	mov	r1, r8
10004c1e:	1c63      	adds	r3, r4, #1
10004c20:	550a      	strb	r2, [r1, r4]
10004c22:	e71b      	b.n	10004a5c <_ftoa+0x190>
10004c24:	07db      	lsls	r3, r3, #31
10004c26:	d400      	bmi.n	10004c2a <_ftoa+0x35e>
10004c28:	e6ee      	b.n	10004a08 <_ftoa+0x13c>
10004c2a:	e7a9      	b.n	10004b80 <_ftoa+0x2b4>
10004c2c:	ffefffff 	.word	0xffefffff
10004c30:	7fefffff 	.word	0x7fefffff
10004c34:	41cdcd65 	.word	0x41cdcd65
10004c38:	c1cdcd65 	.word	0xc1cdcd65
10004c3c:	100074f0 	.word	0x100074f0
10004c40:	3fe00000 	.word	0x3fe00000
10004c44:	100072f8 	.word	0x100072f8
10004c48:	100072fc 	.word	0x100072fc
10004c4c:	10007308 	.word	0x10007308
10004c50:	9b24      	ldr	r3, [sp, #144]	; 0x90
10004c52:	9303      	str	r3, [sp, #12]
10004c54:	9b23      	ldr	r3, [sp, #140]	; 0x8c
10004c56:	9302      	str	r3, [sp, #8]
10004c58:	2303      	movs	r3, #3
10004c5a:	9301      	str	r3, [sp, #4]
10004c5c:	4b00      	ldr	r3, [pc, #0]	; (10004c60 <_ftoa+0x394>)
10004c5e:	e723      	b.n	10004aa8 <_ftoa+0x1dc>
10004c60:	10007304 	.word	0x10007304

10004c64 <_vsnprintf>:
10004c64:	b5f0      	push	{r4, r5, r6, r7, lr}
10004c66:	46de      	mov	lr, fp
10004c68:	464e      	mov	r6, r9
10004c6a:	4657      	mov	r7, sl
10004c6c:	4645      	mov	r5, r8
10004c6e:	b5e0      	push	{r5, r6, r7, lr}
10004c70:	b09f      	sub	sp, #124	; 0x7c
10004c72:	001c      	movs	r4, r3
10004c74:	9b28      	ldr	r3, [sp, #160]	; 0xa0
10004c76:	4691      	mov	r9, r2
10004c78:	9309      	str	r3, [sp, #36]	; 0x24
10004c7a:	4ac9      	ldr	r2, [pc, #804]	; (10004fa0 <_vsnprintf+0x33c>)
10004c7c:	4bc9      	ldr	r3, [pc, #804]	; (10004fa4 <_vsnprintf+0x340>)
10004c7e:	468b      	mov	fp, r1
10004c80:	9008      	str	r0, [sp, #32]
10004c82:	601a      	str	r2, [r3, #0]
10004c84:	2900      	cmp	r1, #0
10004c86:	d100      	bne.n	10004c8a <_vsnprintf+0x26>
10004c88:	e218      	b.n	100050bc <_vsnprintf+0x458>
10004c8a:	2300      	movs	r3, #0
10004c8c:	7820      	ldrb	r0, [r4, #0]
10004c8e:	469a      	mov	sl, r3
10004c90:	2800      	cmp	r0, #0
10004c92:	d100      	bne.n	10004c96 <_vsnprintf+0x32>
10004c94:	e21a      	b.n	100050cc <_vsnprintf+0x468>
10004c96:	0026      	movs	r6, r4
10004c98:	001d      	movs	r5, r3
10004c9a:	465c      	mov	r4, fp
10004c9c:	e00a      	b.n	10004cb4 <_vsnprintf+0x50>
10004c9e:	002a      	movs	r2, r5
10004ca0:	1c6f      	adds	r7, r5, #1
10004ca2:	464b      	mov	r3, r9
10004ca4:	9d08      	ldr	r5, [sp, #32]
10004ca6:	0021      	movs	r1, r4
10004ca8:	47a8      	blx	r5
10004caa:	003d      	movs	r5, r7
10004cac:	3601      	adds	r6, #1
10004cae:	7830      	ldrb	r0, [r6, #0]
10004cb0:	2800      	cmp	r0, #0
10004cb2:	d070      	beq.n	10004d96 <_vsnprintf+0x132>
10004cb4:	2825      	cmp	r0, #37	; 0x25
10004cb6:	d1f2      	bne.n	10004c9e <_vsnprintf+0x3a>
10004cb8:	2310      	movs	r3, #16
10004cba:	469b      	mov	fp, r3
10004cbc:	3b08      	subs	r3, #8
10004cbe:	469a      	mov	sl, r3
10004cc0:	3b04      	subs	r3, #4
10004cc2:	4698      	mov	r8, r3
10004cc4:	3b02      	subs	r3, #2
10004cc6:	2100      	movs	r1, #0
10004cc8:	469c      	mov	ip, r3
10004cca:	1c72      	adds	r2, r6, #1
10004ccc:	7810      	ldrb	r0, [r2, #0]
10004cce:	0016      	movs	r6, r2
10004cd0:	0003      	movs	r3, r0
10004cd2:	3b20      	subs	r3, #32
10004cd4:	b2db      	uxtb	r3, r3
10004cd6:	2b10      	cmp	r3, #16
10004cd8:	d803      	bhi.n	10004ce2 <_vsnprintf+0x7e>
10004cda:	4fb3      	ldr	r7, [pc, #716]	; (10004fa8 <_vsnprintf+0x344>)
10004cdc:	009b      	lsls	r3, r3, #2
10004cde:	58fb      	ldr	r3, [r7, r3]
10004ce0:	469f      	mov	pc, r3
10004ce2:	0003      	movs	r3, r0
10004ce4:	3b30      	subs	r3, #48	; 0x30
10004ce6:	2b09      	cmp	r3, #9
10004ce8:	d932      	bls.n	10004d50 <_vsnprintf+0xec>
10004cea:	2300      	movs	r3, #0
10004cec:	930a      	str	r3, [sp, #40]	; 0x28
10004cee:	282a      	cmp	r0, #42	; 0x2a
10004cf0:	d068      	beq.n	10004dc4 <_vsnprintf+0x160>
10004cf2:	2300      	movs	r3, #0
10004cf4:	4698      	mov	r8, r3
10004cf6:	282e      	cmp	r0, #46	; 0x2e
10004cf8:	d03e      	beq.n	10004d78 <_vsnprintf+0x114>
10004cfa:	0003      	movs	r3, r0
10004cfc:	3b68      	subs	r3, #104	; 0x68
10004cfe:	b2db      	uxtb	r3, r3
10004d00:	2b12      	cmp	r3, #18
10004d02:	d81c      	bhi.n	10004d3e <_vsnprintf+0xda>
10004d04:	4aa9      	ldr	r2, [pc, #676]	; (10004fac <_vsnprintf+0x348>)
10004d06:	009b      	lsls	r3, r3, #2
10004d08:	58d3      	ldr	r3, [r2, r3]
10004d0a:	469f      	mov	pc, r3
10004d0c:	2301      	movs	r3, #1
10004d0e:	3201      	adds	r2, #1
10004d10:	4319      	orrs	r1, r3
10004d12:	e7db      	b.n	10004ccc <_vsnprintf+0x68>
10004d14:	4663      	mov	r3, ip
10004d16:	3201      	adds	r2, #1
10004d18:	4319      	orrs	r1, r3
10004d1a:	e7d7      	b.n	10004ccc <_vsnprintf+0x68>
10004d1c:	4643      	mov	r3, r8
10004d1e:	3201      	adds	r2, #1
10004d20:	4319      	orrs	r1, r3
10004d22:	e7d3      	b.n	10004ccc <_vsnprintf+0x68>
10004d24:	465b      	mov	r3, fp
10004d26:	3201      	adds	r2, #1
10004d28:	4319      	orrs	r1, r3
10004d2a:	e7cf      	b.n	10004ccc <_vsnprintf+0x68>
10004d2c:	4653      	mov	r3, sl
10004d2e:	3201      	adds	r2, #1
10004d30:	4319      	orrs	r1, r3
10004d32:	e7cb      	b.n	10004ccc <_vsnprintf+0x68>
10004d34:	2380      	movs	r3, #128	; 0x80
10004d36:	005b      	lsls	r3, r3, #1
10004d38:	7870      	ldrb	r0, [r6, #1]
10004d3a:	4319      	orrs	r1, r3
10004d3c:	3601      	adds	r6, #1
10004d3e:	0003      	movs	r3, r0
10004d40:	3b25      	subs	r3, #37	; 0x25
10004d42:	b2db      	uxtb	r3, r3
10004d44:	2b53      	cmp	r3, #83	; 0x53
10004d46:	d8aa      	bhi.n	10004c9e <_vsnprintf+0x3a>
10004d48:	4a99      	ldr	r2, [pc, #612]	; (10004fb0 <_vsnprintf+0x34c>)
10004d4a:	009b      	lsls	r3, r3, #2
10004d4c:	58d3      	ldr	r3, [r2, r3]
10004d4e:	469f      	mov	pc, r3
10004d50:	2700      	movs	r7, #0
10004d52:	0003      	movs	r3, r0
10004d54:	00b8      	lsls	r0, r7, #2
10004d56:	19c0      	adds	r0, r0, r7
10004d58:	3601      	adds	r6, #1
10004d5a:	0040      	lsls	r0, r0, #1
10004d5c:	18c0      	adds	r0, r0, r3
10004d5e:	7833      	ldrb	r3, [r6, #0]
10004d60:	3830      	subs	r0, #48	; 0x30
10004d62:	001a      	movs	r2, r3
10004d64:	3a30      	subs	r2, #48	; 0x30
10004d66:	0007      	movs	r7, r0
10004d68:	2a09      	cmp	r2, #9
10004d6a:	d9f3      	bls.n	10004d54 <_vsnprintf+0xf0>
10004d6c:	900a      	str	r0, [sp, #40]	; 0x28
10004d6e:	0018      	movs	r0, r3
10004d70:	2300      	movs	r3, #0
10004d72:	4698      	mov	r8, r3
10004d74:	282e      	cmp	r0, #46	; 0x2e
10004d76:	d1c0      	bne.n	10004cfa <_vsnprintf+0x96>
10004d78:	2380      	movs	r3, #128	; 0x80
10004d7a:	7870      	ldrb	r0, [r6, #1]
10004d7c:	00db      	lsls	r3, r3, #3
10004d7e:	4319      	orrs	r1, r3
10004d80:	0003      	movs	r3, r0
10004d82:	3b30      	subs	r3, #48	; 0x30
10004d84:	1c72      	adds	r2, r6, #1
10004d86:	2b09      	cmp	r3, #9
10004d88:	d800      	bhi.n	10004d8c <_vsnprintf+0x128>
10004d8a:	e1a1      	b.n	100050d0 <_vsnprintf+0x46c>
10004d8c:	282a      	cmp	r0, #42	; 0x2a
10004d8e:	d100      	bne.n	10004d92 <_vsnprintf+0x12e>
10004d90:	e1b2      	b.n	100050f8 <_vsnprintf+0x494>
10004d92:	0016      	movs	r6, r2
10004d94:	e7b1      	b.n	10004cfa <_vsnprintf+0x96>
10004d96:	46a3      	mov	fp, r4
10004d98:	46aa      	mov	sl, r5
10004d9a:	002c      	movs	r4, r5
10004d9c:	45d1      	cmp	r9, sl
10004d9e:	d803      	bhi.n	10004da8 <_vsnprintf+0x144>
10004da0:	2301      	movs	r3, #1
10004da2:	425b      	negs	r3, r3
10004da4:	444b      	add	r3, r9
10004da6:	469a      	mov	sl, r3
10004da8:	464b      	mov	r3, r9
10004daa:	4652      	mov	r2, sl
10004dac:	4659      	mov	r1, fp
10004dae:	2000      	movs	r0, #0
10004db0:	9d08      	ldr	r5, [sp, #32]
10004db2:	47a8      	blx	r5
10004db4:	0020      	movs	r0, r4
10004db6:	b01f      	add	sp, #124	; 0x7c
10004db8:	bcf0      	pop	{r4, r5, r6, r7}
10004dba:	46bb      	mov	fp, r7
10004dbc:	46b2      	mov	sl, r6
10004dbe:	46a9      	mov	r9, r5
10004dc0:	46a0      	mov	r8, r4
10004dc2:	bdf0      	pop	{r4, r5, r6, r7, pc}
10004dc4:	9b09      	ldr	r3, [sp, #36]	; 0x24
10004dc6:	cb40      	ldmia	r3!, {r6}
10004dc8:	960a      	str	r6, [sp, #40]	; 0x28
10004dca:	2e00      	cmp	r6, #0
10004dcc:	db03      	blt.n	10004dd6 <_vsnprintf+0x172>
10004dce:	7850      	ldrb	r0, [r2, #1]
10004dd0:	9309      	str	r3, [sp, #36]	; 0x24
10004dd2:	1c56      	adds	r6, r2, #1
10004dd4:	e78d      	b.n	10004cf2 <_vsnprintf+0x8e>
10004dd6:	3828      	subs	r0, #40	; 0x28
10004dd8:	4301      	orrs	r1, r0
10004dda:	4270      	negs	r0, r6
10004ddc:	900a      	str	r0, [sp, #40]	; 0x28
10004dde:	9309      	str	r3, [sp, #36]	; 0x24
10004de0:	7850      	ldrb	r0, [r2, #1]
10004de2:	1c56      	adds	r6, r2, #1
10004de4:	e785      	b.n	10004cf2 <_vsnprintf+0x8e>
10004de6:	2878      	cmp	r0, #120	; 0x78
10004de8:	d100      	bne.n	10004dec <_vsnprintf+0x188>
10004dea:	e1df      	b.n	100051ac <_vsnprintf+0x548>
10004dec:	2858      	cmp	r0, #88	; 0x58
10004dee:	d100      	bne.n	10004df2 <_vsnprintf+0x18e>
10004df0:	e24c      	b.n	1000528c <_vsnprintf+0x628>
10004df2:	286f      	cmp	r0, #111	; 0x6f
10004df4:	d100      	bne.n	10004df8 <_vsnprintf+0x194>
10004df6:	e34f      	b.n	10005498 <_vsnprintf+0x834>
10004df8:	2862      	cmp	r0, #98	; 0x62
10004dfa:	d101      	bne.n	10004e00 <_vsnprintf+0x19c>
10004dfc:	f000 fc30 	bl	10005660 <_vsnprintf+0x9fc>
10004e00:	2310      	movs	r3, #16
10004e02:	000a      	movs	r2, r1
10004e04:	439a      	bics	r2, r3
10004e06:	920b      	str	r2, [sp, #44]	; 0x2c
10004e08:	2869      	cmp	r0, #105	; 0x69
10004e0a:	d001      	beq.n	10004e10 <_vsnprintf+0x1ac>
10004e0c:	f000 fca9 	bl	10005762 <_vsnprintf+0xafe>
10004e10:	230a      	movs	r3, #10
10004e12:	930c      	str	r3, [sp, #48]	; 0x30
10004e14:	054b      	lsls	r3, r1, #21
10004e16:	d500      	bpl.n	10004e1a <_vsnprintf+0x1b6>
10004e18:	e1d0      	b.n	100051bc <_vsnprintf+0x558>
10004e1a:	9a0b      	ldr	r2, [sp, #44]	; 0x2c
10004e1c:	2380      	movs	r3, #128	; 0x80
10004e1e:	0011      	movs	r1, r2
10004e20:	009b      	lsls	r3, r3, #2
10004e22:	4019      	ands	r1, r3
10004e24:	468b      	mov	fp, r1
10004e26:	421a      	tst	r2, r3
10004e28:	d000      	beq.n	10004e2c <_vsnprintf+0x1c8>
10004e2a:	e2a1      	b.n	10005370 <_vsnprintf+0x70c>
10004e2c:	2380      	movs	r3, #128	; 0x80
10004e2e:	0011      	movs	r1, r2
10004e30:	005b      	lsls	r3, r3, #1
10004e32:	4019      	ands	r1, r3
10004e34:	468a      	mov	sl, r1
10004e36:	421a      	tst	r2, r3
10004e38:	d000      	beq.n	10004e3c <_vsnprintf+0x1d8>
10004e3a:	e3b6      	b.n	100055aa <_vsnprintf+0x946>
10004e3c:	0013      	movs	r3, r2
10004e3e:	065b      	lsls	r3, r3, #25
10004e40:	d500      	bpl.n	10004e44 <_vsnprintf+0x1e0>
10004e42:	e2ed      	b.n	10005420 <_vsnprintf+0x7bc>
10004e44:	0013      	movs	r3, r2
10004e46:	9909      	ldr	r1, [sp, #36]	; 0x24
10004e48:	061b      	lsls	r3, r3, #24
10004e4a:	d401      	bmi.n	10004e50 <_vsnprintf+0x1ec>
10004e4c:	f000 fc76 	bl	1000573c <_vsnprintf+0xad8>
10004e50:	c908      	ldmia	r1!, {r3}
10004e52:	b21b      	sxth	r3, r3
10004e54:	17d8      	asrs	r0, r3, #31
10004e56:	181a      	adds	r2, r3, r0
10004e58:	4042      	eors	r2, r0
10004e5a:	b292      	uxth	r2, r2
10004e5c:	9109      	str	r1, [sp, #36]	; 0x24
10004e5e:	4693      	mov	fp, r2
10004e60:	0fda      	lsrs	r2, r3, #31
10004e62:	9212      	str	r2, [sp, #72]	; 0x48
10004e64:	2b00      	cmp	r3, #0
10004e66:	d109      	bne.n	10004e7c <_vsnprintf+0x218>
10004e68:	2380      	movs	r3, #128	; 0x80
10004e6a:	2210      	movs	r2, #16
10004e6c:	990b      	ldr	r1, [sp, #44]	; 0x2c
10004e6e:	00db      	lsls	r3, r3, #3
10004e70:	400b      	ands	r3, r1
10004e72:	4391      	bics	r1, r2
10004e74:	910b      	str	r1, [sp, #44]	; 0x2c
10004e76:	2b00      	cmp	r3, #0
10004e78:	d000      	beq.n	10004e7c <_vsnprintf+0x218>
10004e7a:	e2e4      	b.n	10005446 <_vsnprintf+0x7e2>
10004e7c:	9a0b      	ldr	r2, [sp, #44]	; 0x2c
10004e7e:	2361      	movs	r3, #97	; 0x61
10004e80:	0692      	lsls	r2, r2, #26
10004e82:	d500      	bpl.n	10004e86 <_vsnprintf+0x222>
10004e84:	2341      	movs	r3, #65	; 0x41
10004e86:	a90e      	add	r1, sp, #56	; 0x38
10004e88:	221f      	movs	r2, #31
10004e8a:	468c      	mov	ip, r1
10004e8c:	b2db      	uxtb	r3, r3
10004e8e:	4462      	add	r2, ip
10004e90:	3b0a      	subs	r3, #10
10004e92:	465f      	mov	r7, fp
10004e94:	9513      	str	r5, [sp, #76]	; 0x4c
10004e96:	46a3      	mov	fp, r4
10004e98:	4655      	mov	r5, sl
10004e9a:	9c0c      	ldr	r4, [sp, #48]	; 0x30
10004e9c:	46b2      	mov	sl, r6
10004e9e:	930d      	str	r3, [sp, #52]	; 0x34
10004ea0:	0016      	movs	r6, r2
10004ea2:	e00a      	b.n	10004eba <_vsnprintf+0x256>
10004ea4:	3330      	adds	r3, #48	; 0x30
10004ea6:	b2db      	uxtb	r3, r3
10004ea8:	3501      	adds	r5, #1
10004eaa:	5573      	strb	r3, [r6, r5]
10004eac:	42a7      	cmp	r7, r4
10004eae:	d200      	bcs.n	10004eb2 <_vsnprintf+0x24e>
10004eb0:	e2ed      	b.n	1000548e <_vsnprintf+0x82a>
10004eb2:	2d20      	cmp	r5, #32
10004eb4:	d100      	bne.n	10004eb8 <_vsnprintf+0x254>
10004eb6:	e2ea      	b.n	1000548e <_vsnprintf+0x82a>
10004eb8:	0007      	movs	r7, r0
10004eba:	0021      	movs	r1, r4
10004ebc:	0038      	movs	r0, r7
10004ebe:	f000 fce7 	bl	10005890 <__wrap___aeabi_uidiv>
10004ec2:	b2cb      	uxtb	r3, r1
10004ec4:	2909      	cmp	r1, #9
10004ec6:	d9ed      	bls.n	10004ea4 <_vsnprintf+0x240>
10004ec8:	9a0d      	ldr	r2, [sp, #52]	; 0x34
10004eca:	4694      	mov	ip, r2
10004ecc:	4463      	add	r3, ip
10004ece:	b2db      	uxtb	r3, r3
10004ed0:	e7ea      	b.n	10004ea8 <_vsnprintf+0x244>
10004ed2:	2380      	movs	r3, #128	; 0x80
10004ed4:	009b      	lsls	r3, r3, #2
10004ed6:	7870      	ldrb	r0, [r6, #1]
10004ed8:	4319      	orrs	r1, r3
10004eda:	3601      	adds	r6, #1
10004edc:	e72f      	b.n	10004d3e <_vsnprintf+0xda>
10004ede:	7870      	ldrb	r0, [r6, #1]
10004ee0:	2868      	cmp	r0, #104	; 0x68
10004ee2:	d100      	bne.n	10004ee6 <_vsnprintf+0x282>
10004ee4:	e1cd      	b.n	10005282 <_vsnprintf+0x61e>
10004ee6:	2380      	movs	r3, #128	; 0x80
10004ee8:	3601      	adds	r6, #1
10004eea:	4319      	orrs	r1, r3
10004eec:	e727      	b.n	10004d3e <_vsnprintf+0xda>
10004eee:	7870      	ldrb	r0, [r6, #1]
10004ef0:	286c      	cmp	r0, #108	; 0x6c
10004ef2:	d100      	bne.n	10004ef6 <_vsnprintf+0x292>
10004ef4:	e1bf      	b.n	10005276 <_vsnprintf+0x612>
10004ef6:	2380      	movs	r3, #128	; 0x80
10004ef8:	005b      	lsls	r3, r3, #1
10004efa:	4319      	orrs	r1, r3
10004efc:	3601      	adds	r6, #1
10004efe:	e71e      	b.n	10004d3e <_vsnprintf+0xda>
10004f00:	2846      	cmp	r0, #70	; 0x46
10004f02:	d100      	bne.n	10004f06 <_vsnprintf+0x2a2>
10004f04:	e19b      	b.n	1000523e <_vsnprintf+0x5da>
10004f06:	2207      	movs	r2, #7
10004f08:	9b09      	ldr	r3, [sp, #36]	; 0x24
10004f0a:	9104      	str	r1, [sp, #16]
10004f0c:	3307      	adds	r3, #7
10004f0e:	4393      	bics	r3, r2
10004f10:	9a0a      	ldr	r2, [sp, #40]	; 0x28
10004f12:	0019      	movs	r1, r3
10004f14:	9203      	str	r2, [sp, #12]
10004f16:	4642      	mov	r2, r8
10004f18:	9202      	str	r2, [sp, #8]
10004f1a:	c90c      	ldmia	r1!, {r2, r3}
10004f1c:	9808      	ldr	r0, [sp, #32]
10004f1e:	9200      	str	r2, [sp, #0]
10004f20:	9301      	str	r3, [sp, #4]
10004f22:	9109      	str	r1, [sp, #36]	; 0x24
10004f24:	002a      	movs	r2, r5
10004f26:	464b      	mov	r3, r9
10004f28:	0021      	movs	r1, r4
10004f2a:	f7ff fccf 	bl	100048cc <_ftoa>
10004f2e:	3601      	adds	r6, #1
10004f30:	0005      	movs	r5, r0
10004f32:	e6bc      	b.n	10004cae <_vsnprintf+0x4a>
10004f34:	002a      	movs	r2, r5
10004f36:	1c6f      	adds	r7, r5, #1
10004f38:	464b      	mov	r3, r9
10004f3a:	9d08      	ldr	r5, [sp, #32]
10004f3c:	0021      	movs	r1, r4
10004f3e:	2025      	movs	r0, #37	; 0x25
10004f40:	47a8      	blx	r5
10004f42:	3601      	adds	r6, #1
10004f44:	003d      	movs	r5, r7
10004f46:	e6b2      	b.n	10004cae <_vsnprintf+0x4a>
10004f48:	078b      	lsls	r3, r1, #30
10004f4a:	d400      	bmi.n	10004f4e <_vsnprintf+0x2ea>
10004f4c:	e1ad      	b.n	100052aa <_vsnprintf+0x646>
10004f4e:	9b09      	ldr	r3, [sp, #36]	; 0x24
10004f50:	002a      	movs	r2, r5
10004f52:	469a      	mov	sl, r3
10004f54:	1c6b      	adds	r3, r5, #1
10004f56:	4698      	mov	r8, r3
10004f58:	4653      	mov	r3, sl
10004f5a:	cb01      	ldmia	r3!, {r0}
10004f5c:	0021      	movs	r1, r4
10004f5e:	469a      	mov	sl, r3
10004f60:	9f08      	ldr	r7, [sp, #32]
10004f62:	464b      	mov	r3, r9
10004f64:	b2c0      	uxtb	r0, r0
10004f66:	47b8      	blx	r7
10004f68:	9b0a      	ldr	r3, [sp, #40]	; 0x28
10004f6a:	469c      	mov	ip, r3
10004f6c:	4465      	add	r5, ip
10004f6e:	2b01      	cmp	r3, #1
10004f70:	d800      	bhi.n	10004f74 <_vsnprintf+0x310>
10004f72:	e286      	b.n	10005482 <_vsnprintf+0x81e>
10004f74:	9b08      	ldr	r3, [sp, #32]
10004f76:	4647      	mov	r7, r8
10004f78:	46b0      	mov	r8, r6
10004f7a:	0026      	movs	r6, r4
10004f7c:	464c      	mov	r4, r9
10004f7e:	4699      	mov	r9, r3
10004f80:	003a      	movs	r2, r7
10004f82:	0023      	movs	r3, r4
10004f84:	3701      	adds	r7, #1
10004f86:	0031      	movs	r1, r6
10004f88:	2020      	movs	r0, #32
10004f8a:	47c8      	blx	r9
10004f8c:	42af      	cmp	r7, r5
10004f8e:	d1f7      	bne.n	10004f80 <_vsnprintf+0x31c>
10004f90:	46a1      	mov	r9, r4
10004f92:	4653      	mov	r3, sl
10004f94:	0034      	movs	r4, r6
10004f96:	4646      	mov	r6, r8
10004f98:	9309      	str	r3, [sp, #36]	; 0x24
10004f9a:	3601      	adds	r6, #1
10004f9c:	e687      	b.n	10004cae <_vsnprintf+0x4a>
10004f9e:	46c0      	nop			; (mov r8, r8)
10004fa0:	10004c65 	.word	0x10004c65
10004fa4:	20000614 	.word	0x20000614
10004fa8:	10007310 	.word	0x10007310
10004fac:	10007354 	.word	0x10007354
10004fb0:	100073a0 	.word	0x100073a0
10004fb4:	9b09      	ldr	r3, [sp, #36]	; 0x24
10004fb6:	cb04      	ldmia	r3!, {r2}
10004fb8:	469b      	mov	fp, r3
10004fba:	4643      	mov	r3, r8
10004fbc:	9209      	str	r2, [sp, #36]	; 0x24
10004fbe:	2b00      	cmp	r3, #0
10004fc0:	d100      	bne.n	10004fc4 <_vsnprintf+0x360>
10004fc2:	e0c6      	b.n	10005152 <_vsnprintf+0x4ee>
10004fc4:	7813      	ldrb	r3, [r2, #0]
10004fc6:	469c      	mov	ip, r3
10004fc8:	2b00      	cmp	r3, #0
10004fca:	d100      	bne.n	10004fce <_vsnprintf+0x36a>
10004fcc:	e3bd      	b.n	1000574a <_vsnprintf+0xae6>
10004fce:	4643      	mov	r3, r8
10004fd0:	3b01      	subs	r3, #1
10004fd2:	9a09      	ldr	r2, [sp, #36]	; 0x24
10004fd4:	3301      	adds	r3, #1
10004fd6:	18d0      	adds	r0, r2, r3
10004fd8:	9f0a      	ldr	r7, [sp, #40]	; 0x28
10004fda:	0013      	movs	r3, r2
10004fdc:	e001      	b.n	10004fe2 <_vsnprintf+0x37e>
10004fde:	4283      	cmp	r3, r0
10004fe0:	d003      	beq.n	10004fea <_vsnprintf+0x386>
10004fe2:	785a      	ldrb	r2, [r3, #1]
10004fe4:	3301      	adds	r3, #1
10004fe6:	2a00      	cmp	r2, #0
10004fe8:	d1f9      	bne.n	10004fde <_vsnprintf+0x37a>
10004fea:	9a09      	ldr	r2, [sp, #36]	; 0x24
10004fec:	970a      	str	r7, [sp, #40]	; 0x28
10004fee:	1a9b      	subs	r3, r3, r2
10004ff0:	930b      	str	r3, [sp, #44]	; 0x2c
10004ff2:	2380      	movs	r3, #128	; 0x80
10004ff4:	000a      	movs	r2, r1
10004ff6:	00db      	lsls	r3, r3, #3
10004ff8:	401a      	ands	r2, r3
10004ffa:	920c      	str	r2, [sp, #48]	; 0x30
10004ffc:	4219      	tst	r1, r3
10004ffe:	d004      	beq.n	1000500a <_vsnprintf+0x3a6>
10005000:	9b0b      	ldr	r3, [sp, #44]	; 0x2c
10005002:	4543      	cmp	r3, r8
10005004:	d901      	bls.n	1000500a <_vsnprintf+0x3a6>
10005006:	4643      	mov	r3, r8
10005008:	930b      	str	r3, [sp, #44]	; 0x2c
1000500a:	2302      	movs	r3, #2
1000500c:	001a      	movs	r2, r3
1000500e:	400a      	ands	r2, r1
10005010:	920d      	str	r2, [sp, #52]	; 0x34
10005012:	420b      	tst	r3, r1
10005014:	d100      	bne.n	10005018 <_vsnprintf+0x3b4>
10005016:	e187      	b.n	10005328 <_vsnprintf+0x6c4>
10005018:	4660      	mov	r0, ip
1000501a:	2800      	cmp	r0, #0
1000501c:	d100      	bne.n	10005020 <_vsnprintf+0x3bc>
1000501e:	e168      	b.n	100052f2 <_vsnprintf+0x68e>
10005020:	9b0c      	ldr	r3, [sp, #48]	; 0x30
10005022:	2b00      	cmp	r3, #0
10005024:	d100      	bne.n	10005028 <_vsnprintf+0x3c4>
10005026:	e10d      	b.n	10005244 <_vsnprintf+0x5e0>
10005028:	44a8      	add	r8, r5
1000502a:	46c2      	mov	sl, r8
1000502c:	9b09      	ldr	r3, [sp, #36]	; 0x24
1000502e:	4657      	mov	r7, sl
10005030:	1b5b      	subs	r3, r3, r5
10005032:	4698      	mov	r8, r3
10005034:	9b08      	ldr	r3, [sp, #32]
10005036:	46b2      	mov	sl, r6
10005038:	002a      	movs	r2, r5
1000503a:	0026      	movs	r6, r4
1000503c:	464c      	mov	r4, r9
1000503e:	4699      	mov	r9, r3
10005040:	e009      	b.n	10005056 <_vsnprintf+0x3f2>
10005042:	0023      	movs	r3, r4
10005044:	0031      	movs	r1, r6
10005046:	1c55      	adds	r5, r2, #1
10005048:	47c8      	blx	r9
1000504a:	4643      	mov	r3, r8
1000504c:	5d58      	ldrb	r0, [r3, r5]
1000504e:	2800      	cmp	r0, #0
10005050:	d100      	bne.n	10005054 <_vsnprintf+0x3f0>
10005052:	e126      	b.n	100052a2 <_vsnprintf+0x63e>
10005054:	002a      	movs	r2, r5
10005056:	4297      	cmp	r7, r2
10005058:	d1f3      	bne.n	10005042 <_vsnprintf+0x3de>
1000505a:	46a1      	mov	r9, r4
1000505c:	003d      	movs	r5, r7
1000505e:	0034      	movs	r4, r6
10005060:	4656      	mov	r6, sl
10005062:	9b0d      	ldr	r3, [sp, #52]	; 0x34
10005064:	2b00      	cmp	r3, #0
10005066:	d000      	beq.n	1000506a <_vsnprintf+0x406>
10005068:	e143      	b.n	100052f2 <_vsnprintf+0x68e>
1000506a:	465b      	mov	r3, fp
1000506c:	3601      	adds	r6, #1
1000506e:	9309      	str	r3, [sp, #36]	; 0x24
10005070:	e61d      	b.n	10004cae <_vsnprintf+0x4a>
10005072:	9b09      	ldr	r3, [sp, #36]	; 0x24
10005074:	001a      	movs	r2, r3
10005076:	ca08      	ldmia	r2!, {r3}
10005078:	4692      	mov	sl, r2
1000507a:	2b00      	cmp	r3, #0
1000507c:	d048      	beq.n	10005110 <_vsnprintf+0x4ac>
1000507e:	2221      	movs	r2, #33	; 0x21
10005080:	4311      	orrs	r1, r2
10005082:	468b      	mov	fp, r1
10005084:	a80e      	add	r0, sp, #56	; 0x38
10005086:	4684      	mov	ip, r0
10005088:	211f      	movs	r1, #31
1000508a:	4461      	add	r1, ip
1000508c:	9509      	str	r5, [sp, #36]	; 0x24
1000508e:	2200      	movs	r2, #0
10005090:	270f      	movs	r7, #15
10005092:	46a4      	mov	ip, r4
10005094:	000d      	movs	r5, r1
10005096:	e002      	b.n	1000509e <_vsnprintf+0x43a>
10005098:	2a20      	cmp	r2, #32
1000509a:	d00c      	beq.n	100050b6 <_vsnprintf+0x452>
1000509c:	000b      	movs	r3, r1
1000509e:	003c      	movs	r4, r7
100050a0:	401c      	ands	r4, r3
100050a2:	0020      	movs	r0, r4
100050a4:	3037      	adds	r0, #55	; 0x37
100050a6:	2c09      	cmp	r4, #9
100050a8:	d800      	bhi.n	100050ac <_vsnprintf+0x448>
100050aa:	3807      	subs	r0, #7
100050ac:	3201      	adds	r2, #1
100050ae:	54a8      	strb	r0, [r5, r2]
100050b0:	0919      	lsrs	r1, r3, #4
100050b2:	2b0f      	cmp	r3, #15
100050b4:	d8f0      	bhi.n	10005098 <_vsnprintf+0x434>
100050b6:	4664      	mov	r4, ip
100050b8:	9d09      	ldr	r5, [sp, #36]	; 0x24
100050ba:	e032      	b.n	10005122 <_vsnprintf+0x4be>
100050bc:	4bdc      	ldr	r3, [pc, #880]	; (10005430 <_vsnprintf+0x7cc>)
100050be:	7820      	ldrb	r0, [r4, #0]
100050c0:	9308      	str	r3, [sp, #32]
100050c2:	2300      	movs	r3, #0
100050c4:	469a      	mov	sl, r3
100050c6:	2800      	cmp	r0, #0
100050c8:	d000      	beq.n	100050cc <_vsnprintf+0x468>
100050ca:	e5e4      	b.n	10004c96 <_vsnprintf+0x32>
100050cc:	2400      	movs	r4, #0
100050ce:	e665      	b.n	10004d9c <_vsnprintf+0x138>
100050d0:	4643      	mov	r3, r8
100050d2:	0006      	movs	r6, r0
100050d4:	9f0a      	ldr	r7, [sp, #40]	; 0x28
100050d6:	0098      	lsls	r0, r3, #2
100050d8:	18c0      	adds	r0, r0, r3
100050da:	3201      	adds	r2, #1
100050dc:	0040      	lsls	r0, r0, #1
100050de:	1980      	adds	r0, r0, r6
100050e0:	7816      	ldrb	r6, [r2, #0]
100050e2:	0003      	movs	r3, r0
100050e4:	0030      	movs	r0, r6
100050e6:	3830      	subs	r0, #48	; 0x30
100050e8:	3b30      	subs	r3, #48	; 0x30
100050ea:	2809      	cmp	r0, #9
100050ec:	d9f3      	bls.n	100050d6 <_vsnprintf+0x472>
100050ee:	0030      	movs	r0, r6
100050f0:	4698      	mov	r8, r3
100050f2:	0016      	movs	r6, r2
100050f4:	970a      	str	r7, [sp, #40]	; 0x28
100050f6:	e600      	b.n	10004cfa <_vsnprintf+0x96>
100050f8:	9b09      	ldr	r3, [sp, #36]	; 0x24
100050fa:	3602      	adds	r6, #2
100050fc:	cb04      	ldmia	r3!, {r2}
100050fe:	4690      	mov	r8, r2
10005100:	43d2      	mvns	r2, r2
10005102:	4640      	mov	r0, r8
10005104:	17d2      	asrs	r2, r2, #31
10005106:	4010      	ands	r0, r2
10005108:	4680      	mov	r8, r0
1000510a:	9309      	str	r3, [sp, #36]	; 0x24
1000510c:	7830      	ldrb	r0, [r6, #0]
1000510e:	e5f4      	b.n	10004cfa <_vsnprintf+0x96>
10005110:	2210      	movs	r2, #16
10005112:	0008      	movs	r0, r1
10005114:	4390      	bics	r0, r2
10005116:	3211      	adds	r2, #17
10005118:	4310      	orrs	r0, r2
1000511a:	4683      	mov	fp, r0
1000511c:	2200      	movs	r2, #0
1000511e:	0549      	lsls	r1, r1, #21
10005120:	d5b0      	bpl.n	10005084 <_vsnprintf+0x420>
10005122:	465b      	mov	r3, fp
10005124:	9306      	str	r3, [sp, #24]
10005126:	2308      	movs	r3, #8
10005128:	9305      	str	r3, [sp, #20]
1000512a:	4643      	mov	r3, r8
1000512c:	9304      	str	r3, [sp, #16]
1000512e:	2310      	movs	r3, #16
10005130:	9303      	str	r3, [sp, #12]
10005132:	2300      	movs	r3, #0
10005134:	9302      	str	r3, [sp, #8]
10005136:	ab16      	add	r3, sp, #88	; 0x58
10005138:	9201      	str	r2, [sp, #4]
1000513a:	9300      	str	r3, [sp, #0]
1000513c:	002a      	movs	r2, r5
1000513e:	464b      	mov	r3, r9
10005140:	0021      	movs	r1, r4
10005142:	9808      	ldr	r0, [sp, #32]
10005144:	f7ff f8ae 	bl	100042a4 <_ntoa_format>
10005148:	4653      	mov	r3, sl
1000514a:	0005      	movs	r5, r0
1000514c:	3601      	adds	r6, #1
1000514e:	9309      	str	r3, [sp, #36]	; 0x24
10005150:	e5ad      	b.n	10004cae <_vsnprintf+0x4a>
10005152:	7813      	ldrb	r3, [r2, #0]
10005154:	469c      	mov	ip, r3
10005156:	2b00      	cmp	r3, #0
10005158:	d100      	bne.n	1000515c <_vsnprintf+0x4f8>
1000515a:	e2f7      	b.n	1000574c <_vsnprintf+0xae8>
1000515c:	2302      	movs	r3, #2
1000515e:	425b      	negs	r3, r3
10005160:	e737      	b.n	10004fd2 <_vsnprintf+0x36e>
10005162:	2320      	movs	r3, #32
10005164:	0002      	movs	r2, r0
10005166:	439a      	bics	r2, r3
10005168:	2a47      	cmp	r2, #71	; 0x47
1000516a:	d104      	bne.n	10005176 <_vsnprintf+0x512>
1000516c:	2380      	movs	r3, #128	; 0x80
1000516e:	011b      	lsls	r3, r3, #4
10005170:	4319      	orrs	r1, r3
10005172:	2302      	movs	r3, #2
10005174:	4398      	bics	r0, r3
10005176:	2845      	cmp	r0, #69	; 0x45
10005178:	d101      	bne.n	1000517e <_vsnprintf+0x51a>
1000517a:	2320      	movs	r3, #32
1000517c:	4319      	orrs	r1, r3
1000517e:	2207      	movs	r2, #7
10005180:	9b09      	ldr	r3, [sp, #36]	; 0x24
10005182:	9104      	str	r1, [sp, #16]
10005184:	3307      	adds	r3, #7
10005186:	4393      	bics	r3, r2
10005188:	9a0a      	ldr	r2, [sp, #40]	; 0x28
1000518a:	0019      	movs	r1, r3
1000518c:	9203      	str	r2, [sp, #12]
1000518e:	4642      	mov	r2, r8
10005190:	9202      	str	r2, [sp, #8]
10005192:	c90c      	ldmia	r1!, {r2, r3}
10005194:	9808      	ldr	r0, [sp, #32]
10005196:	9200      	str	r2, [sp, #0]
10005198:	9301      	str	r3, [sp, #4]
1000519a:	9109      	str	r1, [sp, #36]	; 0x24
1000519c:	002a      	movs	r2, r5
1000519e:	464b      	mov	r3, r9
100051a0:	0021      	movs	r1, r4
100051a2:	f7ff f96d 	bl	10004480 <_etoa>
100051a6:	3601      	adds	r6, #1
100051a8:	0005      	movs	r5, r0
100051aa:	e580      	b.n	10004cae <_vsnprintf+0x4a>
100051ac:	2310      	movs	r3, #16
100051ae:	930c      	str	r3, [sp, #48]	; 0x30
100051b0:	230c      	movs	r3, #12
100051b2:	000a      	movs	r2, r1
100051b4:	439a      	bics	r2, r3
100051b6:	920b      	str	r2, [sp, #44]	; 0x2c
100051b8:	054b      	lsls	r3, r1, #21
100051ba:	d503      	bpl.n	100051c4 <_vsnprintf+0x560>
100051bc:	2301      	movs	r3, #1
100051be:	9a0b      	ldr	r2, [sp, #44]	; 0x2c
100051c0:	439a      	bics	r2, r3
100051c2:	920b      	str	r2, [sp, #44]	; 0x2c
100051c4:	2869      	cmp	r0, #105	; 0x69
100051c6:	d100      	bne.n	100051ca <_vsnprintf+0x566>
100051c8:	e627      	b.n	10004e1a <_vsnprintf+0x1b6>
100051ca:	2864      	cmp	r0, #100	; 0x64
100051cc:	d100      	bne.n	100051d0 <_vsnprintf+0x56c>
100051ce:	e624      	b.n	10004e1a <_vsnprintf+0x1b6>
100051d0:	9a0b      	ldr	r2, [sp, #44]	; 0x2c
100051d2:	2380      	movs	r3, #128	; 0x80
100051d4:	0011      	movs	r1, r2
100051d6:	009b      	lsls	r3, r3, #2
100051d8:	4019      	ands	r1, r3
100051da:	468b      	mov	fp, r1
100051dc:	421a      	tst	r2, r3
100051de:	d000      	beq.n	100051e2 <_vsnprintf+0x57e>
100051e0:	e166      	b.n	100054b0 <_vsnprintf+0x84c>
100051e2:	2380      	movs	r3, #128	; 0x80
100051e4:	0011      	movs	r1, r2
100051e6:	005b      	lsls	r3, r3, #1
100051e8:	4019      	ands	r1, r3
100051ea:	468a      	mov	sl, r1
100051ec:	421a      	tst	r2, r3
100051ee:	d000      	beq.n	100051f2 <_vsnprintf+0x58e>
100051f0:	e239      	b.n	10005666 <_vsnprintf+0xa02>
100051f2:	0013      	movs	r3, r2
100051f4:	065b      	lsls	r3, r3, #25
100051f6:	d500      	bpl.n	100051fa <_vsnprintf+0x596>
100051f8:	e13c      	b.n	10005474 <_vsnprintf+0x810>
100051fa:	0013      	movs	r3, r2
100051fc:	061b      	lsls	r3, r3, #24
100051fe:	d400      	bmi.n	10005202 <_vsnprintf+0x59e>
10005200:	e2a6      	b.n	10005750 <_vsnprintf+0xaec>
10005202:	9b09      	ldr	r3, [sp, #36]	; 0x24
10005204:	cb04      	ldmia	r3!, {r2}
10005206:	0412      	lsls	r2, r2, #16
10005208:	0c12      	lsrs	r2, r2, #16
1000520a:	4693      	mov	fp, r2
1000520c:	9309      	str	r3, [sp, #36]	; 0x24
1000520e:	465b      	mov	r3, fp
10005210:	2b00      	cmp	r3, #0
10005212:	d000      	beq.n	10005216 <_vsnprintf+0x5b2>
10005214:	e19a      	b.n	1000554c <_vsnprintf+0x8e8>
10005216:	9a0b      	ldr	r2, [sp, #44]	; 0x2c
10005218:	3310      	adds	r3, #16
1000521a:	0011      	movs	r1, r2
1000521c:	4399      	bics	r1, r3
1000521e:	910b      	str	r1, [sp, #44]	; 0x2c
10005220:	0552      	lsls	r2, r2, #21
10005222:	d400      	bmi.n	10005226 <_vsnprintf+0x5c2>
10005224:	e192      	b.n	1000554c <_vsnprintf+0x8e8>
10005226:	2300      	movs	r3, #0
10005228:	469a      	mov	sl, r3
1000522a:	9b0b      	ldr	r3, [sp, #44]	; 0x2c
1000522c:	9306      	str	r3, [sp, #24]
1000522e:	9b0a      	ldr	r3, [sp, #40]	; 0x28
10005230:	9305      	str	r3, [sp, #20]
10005232:	4643      	mov	r3, r8
10005234:	9304      	str	r3, [sp, #16]
10005236:	9b0c      	ldr	r3, [sp, #48]	; 0x30
10005238:	9303      	str	r3, [sp, #12]
1000523a:	2300      	movs	r3, #0
1000523c:	e10c      	b.n	10005458 <_vsnprintf+0x7f4>
1000523e:	2320      	movs	r3, #32
10005240:	4319      	orrs	r1, r3
10005242:	e660      	b.n	10004f06 <_vsnprintf+0x2a2>
10005244:	9b09      	ldr	r3, [sp, #36]	; 0x24
10005246:	9a0a      	ldr	r2, [sp, #40]	; 0x28
10005248:	1b5b      	subs	r3, r3, r5
1000524a:	4698      	mov	r8, r3
1000524c:	464b      	mov	r3, r9
1000524e:	4691      	mov	r9, r2
10005250:	001f      	movs	r7, r3
10005252:	46b2      	mov	sl, r6
10005254:	0026      	movs	r6, r4
10005256:	9c08      	ldr	r4, [sp, #32]
10005258:	002a      	movs	r2, r5
1000525a:	003b      	movs	r3, r7
1000525c:	0031      	movs	r1, r6
1000525e:	47a0      	blx	r4
10005260:	4643      	mov	r3, r8
10005262:	3501      	adds	r5, #1
10005264:	5d58      	ldrb	r0, [r3, r5]
10005266:	2800      	cmp	r0, #0
10005268:	d1f6      	bne.n	10005258 <_vsnprintf+0x5f4>
1000526a:	464a      	mov	r2, r9
1000526c:	0034      	movs	r4, r6
1000526e:	46b9      	mov	r9, r7
10005270:	4656      	mov	r6, sl
10005272:	920a      	str	r2, [sp, #40]	; 0x28
10005274:	e6f5      	b.n	10005062 <_vsnprintf+0x3fe>
10005276:	23c0      	movs	r3, #192	; 0xc0
10005278:	009b      	lsls	r3, r3, #2
1000527a:	78b0      	ldrb	r0, [r6, #2]
1000527c:	4319      	orrs	r1, r3
1000527e:	3602      	adds	r6, #2
10005280:	e55d      	b.n	10004d3e <_vsnprintf+0xda>
10005282:	23c0      	movs	r3, #192	; 0xc0
10005284:	78b0      	ldrb	r0, [r6, #2]
10005286:	4319      	orrs	r1, r3
10005288:	3602      	adds	r6, #2
1000528a:	e558      	b.n	10004d3e <_vsnprintf+0xda>
1000528c:	230c      	movs	r3, #12
1000528e:	000a      	movs	r2, r1
10005290:	439a      	bics	r2, r3
10005292:	3314      	adds	r3, #20
10005294:	431a      	orrs	r2, r3
10005296:	3b10      	subs	r3, #16
10005298:	920b      	str	r2, [sp, #44]	; 0x2c
1000529a:	930c      	str	r3, [sp, #48]	; 0x30
1000529c:	054b      	lsls	r3, r1, #21
1000529e:	d48d      	bmi.n	100051bc <_vsnprintf+0x558>
100052a0:	e796      	b.n	100051d0 <_vsnprintf+0x56c>
100052a2:	46a1      	mov	r9, r4
100052a4:	0034      	movs	r4, r6
100052a6:	4656      	mov	r6, sl
100052a8:	e6db      	b.n	10005062 <_vsnprintf+0x3fe>
100052aa:	9a0a      	ldr	r2, [sp, #40]	; 0x28
100052ac:	2a01      	cmp	r2, #1
100052ae:	d800      	bhi.n	100052b2 <_vsnprintf+0x64e>
100052b0:	e253      	b.n	1000575a <_vsnprintf+0xaf6>
100052b2:	1e6b      	subs	r3, r5, #1
100052b4:	189f      	adds	r7, r3, r2
100052b6:	9b08      	ldr	r3, [sp, #32]
100052b8:	46b0      	mov	r8, r6
100052ba:	0026      	movs	r6, r4
100052bc:	464c      	mov	r4, r9
100052be:	4699      	mov	r9, r3
100052c0:	002a      	movs	r2, r5
100052c2:	0023      	movs	r3, r4
100052c4:	3501      	adds	r5, #1
100052c6:	0031      	movs	r1, r6
100052c8:	2020      	movs	r0, #32
100052ca:	47c8      	blx	r9
100052cc:	42bd      	cmp	r5, r7
100052ce:	d1f7      	bne.n	100052c0 <_vsnprintf+0x65c>
100052d0:	46a1      	mov	r9, r4
100052d2:	0034      	movs	r4, r6
100052d4:	4646      	mov	r6, r8
100052d6:	9b09      	ldr	r3, [sp, #36]	; 0x24
100052d8:	003a      	movs	r2, r7
100052da:	cb01      	ldmia	r3!, {r0}
100052dc:	0021      	movs	r1, r4
100052de:	4698      	mov	r8, r3
100052e0:	1c7d      	adds	r5, r7, #1
100052e2:	464b      	mov	r3, r9
100052e4:	9f08      	ldr	r7, [sp, #32]
100052e6:	b2c0      	uxtb	r0, r0
100052e8:	47b8      	blx	r7
100052ea:	4643      	mov	r3, r8
100052ec:	3601      	adds	r6, #1
100052ee:	9309      	str	r3, [sp, #36]	; 0x24
100052f0:	e4dd      	b.n	10004cae <_vsnprintf+0x4a>
100052f2:	9b0b      	ldr	r3, [sp, #44]	; 0x2c
100052f4:	9a0a      	ldr	r2, [sp, #40]	; 0x28
100052f6:	46a8      	mov	r8, r5
100052f8:	429a      	cmp	r2, r3
100052fa:	d800      	bhi.n	100052fe <_vsnprintf+0x69a>
100052fc:	e6b5      	b.n	1000506a <_vsnprintf+0x406>
100052fe:	4694      	mov	ip, r2
10005300:	4465      	add	r5, ip
10005302:	1aed      	subs	r5, r5, r3
10005304:	9b08      	ldr	r3, [sp, #32]
10005306:	4647      	mov	r7, r8
10005308:	46b0      	mov	r8, r6
1000530a:	0026      	movs	r6, r4
1000530c:	464c      	mov	r4, r9
1000530e:	4699      	mov	r9, r3
10005310:	003a      	movs	r2, r7
10005312:	0023      	movs	r3, r4
10005314:	3701      	adds	r7, #1
10005316:	0031      	movs	r1, r6
10005318:	2020      	movs	r0, #32
1000531a:	47c8      	blx	r9
1000531c:	42af      	cmp	r7, r5
1000531e:	d1f7      	bne.n	10005310 <_vsnprintf+0x6ac>
10005320:	46a1      	mov	r9, r4
10005322:	0034      	movs	r4, r6
10005324:	4646      	mov	r6, r8
10005326:	e6a0      	b.n	1000506a <_vsnprintf+0x406>
10005328:	9a0b      	ldr	r2, [sp, #44]	; 0x2c
1000532a:	990a      	ldr	r1, [sp, #40]	; 0x28
1000532c:	1c53      	adds	r3, r2, #1
1000532e:	4291      	cmp	r1, r2
10005330:	d800      	bhi.n	10005334 <_vsnprintf+0x6d0>
10005332:	e214      	b.n	1000575e <_vsnprintf+0xafa>
10005334:	194b      	adds	r3, r1, r5
10005336:	1a9b      	subs	r3, r3, r2
10005338:	001f      	movs	r7, r3
1000533a:	9b08      	ldr	r3, [sp, #32]
1000533c:	46b2      	mov	sl, r6
1000533e:	0026      	movs	r6, r4
10005340:	464c      	mov	r4, r9
10005342:	4699      	mov	r9, r3
10005344:	002a      	movs	r2, r5
10005346:	0023      	movs	r3, r4
10005348:	3501      	adds	r5, #1
1000534a:	0031      	movs	r1, r6
1000534c:	2020      	movs	r0, #32
1000534e:	47c8      	blx	r9
10005350:	42bd      	cmp	r5, r7
10005352:	d1f7      	bne.n	10005344 <_vsnprintf+0x6e0>
10005354:	9b0a      	ldr	r3, [sp, #40]	; 0x28
10005356:	46a1      	mov	r9, r4
10005358:	3301      	adds	r3, #1
1000535a:	930b      	str	r3, [sp, #44]	; 0x2c
1000535c:	9b09      	ldr	r3, [sp, #36]	; 0x24
1000535e:	0034      	movs	r4, r6
10005360:	781b      	ldrb	r3, [r3, #0]
10005362:	4656      	mov	r6, sl
10005364:	469c      	mov	ip, r3
10005366:	4660      	mov	r0, ip
10005368:	2800      	cmp	r0, #0
1000536a:	d000      	beq.n	1000536e <_vsnprintf+0x70a>
1000536c:	e658      	b.n	10005020 <_vsnprintf+0x3bc>
1000536e:	e67c      	b.n	1000506a <_vsnprintf+0x406>
10005370:	2207      	movs	r2, #7
10005372:	9b09      	ldr	r3, [sp, #36]	; 0x24
10005374:	3307      	adds	r3, #7
10005376:	4393      	bics	r3, r2
10005378:	3201      	adds	r2, #1
1000537a:	4694      	mov	ip, r2
1000537c:	449c      	add	ip, r3
1000537e:	4662      	mov	r2, ip
10005380:	685f      	ldr	r7, [r3, #4]
10005382:	9209      	str	r2, [sp, #36]	; 0x24
10005384:	681a      	ldr	r2, [r3, #0]
10005386:	17fb      	asrs	r3, r7, #31
10005388:	9310      	str	r3, [sp, #64]	; 0x40
1000538a:	9311      	str	r3, [sp, #68]	; 0x44
1000538c:	9810      	ldr	r0, [sp, #64]	; 0x40
1000538e:	9911      	ldr	r1, [sp, #68]	; 0x44
10005390:	0003      	movs	r3, r0
10005392:	4053      	eors	r3, r2
10005394:	930e      	str	r3, [sp, #56]	; 0x38
10005396:	000b      	movs	r3, r1
10005398:	407b      	eors	r3, r7
1000539a:	930f      	str	r3, [sp, #60]	; 0x3c
1000539c:	4694      	mov	ip, r2
1000539e:	9a0e      	ldr	r2, [sp, #56]	; 0x38
100053a0:	9b0f      	ldr	r3, [sp, #60]	; 0x3c
100053a2:	1a12      	subs	r2, r2, r0
100053a4:	418b      	sbcs	r3, r1
100053a6:	920e      	str	r2, [sp, #56]	; 0x38
100053a8:	930f      	str	r3, [sp, #60]	; 0x3c
100053aa:	0ffb      	lsrs	r3, r7, #31
100053ac:	4662      	mov	r2, ip
100053ae:	9312      	str	r3, [sp, #72]	; 0x48
100053b0:	2300      	movs	r3, #0
100053b2:	433a      	orrs	r2, r7
100053b4:	469b      	mov	fp, r3
100053b6:	d03d      	beq.n	10005434 <_vsnprintf+0x7d0>
100053b8:	9a0b      	ldr	r2, [sp, #44]	; 0x2c
100053ba:	2361      	movs	r3, #97	; 0x61
100053bc:	0692      	lsls	r2, r2, #26
100053be:	d500      	bpl.n	100053c2 <_vsnprintf+0x75e>
100053c0:	2341      	movs	r3, #65	; 0x41
100053c2:	2200      	movs	r2, #0
100053c4:	b2db      	uxtb	r3, r3
100053c6:	a90e      	add	r1, sp, #56	; 0x38
100053c8:	3b0a      	subs	r3, #10
100053ca:	468c      	mov	ip, r1
100053cc:	4692      	mov	sl, r2
100053ce:	930d      	str	r3, [sp, #52]	; 0x34
100053d0:	4643      	mov	r3, r8
100053d2:	321f      	adds	r2, #31
100053d4:	4462      	add	r2, ip
100053d6:	9513      	str	r5, [sp, #76]	; 0x4c
100053d8:	9615      	str	r6, [sp, #84]	; 0x54
100053da:	4655      	mov	r5, sl
100053dc:	9e0e      	ldr	r6, [sp, #56]	; 0x38
100053de:	9f0f      	ldr	r7, [sp, #60]	; 0x3c
100053e0:	46a2      	mov	sl, r4
100053e2:	4690      	mov	r8, r2
100053e4:	9c0c      	ldr	r4, [sp, #48]	; 0x30
100053e6:	9314      	str	r3, [sp, #80]	; 0x50
100053e8:	e00c      	b.n	10005404 <_vsnprintf+0x7a0>
100053ea:	3230      	adds	r2, #48	; 0x30
100053ec:	b2d2      	uxtb	r2, r2
100053ee:	4643      	mov	r3, r8
100053f0:	3501      	adds	r5, #1
100053f2:	555a      	strb	r2, [r3, r5]
100053f4:	45bb      	cmp	fp, r7
100053f6:	d100      	bne.n	100053fa <_vsnprintf+0x796>
100053f8:	e18a      	b.n	10005710 <_vsnprintf+0xaac>
100053fa:	2d20      	cmp	r5, #32
100053fc:	d100      	bne.n	10005400 <_vsnprintf+0x79c>
100053fe:	e18a      	b.n	10005716 <_vsnprintf+0xab2>
10005400:	0006      	movs	r6, r0
10005402:	000f      	movs	r7, r1
10005404:	0022      	movs	r2, r4
10005406:	2300      	movs	r3, #0
10005408:	0030      	movs	r0, r6
1000540a:	0039      	movs	r1, r7
1000540c:	f000 fa7e 	bl	1000590c <__wrap___aeabi_uldivmod>
10005410:	b2d2      	uxtb	r2, r2
10005412:	2a09      	cmp	r2, #9
10005414:	d9e9      	bls.n	100053ea <_vsnprintf+0x786>
10005416:	9b0d      	ldr	r3, [sp, #52]	; 0x34
10005418:	469c      	mov	ip, r3
1000541a:	4462      	add	r2, ip
1000541c:	b2d2      	uxtb	r2, r2
1000541e:	e7e6      	b.n	100053ee <_vsnprintf+0x78a>
10005420:	23ff      	movs	r3, #255	; 0xff
10005422:	9909      	ldr	r1, [sp, #36]	; 0x24
10005424:	c904      	ldmia	r1!, {r2}
10005426:	4013      	ands	r3, r2
10005428:	001a      	movs	r2, r3
1000542a:	9109      	str	r1, [sp, #36]	; 0x24
1000542c:	e517      	b.n	10004e5e <_vsnprintf+0x1fa>
1000542e:	46c0      	nop			; (mov r8, r8)
10005430:	10004205 	.word	0x10004205
10005434:	9a0b      	ldr	r2, [sp, #44]	; 0x2c
10005436:	3310      	adds	r3, #16
10005438:	0011      	movs	r1, r2
1000543a:	4399      	bics	r1, r3
1000543c:	910b      	str	r1, [sp, #44]	; 0x2c
1000543e:	0552      	lsls	r2, r2, #21
10005440:	d5ba      	bpl.n	100053b8 <_vsnprintf+0x754>
10005442:	2300      	movs	r3, #0
10005444:	469a      	mov	sl, r3
10005446:	9b0b      	ldr	r3, [sp, #44]	; 0x2c
10005448:	9306      	str	r3, [sp, #24]
1000544a:	9b0a      	ldr	r3, [sp, #40]	; 0x28
1000544c:	9305      	str	r3, [sp, #20]
1000544e:	4643      	mov	r3, r8
10005450:	9304      	str	r3, [sp, #16]
10005452:	9b0c      	ldr	r3, [sp, #48]	; 0x30
10005454:	9303      	str	r3, [sp, #12]
10005456:	9b12      	ldr	r3, [sp, #72]	; 0x48
10005458:	9302      	str	r3, [sp, #8]
1000545a:	4653      	mov	r3, sl
1000545c:	9301      	str	r3, [sp, #4]
1000545e:	ab16      	add	r3, sp, #88	; 0x58
10005460:	002a      	movs	r2, r5
10005462:	9300      	str	r3, [sp, #0]
10005464:	0021      	movs	r1, r4
10005466:	464b      	mov	r3, r9
10005468:	9808      	ldr	r0, [sp, #32]
1000546a:	f7fe ff1b 	bl	100042a4 <_ntoa_format>
1000546e:	3601      	adds	r6, #1
10005470:	0005      	movs	r5, r0
10005472:	e41c      	b.n	10004cae <_vsnprintf+0x4a>
10005474:	22ff      	movs	r2, #255	; 0xff
10005476:	9b09      	ldr	r3, [sp, #36]	; 0x24
10005478:	cb02      	ldmia	r3!, {r1}
1000547a:	4011      	ands	r1, r2
1000547c:	468b      	mov	fp, r1
1000547e:	9309      	str	r3, [sp, #36]	; 0x24
10005480:	e6c5      	b.n	1000520e <_vsnprintf+0x5aa>
10005482:	4653      	mov	r3, sl
10005484:	4645      	mov	r5, r8
10005486:	9309      	str	r3, [sp, #36]	; 0x24
10005488:	3601      	adds	r6, #1
1000548a:	f7ff fc10 	bl	10004cae <_vsnprintf+0x4a>
1000548e:	4656      	mov	r6, sl
10005490:	465c      	mov	r4, fp
10005492:	46aa      	mov	sl, r5
10005494:	9d13      	ldr	r5, [sp, #76]	; 0x4c
10005496:	e7d6      	b.n	10005446 <_vsnprintf+0x7e2>
10005498:	2308      	movs	r3, #8
1000549a:	930c      	str	r3, [sp, #48]	; 0x30
1000549c:	910b      	str	r1, [sp, #44]	; 0x2c
1000549e:	990b      	ldr	r1, [sp, #44]	; 0x2c
100054a0:	2864      	cmp	r0, #100	; 0x64
100054a2:	d000      	beq.n	100054a6 <_vsnprintf+0x842>
100054a4:	e684      	b.n	100051b0 <_vsnprintf+0x54c>
100054a6:	9b0b      	ldr	r3, [sp, #44]	; 0x2c
100054a8:	055b      	lsls	r3, r3, #21
100054aa:	d500      	bpl.n	100054ae <_vsnprintf+0x84a>
100054ac:	e686      	b.n	100051bc <_vsnprintf+0x558>
100054ae:	e4b4      	b.n	10004e1a <_vsnprintf+0x1b6>
100054b0:	2207      	movs	r2, #7
100054b2:	9b09      	ldr	r3, [sp, #36]	; 0x24
100054b4:	3307      	adds	r3, #7
100054b6:	4393      	bics	r3, r2
100054b8:	3201      	adds	r2, #1
100054ba:	4694      	mov	ip, r2
100054bc:	449c      	add	ip, r3
100054be:	4662      	mov	r2, ip
100054c0:	9209      	str	r2, [sp, #36]	; 0x24
100054c2:	681a      	ldr	r2, [r3, #0]
100054c4:	685b      	ldr	r3, [r3, #4]
100054c6:	0010      	movs	r0, r2
100054c8:	469b      	mov	fp, r3
100054ca:	0013      	movs	r3, r2
100054cc:	465a      	mov	r2, fp
100054ce:	4313      	orrs	r3, r2
100054d0:	d107      	bne.n	100054e2 <_vsnprintf+0x87e>
100054d2:	9a0b      	ldr	r2, [sp, #44]	; 0x2c
100054d4:	3310      	adds	r3, #16
100054d6:	0011      	movs	r1, r2
100054d8:	4399      	bics	r1, r3
100054da:	910b      	str	r1, [sp, #44]	; 0x2c
100054dc:	0552      	lsls	r2, r2, #21
100054de:	d500      	bpl.n	100054e2 <_vsnprintf+0x87e>
100054e0:	e6a1      	b.n	10005226 <_vsnprintf+0x5c2>
100054e2:	9a0b      	ldr	r2, [sp, #44]	; 0x2c
100054e4:	2361      	movs	r3, #97	; 0x61
100054e6:	0692      	lsls	r2, r2, #26
100054e8:	d500      	bpl.n	100054ec <_vsnprintf+0x888>
100054ea:	2341      	movs	r3, #65	; 0x41
100054ec:	2200      	movs	r2, #0
100054ee:	b2db      	uxtb	r3, r3
100054f0:	a90e      	add	r1, sp, #56	; 0x38
100054f2:	3b0a      	subs	r3, #10
100054f4:	468c      	mov	ip, r1
100054f6:	4692      	mov	sl, r2
100054f8:	930d      	str	r3, [sp, #52]	; 0x34
100054fa:	4643      	mov	r3, r8
100054fc:	321f      	adds	r2, #31
100054fe:	4462      	add	r2, ip
10005500:	465f      	mov	r7, fp
10005502:	9512      	str	r5, [sp, #72]	; 0x48
10005504:	46a3      	mov	fp, r4
10005506:	4655      	mov	r5, sl
10005508:	0004      	movs	r4, r0
1000550a:	46b2      	mov	sl, r6
1000550c:	4690      	mov	r8, r2
1000550e:	9e0c      	ldr	r6, [sp, #48]	; 0x30
10005510:	9313      	str	r3, [sp, #76]	; 0x4c
10005512:	e00d      	b.n	10005530 <_vsnprintf+0x8cc>
10005514:	3230      	adds	r2, #48	; 0x30
10005516:	b2d2      	uxtb	r2, r2
10005518:	4643      	mov	r3, r8
1000551a:	3501      	adds	r5, #1
1000551c:	555a      	strb	r2, [r3, r5]
1000551e:	2300      	movs	r3, #0
10005520:	42bb      	cmp	r3, r7
10005522:	d100      	bne.n	10005526 <_vsnprintf+0x8c2>
10005524:	e100      	b.n	10005728 <_vsnprintf+0xac4>
10005526:	2d20      	cmp	r5, #32
10005528:	d100      	bne.n	1000552c <_vsnprintf+0x8c8>
1000552a:	e100      	b.n	1000572e <_vsnprintf+0xaca>
1000552c:	0004      	movs	r4, r0
1000552e:	000f      	movs	r7, r1
10005530:	0032      	movs	r2, r6
10005532:	2300      	movs	r3, #0
10005534:	0020      	movs	r0, r4
10005536:	0039      	movs	r1, r7
10005538:	f000 f9e8 	bl	1000590c <__wrap___aeabi_uldivmod>
1000553c:	b2d2      	uxtb	r2, r2
1000553e:	2a09      	cmp	r2, #9
10005540:	d9e8      	bls.n	10005514 <_vsnprintf+0x8b0>
10005542:	9b0d      	ldr	r3, [sp, #52]	; 0x34
10005544:	469c      	mov	ip, r3
10005546:	4462      	add	r2, ip
10005548:	b2d2      	uxtb	r2, r2
1000554a:	e7e5      	b.n	10005518 <_vsnprintf+0x8b4>
1000554c:	9a0b      	ldr	r2, [sp, #44]	; 0x2c
1000554e:	2361      	movs	r3, #97	; 0x61
10005550:	0692      	lsls	r2, r2, #26
10005552:	d500      	bpl.n	10005556 <_vsnprintf+0x8f2>
10005554:	2341      	movs	r3, #65	; 0x41
10005556:	b2db      	uxtb	r3, r3
10005558:	a90e      	add	r1, sp, #56	; 0x38
1000555a:	3b0a      	subs	r3, #10
1000555c:	221f      	movs	r2, #31
1000555e:	468c      	mov	ip, r1
10005560:	930d      	str	r3, [sp, #52]	; 0x34
10005562:	0023      	movs	r3, r4
10005564:	4462      	add	r2, ip
10005566:	465c      	mov	r4, fp
10005568:	9512      	str	r5, [sp, #72]	; 0x48
1000556a:	0017      	movs	r7, r2
1000556c:	4655      	mov	r5, sl
1000556e:	469b      	mov	fp, r3
10005570:	46b2      	mov	sl, r6
10005572:	9e0c      	ldr	r6, [sp, #48]	; 0x30
10005574:	e008      	b.n	10005588 <_vsnprintf+0x924>
10005576:	3330      	adds	r3, #48	; 0x30
10005578:	b2db      	uxtb	r3, r3
1000557a:	3501      	adds	r5, #1
1000557c:	557b      	strb	r3, [r7, r5]
1000557e:	42b4      	cmp	r4, r6
10005580:	d30e      	bcc.n	100055a0 <_vsnprintf+0x93c>
10005582:	2d20      	cmp	r5, #32
10005584:	d00c      	beq.n	100055a0 <_vsnprintf+0x93c>
10005586:	0004      	movs	r4, r0
10005588:	0031      	movs	r1, r6
1000558a:	0020      	movs	r0, r4
1000558c:	f000 f980 	bl	10005890 <__wrap___aeabi_uidiv>
10005590:	b2cb      	uxtb	r3, r1
10005592:	2909      	cmp	r1, #9
10005594:	d9ef      	bls.n	10005576 <_vsnprintf+0x912>
10005596:	9a0d      	ldr	r2, [sp, #52]	; 0x34
10005598:	4694      	mov	ip, r2
1000559a:	4463      	add	r3, ip
1000559c:	b2db      	uxtb	r3, r3
1000559e:	e7ec      	b.n	1000557a <_vsnprintf+0x916>
100055a0:	4656      	mov	r6, sl
100055a2:	465c      	mov	r4, fp
100055a4:	46aa      	mov	sl, r5
100055a6:	9d12      	ldr	r5, [sp, #72]	; 0x48
100055a8:	e63f      	b.n	1000522a <_vsnprintf+0x5c6>
100055aa:	9b09      	ldr	r3, [sp, #36]	; 0x24
100055ac:	001a      	movs	r2, r3
100055ae:	ca08      	ldmia	r2!, {r3}
100055b0:	17d9      	asrs	r1, r3, #31
100055b2:	9213      	str	r2, [sp, #76]	; 0x4c
100055b4:	185a      	adds	r2, r3, r1
100055b6:	404a      	eors	r2, r1
100055b8:	4692      	mov	sl, r2
100055ba:	0fda      	lsrs	r2, r3, #31
100055bc:	9212      	str	r2, [sp, #72]	; 0x48
100055be:	2b00      	cmp	r3, #0
100055c0:	d108      	bne.n	100055d4 <_vsnprintf+0x970>
100055c2:	2380      	movs	r3, #128	; 0x80
100055c4:	2210      	movs	r2, #16
100055c6:	990b      	ldr	r1, [sp, #44]	; 0x2c
100055c8:	00db      	lsls	r3, r3, #3
100055ca:	400b      	ands	r3, r1
100055cc:	4391      	bics	r1, r2
100055ce:	910b      	str	r1, [sp, #44]	; 0x2c
100055d0:	2b00      	cmp	r3, #0
100055d2:	d12b      	bne.n	1000562c <_vsnprintf+0x9c8>
100055d4:	9a0b      	ldr	r2, [sp, #44]	; 0x2c
100055d6:	2361      	movs	r3, #97	; 0x61
100055d8:	0692      	lsls	r2, r2, #26
100055da:	d500      	bpl.n	100055de <_vsnprintf+0x97a>
100055dc:	2341      	movs	r3, #65	; 0x41
100055de:	aa0e      	add	r2, sp, #56	; 0x38
100055e0:	271f      	movs	r7, #31
100055e2:	4694      	mov	ip, r2
100055e4:	b2db      	uxtb	r3, r3
100055e6:	3b0a      	subs	r3, #10
100055e8:	950d      	str	r5, [sp, #52]	; 0x34
100055ea:	4467      	add	r7, ip
100055ec:	465d      	mov	r5, fp
100055ee:	9309      	str	r3, [sp, #36]	; 0x24
100055f0:	46a3      	mov	fp, r4
100055f2:	4654      	mov	r4, sl
100055f4:	46b2      	mov	sl, r6
100055f6:	9e0c      	ldr	r6, [sp, #48]	; 0x30
100055f8:	e008      	b.n	1000560c <_vsnprintf+0x9a8>
100055fa:	3330      	adds	r3, #48	; 0x30
100055fc:	b2db      	uxtb	r3, r3
100055fe:	3501      	adds	r5, #1
10005600:	557b      	strb	r3, [r7, r5]
10005602:	42b4      	cmp	r4, r6
10005604:	d30e      	bcc.n	10005624 <_vsnprintf+0x9c0>
10005606:	2d20      	cmp	r5, #32
10005608:	d00c      	beq.n	10005624 <_vsnprintf+0x9c0>
1000560a:	0004      	movs	r4, r0
1000560c:	0031      	movs	r1, r6
1000560e:	0020      	movs	r0, r4
10005610:	f000 f93e 	bl	10005890 <__wrap___aeabi_uidiv>
10005614:	b2cb      	uxtb	r3, r1
10005616:	2909      	cmp	r1, #9
10005618:	d9ef      	bls.n	100055fa <_vsnprintf+0x996>
1000561a:	9a09      	ldr	r2, [sp, #36]	; 0x24
1000561c:	4694      	mov	ip, r2
1000561e:	4463      	add	r3, ip
10005620:	b2db      	uxtb	r3, r3
10005622:	e7ec      	b.n	100055fe <_vsnprintf+0x99a>
10005624:	4656      	mov	r6, sl
10005626:	465c      	mov	r4, fp
10005628:	46ab      	mov	fp, r5
1000562a:	9d0d      	ldr	r5, [sp, #52]	; 0x34
1000562c:	9b0b      	ldr	r3, [sp, #44]	; 0x2c
1000562e:	002a      	movs	r2, r5
10005630:	9306      	str	r3, [sp, #24]
10005632:	9b0a      	ldr	r3, [sp, #40]	; 0x28
10005634:	0021      	movs	r1, r4
10005636:	9305      	str	r3, [sp, #20]
10005638:	4643      	mov	r3, r8
1000563a:	9304      	str	r3, [sp, #16]
1000563c:	9b0c      	ldr	r3, [sp, #48]	; 0x30
1000563e:	9808      	ldr	r0, [sp, #32]
10005640:	9303      	str	r3, [sp, #12]
10005642:	9b12      	ldr	r3, [sp, #72]	; 0x48
10005644:	3601      	adds	r6, #1
10005646:	9302      	str	r3, [sp, #8]
10005648:	465b      	mov	r3, fp
1000564a:	9301      	str	r3, [sp, #4]
1000564c:	ab16      	add	r3, sp, #88	; 0x58
1000564e:	9300      	str	r3, [sp, #0]
10005650:	464b      	mov	r3, r9
10005652:	f7fe fe27 	bl	100042a4 <_ntoa_format>
10005656:	9b13      	ldr	r3, [sp, #76]	; 0x4c
10005658:	0005      	movs	r5, r0
1000565a:	9309      	str	r3, [sp, #36]	; 0x24
1000565c:	f7ff fb27 	bl	10004cae <_vsnprintf+0x4a>
10005660:	2302      	movs	r3, #2
10005662:	930c      	str	r3, [sp, #48]	; 0x30
10005664:	e71a      	b.n	1000549c <_vsnprintf+0x838>
10005666:	9b09      	ldr	r3, [sp, #36]	; 0x24
10005668:	cb04      	ldmia	r3!, {r2}
1000566a:	4692      	mov	sl, r2
1000566c:	9312      	str	r3, [sp, #72]	; 0x48
1000566e:	2a00      	cmp	r2, #0
10005670:	d108      	bne.n	10005684 <_vsnprintf+0xa20>
10005672:	2380      	movs	r3, #128	; 0x80
10005674:	2210      	movs	r2, #16
10005676:	990b      	ldr	r1, [sp, #44]	; 0x2c
10005678:	00db      	lsls	r3, r3, #3
1000567a:	400b      	ands	r3, r1
1000567c:	4391      	bics	r1, r2
1000567e:	910b      	str	r1, [sp, #44]	; 0x2c
10005680:	2b00      	cmp	r3, #0
10005682:	d12b      	bne.n	100056dc <_vsnprintf+0xa78>
10005684:	9a0b      	ldr	r2, [sp, #44]	; 0x2c
10005686:	2361      	movs	r3, #97	; 0x61
10005688:	0692      	lsls	r2, r2, #26
1000568a:	d500      	bpl.n	1000568e <_vsnprintf+0xa2a>
1000568c:	2341      	movs	r3, #65	; 0x41
1000568e:	aa0e      	add	r2, sp, #56	; 0x38
10005690:	271f      	movs	r7, #31
10005692:	4694      	mov	ip, r2
10005694:	b2db      	uxtb	r3, r3
10005696:	3b0a      	subs	r3, #10
10005698:	950d      	str	r5, [sp, #52]	; 0x34
1000569a:	4467      	add	r7, ip
1000569c:	465d      	mov	r5, fp
1000569e:	9309      	str	r3, [sp, #36]	; 0x24
100056a0:	46a3      	mov	fp, r4
100056a2:	4654      	mov	r4, sl
100056a4:	46b2      	mov	sl, r6
100056a6:	9e0c      	ldr	r6, [sp, #48]	; 0x30
100056a8:	e008      	b.n	100056bc <_vsnprintf+0xa58>
100056aa:	3330      	adds	r3, #48	; 0x30
100056ac:	b2db      	uxtb	r3, r3
100056ae:	3501      	adds	r5, #1
100056b0:	557b      	strb	r3, [r7, r5]
100056b2:	42b4      	cmp	r4, r6
100056b4:	d30e      	bcc.n	100056d4 <_vsnprintf+0xa70>
100056b6:	2d20      	cmp	r5, #32
100056b8:	d00c      	beq.n	100056d4 <_vsnprintf+0xa70>
100056ba:	0004      	movs	r4, r0
100056bc:	0031      	movs	r1, r6
100056be:	0020      	movs	r0, r4
100056c0:	f000 f8e6 	bl	10005890 <__wrap___aeabi_uidiv>
100056c4:	b2cb      	uxtb	r3, r1
100056c6:	2909      	cmp	r1, #9
100056c8:	d9ef      	bls.n	100056aa <_vsnprintf+0xa46>
100056ca:	9a09      	ldr	r2, [sp, #36]	; 0x24
100056cc:	4694      	mov	ip, r2
100056ce:	4463      	add	r3, ip
100056d0:	b2db      	uxtb	r3, r3
100056d2:	e7ec      	b.n	100056ae <_vsnprintf+0xa4a>
100056d4:	4656      	mov	r6, sl
100056d6:	465c      	mov	r4, fp
100056d8:	46ab      	mov	fp, r5
100056da:	9d0d      	ldr	r5, [sp, #52]	; 0x34
100056dc:	9b0b      	ldr	r3, [sp, #44]	; 0x2c
100056de:	002a      	movs	r2, r5
100056e0:	9306      	str	r3, [sp, #24]
100056e2:	9b0a      	ldr	r3, [sp, #40]	; 0x28
100056e4:	0021      	movs	r1, r4
100056e6:	9305      	str	r3, [sp, #20]
100056e8:	4643      	mov	r3, r8
100056ea:	9304      	str	r3, [sp, #16]
100056ec:	9b0c      	ldr	r3, [sp, #48]	; 0x30
100056ee:	9808      	ldr	r0, [sp, #32]
100056f0:	9303      	str	r3, [sp, #12]
100056f2:	2300      	movs	r3, #0
100056f4:	9302      	str	r3, [sp, #8]
100056f6:	465b      	mov	r3, fp
100056f8:	9301      	str	r3, [sp, #4]
100056fa:	ab16      	add	r3, sp, #88	; 0x58
100056fc:	9300      	str	r3, [sp, #0]
100056fe:	464b      	mov	r3, r9
10005700:	f7fe fdd0 	bl	100042a4 <_ntoa_format>
10005704:	9b12      	ldr	r3, [sp, #72]	; 0x48
10005706:	0005      	movs	r5, r0
10005708:	9309      	str	r3, [sp, #36]	; 0x24
1000570a:	3601      	adds	r6, #1
1000570c:	f7ff facf 	bl	10004cae <_vsnprintf+0x4a>
10005710:	42b4      	cmp	r4, r6
10005712:	d800      	bhi.n	10005716 <_vsnprintf+0xab2>
10005714:	e671      	b.n	100053fa <_vsnprintf+0x796>
10005716:	9b14      	ldr	r3, [sp, #80]	; 0x50
10005718:	4654      	mov	r4, sl
1000571a:	960e      	str	r6, [sp, #56]	; 0x38
1000571c:	970f      	str	r7, [sp, #60]	; 0x3c
1000571e:	46aa      	mov	sl, r5
10005720:	4698      	mov	r8, r3
10005722:	9e15      	ldr	r6, [sp, #84]	; 0x54
10005724:	9d13      	ldr	r5, [sp, #76]	; 0x4c
10005726:	e68e      	b.n	10005446 <_vsnprintf+0x7e2>
10005728:	42a6      	cmp	r6, r4
1000572a:	d800      	bhi.n	1000572e <_vsnprintf+0xaca>
1000572c:	e6fb      	b.n	10005526 <_vsnprintf+0x8c2>
1000572e:	9b13      	ldr	r3, [sp, #76]	; 0x4c
10005730:	4656      	mov	r6, sl
10005732:	4698      	mov	r8, r3
10005734:	46aa      	mov	sl, r5
10005736:	465c      	mov	r4, fp
10005738:	9d12      	ldr	r5, [sp, #72]	; 0x48
1000573a:	e576      	b.n	1000522a <_vsnprintf+0x5c6>
1000573c:	c908      	ldmia	r1!, {r3}
1000573e:	17d8      	asrs	r0, r3, #31
10005740:	181a      	adds	r2, r3, r0
10005742:	4042      	eors	r2, r0
10005744:	9109      	str	r1, [sp, #36]	; 0x24
10005746:	f7ff fb8a 	bl	10004e5e <_vsnprintf+0x1fa>
1000574a:	2300      	movs	r3, #0
1000574c:	930b      	str	r3, [sp, #44]	; 0x2c
1000574e:	e450      	b.n	10004ff2 <_vsnprintf+0x38e>
10005750:	9b09      	ldr	r3, [sp, #36]	; 0x24
10005752:	cb04      	ldmia	r3!, {r2}
10005754:	4693      	mov	fp, r2
10005756:	9309      	str	r3, [sp, #36]	; 0x24
10005758:	e559      	b.n	1000520e <_vsnprintf+0x5aa>
1000575a:	002f      	movs	r7, r5
1000575c:	e5bb      	b.n	100052d6 <_vsnprintf+0x672>
1000575e:	930b      	str	r3, [sp, #44]	; 0x2c
10005760:	e601      	b.n	10005366 <_vsnprintf+0x702>
10005762:	3b06      	subs	r3, #6
10005764:	930c      	str	r3, [sp, #48]	; 0x30
10005766:	e69a      	b.n	1000549e <_vsnprintf+0x83a>

10005768 <__wrap_sprintf>:
10005768:	b40e      	push	{r1, r2, r3}
1000576a:	2201      	movs	r2, #1
1000576c:	b510      	push	{r4, lr}
1000576e:	b085      	sub	sp, #20
10005770:	ac07      	add	r4, sp, #28
10005772:	cc08      	ldmia	r4!, {r3}
10005774:	0001      	movs	r1, r0
10005776:	9400      	str	r4, [sp, #0]
10005778:	4252      	negs	r2, r2
1000577a:	4804      	ldr	r0, [pc, #16]	; (1000578c <__wrap_sprintf+0x24>)
1000577c:	9403      	str	r4, [sp, #12]
1000577e:	f7ff fa71 	bl	10004c64 <_vsnprintf>
10005782:	b005      	add	sp, #20
10005784:	bc10      	pop	{r4}
10005786:	bc08      	pop	{r3}
10005788:	b003      	add	sp, #12
1000578a:	4718      	bx	r3
1000578c:	100041fd 	.word	0x100041fd

10005790 <weak_raw_vprintf>:
10005790:	b510      	push	{r4, lr}
10005792:	4a09      	ldr	r2, [pc, #36]	; (100057b8 <weak_raw_vprintf+0x28>)
10005794:	0003      	movs	r3, r0
10005796:	6814      	ldr	r4, [r2, #0]
10005798:	b084      	sub	sp, #16
1000579a:	2c00      	cmp	r4, #0
1000579c:	d008      	beq.n	100057b0 <weak_raw_vprintf+0x20>
1000579e:	2201      	movs	r2, #1
100057a0:	9100      	str	r1, [sp, #0]
100057a2:	4806      	ldr	r0, [pc, #24]	; (100057bc <weak_raw_vprintf+0x2c>)
100057a4:	4252      	negs	r2, r2
100057a6:	a903      	add	r1, sp, #12
100057a8:	47a0      	blx	r4
100057aa:	2001      	movs	r0, #1
100057ac:	b004      	add	sp, #16
100057ae:	bd10      	pop	{r4, pc}
100057b0:	f001 f8e0 	bl	10006974 <__wrap_puts>
100057b4:	2000      	movs	r0, #0
100057b6:	e7f9      	b.n	100057ac <weak_raw_vprintf+0x1c>
100057b8:	20000614 	.word	0x20000614
100057bc:	10004471 	.word	0x10004471

100057c0 <__aeabi_bits_init>:
100057c0:	4801      	ldr	r0, [pc, #4]	; (100057c8 <__aeabi_bits_init+0x8>)
100057c2:	2104      	movs	r1, #4
100057c4:	4b01      	ldr	r3, [pc, #4]	; (100057cc <__aeabi_bits_init+0xc>)
100057c6:	4718      	bx	r3
100057c8:	20000220 	.word	0x20000220
100057cc:	100057fd 	.word	0x100057fd

100057d0 <__wrap___ctzsi2>:
100057d0:	4b01      	ldr	r3, [pc, #4]	; (100057d8 <__wrap___ctzsi2+0x8>)
100057d2:	689b      	ldr	r3, [r3, #8]
100057d4:	4718      	bx	r3
100057d6:	0000      	.short	0x0000
100057d8:	20000220 	.word	0x20000220

100057dc <rom_func_lookup>:
100057dc:	2314      	movs	r3, #20
100057de:	b510      	push	{r4, lr}
100057e0:	0001      	movs	r1, r0
100057e2:	8818      	ldrh	r0, [r3, #0]
100057e4:	3304      	adds	r3, #4
100057e6:	881b      	ldrh	r3, [r3, #0]
100057e8:	4798      	blx	r3
100057ea:	bd10      	pop	{r4, pc}

100057ec <rom_data_lookup>:
100057ec:	2316      	movs	r3, #22
100057ee:	b510      	push	{r4, lr}
100057f0:	0001      	movs	r1, r0
100057f2:	8818      	ldrh	r0, [r3, #0]
100057f4:	3302      	adds	r3, #2
100057f6:	881b      	ldrh	r3, [r3, #0]
100057f8:	4798      	blx	r3
100057fa:	bd10      	pop	{r4, pc}

100057fc <rom_funcs_lookup>:
100057fc:	b5f8      	push	{r3, r4, r5, r6, r7, lr}
100057fe:	4647      	mov	r7, r8
10005800:	46ce      	mov	lr, r9
10005802:	b580      	push	{r7, lr}
10005804:	1e0f      	subs	r7, r1, #0
10005806:	d019      	beq.n	1000583c <rom_funcs_lookup+0x40>
10005808:	2314      	movs	r3, #20
1000580a:	4699      	mov	r9, r3
1000580c:	3304      	adds	r3, #4
1000580e:	0004      	movs	r4, r0
10005810:	2500      	movs	r5, #0
10005812:	2601      	movs	r6, #1
10005814:	4698      	mov	r8, r3
10005816:	464b      	mov	r3, r9
10005818:	8818      	ldrh	r0, [r3, #0]
1000581a:	4643      	mov	r3, r8
1000581c:	6821      	ldr	r1, [r4, #0]
1000581e:	881b      	ldrh	r3, [r3, #0]
10005820:	4798      	blx	r3
10005822:	c401      	stmia	r4!, {r0}
10005824:	1e43      	subs	r3, r0, #1
10005826:	4198      	sbcs	r0, r3
10005828:	3501      	adds	r5, #1
1000582a:	4240      	negs	r0, r0
1000582c:	4006      	ands	r6, r0
1000582e:	42af      	cmp	r7, r5
10005830:	d1f1      	bne.n	10005816 <rom_funcs_lookup+0x1a>
10005832:	0030      	movs	r0, r6
10005834:	bcc0      	pop	{r6, r7}
10005836:	46b9      	mov	r9, r7
10005838:	46b0      	mov	r8, r6
1000583a:	bdf8      	pop	{r3, r4, r5, r6, r7, pc}
1000583c:	2601      	movs	r6, #1
1000583e:	e7f8      	b.n	10005832 <rom_funcs_lookup+0x36>

10005840 <__wrap___aeabi_idiv>:
10005840:	4a12      	ldr	r2, [pc, #72]	; (1000588c <divmod_s32s32_savestate+0x18>)
10005842:	6f93      	ldr	r3, [r2, #120]	; 0x78
10005844:	089b      	lsrs	r3, r3, #2
10005846:	d215      	bcs.n	10005874 <divmod_s32s32_savestate>

10005848 <divmod_s32s32_unsafe>:
10005848:	6690      	str	r0, [r2, #104]	; 0x68
1000584a:	66d1      	str	r1, [r2, #108]	; 0x6c
1000584c:	2900      	cmp	r1, #0
1000584e:	d005      	beq.n	1000585c <divmod_s32s32_unsafe+0x14>
10005850:	e7ff      	b.n	10005852 <divmod_s32s32_unsafe+0xa>
10005852:	e7ff      	b.n	10005854 <divmod_s32s32_unsafe+0xc>
10005854:	e7ff      	b.n	10005856 <divmod_s32s32_unsafe+0xe>
10005856:	6f51      	ldr	r1, [r2, #116]	; 0x74
10005858:	6f10      	ldr	r0, [r2, #112]	; 0x70
1000585a:	4770      	bx	lr
1000585c:	b504      	push	{r2, lr}
1000585e:	2180      	movs	r1, #128	; 0x80
10005860:	0609      	lsls	r1, r1, #24
10005862:	17c2      	asrs	r2, r0, #31
10005864:	4051      	eors	r1, r2
10005866:	2800      	cmp	r0, #0
10005868:	d000      	beq.n	1000586c <divmod_s32s32_unsafe+0x24>
1000586a:	43c8      	mvns	r0, r1
1000586c:	f001 fa7c 	bl	10006d68 <____aeabi_idiv0_veneer>
10005870:	2100      	movs	r1, #0
10005872:	bd04      	pop	{r2, pc}

10005874 <divmod_s32s32_savestate>:
10005874:	b5f0      	push	{r4, r5, r6, r7, lr}
10005876:	6e14      	ldr	r4, [r2, #96]	; 0x60
10005878:	6e55      	ldr	r5, [r2, #100]	; 0x64
1000587a:	6f57      	ldr	r7, [r2, #116]	; 0x74
1000587c:	6f16      	ldr	r6, [r2, #112]	; 0x70
1000587e:	f7ff ffe3 	bl	10005848 <divmod_s32s32_unsafe>
10005882:	6614      	str	r4, [r2, #96]	; 0x60
10005884:	6655      	str	r5, [r2, #100]	; 0x64
10005886:	6757      	str	r7, [r2, #116]	; 0x74
10005888:	6716      	str	r6, [r2, #112]	; 0x70
1000588a:	bdf0      	pop	{r4, r5, r6, r7, pc}
1000588c:	d0000000 	.word	0xd0000000

10005890 <__wrap___aeabi_uidiv>:
10005890:	4a11      	ldr	r2, [pc, #68]	; (100058d8 <divmod_u32u32_savestate+0x18>)
10005892:	6f93      	ldr	r3, [r2, #120]	; 0x78
10005894:	089b      	lsrs	r3, r3, #2
10005896:	d213      	bcs.n	100058c0 <divmod_u32u32_savestate>

10005898 <divmod_u32u32_unsafe>:
10005898:	6610      	str	r0, [r2, #96]	; 0x60
1000589a:	6651      	str	r1, [r2, #100]	; 0x64
1000589c:	2900      	cmp	r1, #0
1000589e:	d005      	beq.n	100058ac <divmod_u32u32_unsafe+0x14>
100058a0:	e7ff      	b.n	100058a2 <divmod_u32u32_unsafe+0xa>
100058a2:	e7ff      	b.n	100058a4 <divmod_u32u32_unsafe+0xc>
100058a4:	e7ff      	b.n	100058a6 <divmod_u32u32_unsafe+0xe>
100058a6:	6f51      	ldr	r1, [r2, #116]	; 0x74
100058a8:	6f10      	ldr	r0, [r2, #112]	; 0x70
100058aa:	4770      	bx	lr
100058ac:	b504      	push	{r2, lr}
100058ae:	2800      	cmp	r0, #0
100058b0:	d001      	beq.n	100058b6 <divmod_u32u32_unsafe+0x1e>
100058b2:	2000      	movs	r0, #0
100058b4:	43c0      	mvns	r0, r0
100058b6:	f001 fa57 	bl	10006d68 <____aeabi_idiv0_veneer>
100058ba:	2100      	movs	r1, #0
100058bc:	bd04      	pop	{r2, pc}
100058be:	46c0      	nop			; (mov r8, r8)

100058c0 <divmod_u32u32_savestate>:
100058c0:	b5f0      	push	{r4, r5, r6, r7, lr}
100058c2:	6e14      	ldr	r4, [r2, #96]	; 0x60
100058c4:	6e55      	ldr	r5, [r2, #100]	; 0x64
100058c6:	6f57      	ldr	r7, [r2, #116]	; 0x74
100058c8:	6f16      	ldr	r6, [r2, #112]	; 0x70
100058ca:	f7ff ffe5 	bl	10005898 <divmod_u32u32_unsafe>
100058ce:	6614      	str	r4, [r2, #96]	; 0x60
100058d0:	6655      	str	r5, [r2, #100]	; 0x64
100058d2:	6757      	str	r7, [r2, #116]	; 0x74
100058d4:	6716      	str	r6, [r2, #112]	; 0x70
100058d6:	bdf0      	pop	{r4, r5, r6, r7, pc}
100058d8:	d0000000 	.word	0xd0000000

100058dc <__wrap___aeabi_ldivmod>:
100058dc:	4694      	mov	ip, r2
100058de:	4a4a      	ldr	r2, [pc, #296]	; (10005a08 <udiv0+0x1a>)
100058e0:	6f92      	ldr	r2, [r2, #120]	; 0x78
100058e2:	0892      	lsrs	r2, r2, #2
100058e4:	4662      	mov	r2, ip
100058e6:	d201      	bcs.n	100058ec <divmod_s64s64_savestate>
100058e8:	e028      	b.n	1000593c <divmod_s64s64_unsafe>
100058ea:	46c0      	nop			; (mov r8, r8)

100058ec <divmod_s64s64_savestate>:
100058ec:	b5f0      	push	{r4, r5, r6, r7, lr}
100058ee:	4e46      	ldr	r6, [pc, #280]	; (10005a08 <udiv0+0x1a>)
100058f0:	6e34      	ldr	r4, [r6, #96]	; 0x60
100058f2:	6e75      	ldr	r5, [r6, #100]	; 0x64
100058f4:	6f77      	ldr	r7, [r6, #116]	; 0x74
100058f6:	6f36      	ldr	r6, [r6, #112]	; 0x70
100058f8:	f000 f820 	bl	1000593c <divmod_s64s64_unsafe>
100058fc:	4694      	mov	ip, r2
100058fe:	4a42      	ldr	r2, [pc, #264]	; (10005a08 <udiv0+0x1a>)
10005900:	6614      	str	r4, [r2, #96]	; 0x60
10005902:	6655      	str	r5, [r2, #100]	; 0x64
10005904:	6757      	str	r7, [r2, #116]	; 0x74
10005906:	6716      	str	r6, [r2, #112]	; 0x70
10005908:	4662      	mov	r2, ip
1000590a:	bdf0      	pop	{r4, r5, r6, r7, pc}

1000590c <__wrap___aeabi_uldivmod>:
1000590c:	4694      	mov	ip, r2
1000590e:	4a3e      	ldr	r2, [pc, #248]	; (10005a08 <udiv0+0x1a>)
10005910:	6f92      	ldr	r2, [r2, #120]	; 0x78
10005912:	0892      	lsrs	r2, r2, #2
10005914:	4662      	mov	r2, ip
10005916:	d201      	bcs.n	1000591c <divmod_u64u64_savestate>
10005918:	e054      	b.n	100059c4 <divmod_u64u64_unsafe>
1000591a:	46c0      	nop			; (mov r8, r8)

1000591c <divmod_u64u64_savestate>:
1000591c:	b5f0      	push	{r4, r5, r6, r7, lr}
1000591e:	4e3a      	ldr	r6, [pc, #232]	; (10005a08 <udiv0+0x1a>)
10005920:	6e34      	ldr	r4, [r6, #96]	; 0x60
10005922:	6e75      	ldr	r5, [r6, #100]	; 0x64
10005924:	6f77      	ldr	r7, [r6, #116]	; 0x74
10005926:	6f36      	ldr	r6, [r6, #112]	; 0x70
10005928:	f000 f84c 	bl	100059c4 <divmod_u64u64_unsafe>
1000592c:	4694      	mov	ip, r2
1000592e:	4a36      	ldr	r2, [pc, #216]	; (10005a08 <udiv0+0x1a>)
10005930:	6614      	str	r4, [r2, #96]	; 0x60
10005932:	6655      	str	r5, [r2, #100]	; 0x64
10005934:	6757      	str	r7, [r2, #116]	; 0x74
10005936:	6716      	str	r6, [r2, #112]	; 0x70
10005938:	4662      	mov	r2, ip
1000593a:	bdf0      	pop	{r4, r5, r6, r7, pc}

1000593c <divmod_s64s64_unsafe>:
1000593c:	2b00      	cmp	r3, #0
1000593e:	db24      	blt.n	1000598a <l42_1+0x26>
10005940:	d011      	beq.n	10005966 <l42_1+0x2>
10005942:	2900      	cmp	r1, #0
10005944:	da3e      	bge.n	100059c4 <divmod_u64u64_unsafe>
10005946:	b500      	push	{lr}
10005948:	43c9      	mvns	r1, r1
1000594a:	4240      	negs	r0, r0
1000594c:	d100      	bne.n	10005950 <l40_1>
1000594e:	3101      	adds	r1, #1

10005950 <l40_1>:
10005950:	f000 f838 	bl	100059c4 <divmod_u64u64_unsafe>
10005954:	43c9      	mvns	r1, r1
10005956:	4240      	negs	r0, r0
10005958:	d100      	bne.n	1000595c <l41_1>
1000595a:	3101      	adds	r1, #1

1000595c <l41_1>:
1000595c:	43db      	mvns	r3, r3
1000595e:	4252      	negs	r2, r2
10005960:	d100      	bne.n	10005964 <l42_1>
10005962:	3301      	adds	r3, #1

10005964 <l42_1>:
10005964:	bd00      	pop	{pc}
10005966:	2a00      	cmp	r2, #0
10005968:	d1eb      	bne.n	10005942 <divmod_s64s64_unsafe+0x6>
1000596a:	2800      	cmp	r0, #0
1000596c:	d101      	bne.n	10005972 <l42_1+0xe>
1000596e:	2900      	cmp	r1, #0
10005970:	d005      	beq.n	1000597e <l42_1+0x1a>
10005972:	2000      	movs	r0, #0
10005974:	0fc9      	lsrs	r1, r1, #31
10005976:	07c9      	lsls	r1, r1, #31
10005978:	d101      	bne.n	1000597e <l42_1+0x1a>
1000597a:	43c0      	mvns	r0, r0
1000597c:	0841      	lsrs	r1, r0, #1
1000597e:	b500      	push	{lr}
10005980:	f001 f9ea 	bl	10006d58 <____aeabi_ldiv0_veneer>
10005984:	2200      	movs	r2, #0
10005986:	2300      	movs	r3, #0
10005988:	bd00      	pop	{pc}
1000598a:	b500      	push	{lr}
1000598c:	2900      	cmp	r1, #0
1000598e:	db0a      	blt.n	100059a6 <l44_1+0x2>
10005990:	43db      	mvns	r3, r3
10005992:	4252      	negs	r2, r2
10005994:	d100      	bne.n	10005998 <l43_1>
10005996:	3301      	adds	r3, #1

10005998 <l43_1>:
10005998:	f000 f814 	bl	100059c4 <divmod_u64u64_unsafe>
1000599c:	43c9      	mvns	r1, r1
1000599e:	4240      	negs	r0, r0
100059a0:	d100      	bne.n	100059a4 <l44_1>
100059a2:	3101      	adds	r1, #1

100059a4 <l44_1>:
100059a4:	bd00      	pop	{pc}
100059a6:	43c9      	mvns	r1, r1
100059a8:	4240      	negs	r0, r0
100059aa:	d100      	bne.n	100059ae <l45_1>
100059ac:	3101      	adds	r1, #1

100059ae <l45_1>:
100059ae:	43db      	mvns	r3, r3
100059b0:	4252      	negs	r2, r2
100059b2:	d100      	bne.n	100059b6 <l46_1>
100059b4:	3301      	adds	r3, #1

100059b6 <l46_1>:
100059b6:	f000 f805 	bl	100059c4 <divmod_u64u64_unsafe>
100059ba:	43db      	mvns	r3, r3
100059bc:	4252      	negs	r2, r2
100059be:	d100      	bne.n	100059c2 <l47_1>
100059c0:	3301      	adds	r3, #1

100059c2 <l47_1>:
100059c2:	bd00      	pop	{pc}

100059c4 <divmod_u64u64_unsafe>:
100059c4:	2900      	cmp	r1, #0
100059c6:	d123      	bne.n	10005a10 <y64>
100059c8:	2b00      	cmp	r3, #0
100059ca:	d118      	bne.n	100059fe <udiv0+0x10>
100059cc:	2a00      	cmp	r2, #0
100059ce:	d00c      	beq.n	100059ea <divmod_u64u64_unsafe+0x26>
100059d0:	46bc      	mov	ip, r7
100059d2:	4f0d      	ldr	r7, [pc, #52]	; (10005a08 <udiv0+0x1a>)
100059d4:	6638      	str	r0, [r7, #96]	; 0x60
100059d6:	667a      	str	r2, [r7, #100]	; 0x64
100059d8:	2100      	movs	r1, #0
100059da:	2300      	movs	r3, #0
100059dc:	e7ff      	b.n	100059de <divmod_u64u64_unsafe+0x1a>
100059de:	e7ff      	b.n	100059e0 <divmod_u64u64_unsafe+0x1c>
100059e0:	e7ff      	b.n	100059e2 <divmod_u64u64_unsafe+0x1e>
100059e2:	6f7a      	ldr	r2, [r7, #116]	; 0x74
100059e4:	6f38      	ldr	r0, [r7, #112]	; 0x70
100059e6:	4667      	mov	r7, ip
100059e8:	4770      	bx	lr
100059ea:	2800      	cmp	r0, #0
100059ec:	d001      	beq.n	100059f2 <udiv0+0x4>

100059ee <udiv0>:
100059ee:	4807      	ldr	r0, [pc, #28]	; (10005a0c <udiv0+0x1e>)
100059f0:	0001      	movs	r1, r0
100059f2:	b500      	push	{lr}
100059f4:	f001 f9b0 	bl	10006d58 <____aeabi_ldiv0_veneer>
100059f8:	2200      	movs	r2, #0
100059fa:	2300      	movs	r3, #0
100059fc:	bd00      	pop	{pc}
100059fe:	0002      	movs	r2, r0
10005a00:	000b      	movs	r3, r1
10005a02:	2000      	movs	r0, #0
10005a04:	2100      	movs	r1, #0
10005a06:	4770      	bx	lr
10005a08:	d0000000 	.word	0xd0000000
10005a0c:	ffffffff 	.word	0xffffffff

10005a10 <y64>:
10005a10:	2b00      	cmp	r3, #0
10005a12:	d000      	beq.n	10005a16 <y64+0x6>
10005a14:	e0bf      	b.n	10005b96 <y64_x48>
10005a16:	0c13      	lsrs	r3, r2, #16
10005a18:	d128      	bne.n	10005a6c <y64_x32>
10005a1a:	2a00      	cmp	r2, #0
10005a1c:	d0e7      	beq.n	100059ee <udiv0>
10005a1e:	b480      	push	{r7}
10005a20:	4f11      	ldr	r7, [pc, #68]	; (10005a68 <y64+0x58>)
10005a22:	6639      	str	r1, [r7, #96]	; 0x60
10005a24:	667a      	str	r2, [r7, #100]	; 0x64
10005a26:	e7ff      	b.n	10005a28 <y64+0x18>
10005a28:	e7ff      	b.n	10005a2a <y64+0x1a>
10005a2a:	b430      	push	{r4, r5}
10005a2c:	0c04      	lsrs	r4, r0, #16
10005a2e:	6f7b      	ldr	r3, [r7, #116]	; 0x74
10005a30:	6f39      	ldr	r1, [r7, #112]	; 0x70
10005a32:	041b      	lsls	r3, r3, #16
10005a34:	4323      	orrs	r3, r4
10005a36:	663b      	str	r3, [r7, #96]	; 0x60
10005a38:	667a      	str	r2, [r7, #100]	; 0x64
10005a3a:	e7ff      	b.n	10005a3c <y64+0x2c>
10005a3c:	e7ff      	b.n	10005a3e <y64+0x2e>
10005a3e:	e7ff      	b.n	10005a40 <y64+0x30>
10005a40:	46c0      	nop			; (mov r8, r8)
10005a42:	b284      	uxth	r4, r0
10005a44:	6f7b      	ldr	r3, [r7, #116]	; 0x74
10005a46:	6f3d      	ldr	r5, [r7, #112]	; 0x70
10005a48:	041b      	lsls	r3, r3, #16
10005a4a:	4323      	orrs	r3, r4
10005a4c:	663b      	str	r3, [r7, #96]	; 0x60
10005a4e:	667a      	str	r2, [r7, #100]	; 0x64
10005a50:	e7ff      	b.n	10005a52 <y64+0x42>
10005a52:	e7ff      	b.n	10005a54 <y64+0x44>
10005a54:	46c0      	nop			; (mov r8, r8)
10005a56:	2300      	movs	r3, #0
10005a58:	042c      	lsls	r4, r5, #16
10005a5a:	0c2d      	lsrs	r5, r5, #16
10005a5c:	6f7a      	ldr	r2, [r7, #116]	; 0x74
10005a5e:	6f38      	ldr	r0, [r7, #112]	; 0x70
10005a60:	1900      	adds	r0, r0, r4
10005a62:	4169      	adcs	r1, r5
10005a64:	bcb0      	pop	{r4, r5, r7}
10005a66:	4770      	bx	lr
10005a68:	d0000000 	.word	0xd0000000

10005a6c <y64_x32>:
10005a6c:	b5f0      	push	{r4, r5, r6, r7, lr}
10005a6e:	4694      	mov	ip, r2
10005a70:	2500      	movs	r5, #0
10005a72:	0e14      	lsrs	r4, r2, #24
10005a74:	d101      	bne.n	10005a7a <y64_x32+0xe>
10005a76:	0212      	lsls	r2, r2, #8
10005a78:	3508      	adds	r5, #8
10005a7a:	0f14      	lsrs	r4, r2, #28
10005a7c:	d101      	bne.n	10005a82 <y64_x32+0x16>
10005a7e:	0112      	lsls	r2, r2, #4
10005a80:	3504      	adds	r5, #4
10005a82:	0f94      	lsrs	r4, r2, #30
10005a84:	d101      	bne.n	10005a8a <y64_x32+0x1e>
10005a86:	0092      	lsls	r2, r2, #2
10005a88:	3502      	adds	r5, #2
10005a8a:	0fd4      	lsrs	r4, r2, #31
10005a8c:	d101      	bne.n	10005a92 <y64_x32+0x26>
10005a8e:	0052      	lsls	r2, r2, #1
10005a90:	3501      	adds	r5, #1
10005a92:	0bd4      	lsrs	r4, r2, #15
10005a94:	3401      	adds	r4, #1
10005a96:	4f25      	ldr	r7, [pc, #148]	; (10005b2c <y64_x32+0xc0>)
10005a98:	667c      	str	r4, [r7, #100]	; 0x64
10005a9a:	4c25      	ldr	r4, [pc, #148]	; (10005b30 <y64_x32+0xc4>)
10005a9c:	663c      	str	r4, [r7, #96]	; 0x60
10005a9e:	0c0e      	lsrs	r6, r1, #16
10005aa0:	b293      	uxth	r3, r2
10005aa2:	e7ff      	b.n	10005aa4 <y64_x32+0x38>
10005aa4:	e7ff      	b.n	10005aa6 <y64_x32+0x3a>
10005aa6:	e7ff      	b.n	10005aa8 <y64_x32+0x3c>
10005aa8:	6f3c      	ldr	r4, [r7, #112]	; 0x70
10005aaa:	4366      	muls	r6, r4
10005aac:	0c36      	lsrs	r6, r6, #16
10005aae:	0377      	lsls	r7, r6, #13
10005ab0:	46be      	mov	lr, r7
10005ab2:	4373      	muls	r3, r6
10005ab4:	0bdf      	lsrs	r7, r3, #15
10005ab6:	045b      	lsls	r3, r3, #17
10005ab8:	1ac0      	subs	r0, r0, r3
10005aba:	41b9      	sbcs	r1, r7
10005abc:	0c13      	lsrs	r3, r2, #16
10005abe:	4373      	muls	r3, r6
10005ac0:	18db      	adds	r3, r3, r3
10005ac2:	1ac9      	subs	r1, r1, r3
10005ac4:	08ce      	lsrs	r6, r1, #3
10005ac6:	4366      	muls	r6, r4
10005ac8:	0c36      	lsrs	r6, r6, #16
10005aca:	44b6      	add	lr, r6
10005acc:	b293      	uxth	r3, r2
10005ace:	4373      	muls	r3, r6
10005ad0:	0f1f      	lsrs	r7, r3, #28
10005ad2:	011b      	lsls	r3, r3, #4
10005ad4:	1ac0      	subs	r0, r0, r3
10005ad6:	41b9      	sbcs	r1, r7
10005ad8:	0c13      	lsrs	r3, r2, #16
10005ada:	4373      	muls	r3, r6
10005adc:	0b1f      	lsrs	r7, r3, #12
10005ade:	051b      	lsls	r3, r3, #20
10005ae0:	1ac0      	subs	r0, r0, r3
10005ae2:	41b9      	sbcs	r1, r7
10005ae4:	0d86      	lsrs	r6, r0, #22
10005ae6:	028f      	lsls	r7, r1, #10
10005ae8:	433e      	orrs	r6, r7
10005aea:	4366      	muls	r6, r4
10005aec:	0c36      	lsrs	r6, r6, #16
10005aee:	2d09      	cmp	r5, #9
10005af0:	db24      	blt.n	10005b3c <last0>
10005af2:	0a52      	lsrs	r2, r2, #9
10005af4:	4372      	muls	r2, r6
10005af6:	1a80      	subs	r0, r0, r2
10005af8:	0377      	lsls	r7, r6, #13
10005afa:	0a46      	lsrs	r6, r0, #9
10005afc:	4366      	muls	r6, r4
10005afe:	0c36      	lsrs	r6, r6, #16
10005b00:	2316      	movs	r3, #22
10005b02:	1b5b      	subs	r3, r3, r5
10005b04:	40de      	lsrs	r6, r3
10005b06:	40df      	lsrs	r7, r3
10005b08:	19bf      	adds	r7, r7, r6
10005b0a:	4664      	mov	r4, ip
10005b0c:	4366      	muls	r6, r4
10005b0e:	1b82      	subs	r2, r0, r6
10005b10:	4670      	mov	r0, lr
10005b12:	3504      	adds	r5, #4
10005b14:	3306      	adds	r3, #6
10005b16:	0001      	movs	r1, r0
10005b18:	40d9      	lsrs	r1, r3
10005b1a:	40a8      	lsls	r0, r5
10005b1c:	19c0      	adds	r0, r0, r7
10005b1e:	d300      	bcc.n	10005b22 <y64_x32+0xb6>
10005b20:	3101      	adds	r1, #1
10005b22:	42a2      	cmp	r2, r4
10005b24:	d206      	bcs.n	10005b34 <y64_x32+0xc8>
10005b26:	2300      	movs	r3, #0
10005b28:	bdf0      	pop	{r4, r5, r6, r7, pc}
10005b2a:	0000      	.short	0x0000
10005b2c:	d0000000 	.word	0xd0000000
10005b30:	ffffffff 	.word	0xffffffff
10005b34:	1b12      	subs	r2, r2, r4
10005b36:	3001      	adds	r0, #1
10005b38:	d3f3      	bcc.n	10005b22 <y64_x32+0xb6>
10005b3a:	e7f1      	b.n	10005b20 <y64_x32+0xb4>

10005b3c <last0>:
10005b3c:	2709      	movs	r7, #9
10005b3e:	1b7f      	subs	r7, r7, r5
10005b40:	40fe      	lsrs	r6, r7
10005b42:	4664      	mov	r4, ip
10005b44:	b2a2      	uxth	r2, r4
10005b46:	4372      	muls	r2, r6
10005b48:	1a80      	subs	r0, r0, r2
10005b4a:	d200      	bcs.n	10005b4e <last0+0x12>
10005b4c:	3901      	subs	r1, #1
10005b4e:	0c22      	lsrs	r2, r4, #16
10005b50:	4372      	muls	r2, r6
10005b52:	0c13      	lsrs	r3, r2, #16
10005b54:	0412      	lsls	r2, r2, #16
10005b56:	1a82      	subs	r2, r0, r2
10005b58:	4199      	sbcs	r1, r3
10005b5a:	000b      	movs	r3, r1
10005b5c:	4670      	mov	r0, lr
10005b5e:	3504      	adds	r5, #4
10005b60:	3713      	adds	r7, #19
10005b62:	0001      	movs	r1, r0
10005b64:	40f9      	lsrs	r1, r7
10005b66:	40a8      	lsls	r0, r5
10005b68:	1980      	adds	r0, r0, r6
10005b6a:	d300      	bcc.n	10005b6e <last0+0x32>
10005b6c:	3101      	adds	r1, #1
10005b6e:	2b00      	cmp	r3, #0
10005b70:	d102      	bne.n	10005b78 <last0+0x3c>
10005b72:	42a2      	cmp	r2, r4
10005b74:	d20a      	bcs.n	10005b8c <last0+0x50>
10005b76:	bdf0      	pop	{r4, r5, r6, r7, pc}
10005b78:	3001      	adds	r0, #1
10005b7a:	d300      	bcc.n	10005b7e <last0+0x42>
10005b7c:	3101      	adds	r1, #1
10005b7e:	1b12      	subs	r2, r2, r4
10005b80:	d2fa      	bcs.n	10005b78 <last0+0x3c>
10005b82:	3b01      	subs	r3, #1
10005b84:	d1f8      	bne.n	10005b78 <last0+0x3c>
10005b86:	42a2      	cmp	r2, r4
10005b88:	d200      	bcs.n	10005b8c <last0+0x50>
10005b8a:	bdf0      	pop	{r4, r5, r6, r7, pc}
10005b8c:	3001      	adds	r0, #1
10005b8e:	d300      	bcc.n	10005b92 <last0+0x56>
10005b90:	3101      	adds	r1, #1
10005b92:	1b12      	subs	r2, r2, r4
10005b94:	e7f7      	b.n	10005b86 <last0+0x4a>

10005b96 <y64_x48>:
10005b96:	b5f0      	push	{r4, r5, r6, r7, lr}
10005b98:	0c1c      	lsrs	r4, r3, #16
10005b9a:	d000      	beq.n	10005b9e <y64_x48+0x8>
10005b9c:	e080      	b.n	10005ca0 <y64_x64>
10005b9e:	b40c      	push	{r2, r3}
10005ba0:	2500      	movs	r5, #0
10005ba2:	0a1c      	lsrs	r4, r3, #8
10005ba4:	d104      	bne.n	10005bb0 <y64_x48+0x1a>
10005ba6:	021b      	lsls	r3, r3, #8
10005ba8:	0e16      	lsrs	r6, r2, #24
10005baa:	4333      	orrs	r3, r6
10005bac:	0212      	lsls	r2, r2, #8
10005bae:	3508      	adds	r5, #8
10005bb0:	0b1c      	lsrs	r4, r3, #12
10005bb2:	d104      	bne.n	10005bbe <y64_x48+0x28>
10005bb4:	011b      	lsls	r3, r3, #4
10005bb6:	0f16      	lsrs	r6, r2, #28
10005bb8:	4333      	orrs	r3, r6
10005bba:	0112      	lsls	r2, r2, #4
10005bbc:	3504      	adds	r5, #4
10005bbe:	0b9c      	lsrs	r4, r3, #14
10005bc0:	d104      	bne.n	10005bcc <y64_x48+0x36>
10005bc2:	009b      	lsls	r3, r3, #2
10005bc4:	0f96      	lsrs	r6, r2, #30
10005bc6:	4333      	orrs	r3, r6
10005bc8:	0092      	lsls	r2, r2, #2
10005bca:	3502      	adds	r5, #2
10005bcc:	0bdc      	lsrs	r4, r3, #15
10005bce:	d102      	bne.n	10005bd6 <y64_x48+0x40>
10005bd0:	1892      	adds	r2, r2, r2
10005bd2:	415b      	adcs	r3, r3
10005bd4:	3501      	adds	r5, #1
10005bd6:	001c      	movs	r4, r3
10005bd8:	1897      	adds	r7, r2, r2
10005bda:	4164      	adcs	r4, r4
10005bdc:	3401      	adds	r4, #1
10005bde:	4f46      	ldr	r7, [pc, #280]	; (10005cf8 <y64_x64+0x58>)
10005be0:	667c      	str	r4, [r7, #100]	; 0x64
10005be2:	4c46      	ldr	r4, [pc, #280]	; (10005cfc <y64_x64+0x5c>)
10005be4:	663c      	str	r4, [r7, #96]	; 0x60
10005be6:	0c0e      	lsrs	r6, r1, #16
10005be8:	e7ff      	b.n	10005bea <y64_x48+0x54>
10005bea:	e7ff      	b.n	10005bec <y64_x48+0x56>
10005bec:	e7ff      	b.n	10005bee <y64_x48+0x58>
10005bee:	46c0      	nop			; (mov r8, r8)
10005bf0:	6f3c      	ldr	r4, [r7, #112]	; 0x70
10005bf2:	4366      	muls	r6, r4
10005bf4:	0c36      	lsrs	r6, r6, #16
10005bf6:	0377      	lsls	r7, r6, #13
10005bf8:	46be      	mov	lr, r7
10005bfa:	b297      	uxth	r7, r2
10005bfc:	4377      	muls	r7, r6
10005bfe:	1bc0      	subs	r0, r0, r7
10005c00:	d200      	bcs.n	10005c04 <y64_x48+0x6e>
10005c02:	3901      	subs	r1, #1
10005c04:	1bc0      	subs	r0, r0, r7
10005c06:	d200      	bcs.n	10005c0a <y64_x48+0x74>
10005c08:	3901      	subs	r1, #1
10005c0a:	b29f      	uxth	r7, r3
10005c0c:	4377      	muls	r7, r6
10005c0e:	1bc9      	subs	r1, r1, r7
10005c10:	1bc9      	subs	r1, r1, r7
10005c12:	0c17      	lsrs	r7, r2, #16
10005c14:	4377      	muls	r7, r6
10005c16:	047e      	lsls	r6, r7, #17
10005c18:	0bff      	lsrs	r7, r7, #15
10005c1a:	1b80      	subs	r0, r0, r6
10005c1c:	41b9      	sbcs	r1, r7
10005c1e:	08ce      	lsrs	r6, r1, #3
10005c20:	4366      	muls	r6, r4
10005c22:	0c36      	lsrs	r6, r6, #16
10005c24:	2d0c      	cmp	r5, #12
10005c26:	db33      	blt.n	10005c90 <last1>
10005c28:	44b6      	add	lr, r6
10005c2a:	0b12      	lsrs	r2, r2, #12
10005c2c:	051f      	lsls	r7, r3, #20
10005c2e:	433a      	orrs	r2, r7
10005c30:	0b1b      	lsrs	r3, r3, #12
10005c32:	b297      	uxth	r7, r2
10005c34:	4377      	muls	r7, r6
10005c36:	1bc0      	subs	r0, r0, r7
10005c38:	d200      	bcs.n	10005c3c <y64_x48+0xa6>
10005c3a:	3901      	subs	r1, #1
10005c3c:	b29f      	uxth	r7, r3
10005c3e:	4377      	muls	r7, r6
10005c40:	1bc9      	subs	r1, r1, r7
10005c42:	0c17      	lsrs	r7, r2, #16
10005c44:	4377      	muls	r7, r6
10005c46:	043e      	lsls	r6, r7, #16
10005c48:	0c3f      	lsrs	r7, r7, #16
10005c4a:	1b80      	subs	r0, r0, r6
10005c4c:	41b9      	sbcs	r1, r7
10005c4e:	0d86      	lsrs	r6, r0, #22
10005c50:	028f      	lsls	r7, r1, #10
10005c52:	433e      	orrs	r6, r7
10005c54:	4366      	muls	r6, r4
10005c56:	2729      	movs	r7, #41	; 0x29
10005c58:	1b7f      	subs	r7, r7, r5
10005c5a:	40fe      	lsrs	r6, r7
10005c5c:	3d0c      	subs	r5, #12
10005c5e:	4677      	mov	r7, lr
10005c60:	40af      	lsls	r7, r5
10005c62:	19bf      	adds	r7, r7, r6
10005c64:	bc30      	pop	{r4, r5}
10005c66:	b2a2      	uxth	r2, r4
10005c68:	b2ab      	uxth	r3, r5
10005c6a:	4372      	muls	r2, r6
10005c6c:	4373      	muls	r3, r6
10005c6e:	1a80      	subs	r0, r0, r2
10005c70:	4199      	sbcs	r1, r3
10005c72:	0c22      	lsrs	r2, r4, #16
10005c74:	4372      	muls	r2, r6
10005c76:	0c13      	lsrs	r3, r2, #16
10005c78:	0412      	lsls	r2, r2, #16
10005c7a:	1a80      	subs	r0, r0, r2
10005c7c:	4199      	sbcs	r1, r3
10005c7e:	0002      	movs	r2, r0
10005c80:	000b      	movs	r3, r1
10005c82:	3701      	adds	r7, #1
10005c84:	1b00      	subs	r0, r0, r4
10005c86:	41a9      	sbcs	r1, r5
10005c88:	d2f9      	bcs.n	10005c7e <y64_x48+0xe8>
10005c8a:	1e78      	subs	r0, r7, #1
10005c8c:	2100      	movs	r1, #0
10005c8e:	bdf0      	pop	{r4, r5, r6, r7, pc}

10005c90 <last1>:
10005c90:	270c      	movs	r7, #12
10005c92:	1b7f      	subs	r7, r7, r5
10005c94:	40fe      	lsrs	r6, r7
10005c96:	4677      	mov	r7, lr
10005c98:	0b7f      	lsrs	r7, r7, #13
10005c9a:	40af      	lsls	r7, r5
10005c9c:	19ff      	adds	r7, r7, r7
10005c9e:	e7e0      	b.n	10005c62 <y64_x48+0xcc>

10005ca0 <y64_x64>:
10005ca0:	2400      	movs	r4, #0
10005ca2:	1c5d      	adds	r5, r3, #1
10005ca4:	d007      	beq.n	10005cb6 <y64_x64+0x16>
10005ca6:	4f14      	ldr	r7, [pc, #80]	; (10005cf8 <y64_x64+0x58>)
10005ca8:	667d      	str	r5, [r7, #100]	; 0x64
10005caa:	6639      	str	r1, [r7, #96]	; 0x60
10005cac:	e7ff      	b.n	10005cae <y64_x64+0xe>
10005cae:	e7ff      	b.n	10005cb0 <y64_x64+0x10>
10005cb0:	e7ff      	b.n	10005cb2 <y64_x64+0x12>
10005cb2:	e7ff      	b.n	10005cb4 <y64_x64+0x14>
10005cb4:	6f3c      	ldr	r4, [r7, #112]	; 0x70
10005cb6:	b295      	uxth	r5, r2
10005cb8:	b29e      	uxth	r6, r3
10005cba:	4365      	muls	r5, r4
10005cbc:	4366      	muls	r6, r4
10005cbe:	1b40      	subs	r0, r0, r5
10005cc0:	41b1      	sbcs	r1, r6
10005cc2:	0c15      	lsrs	r5, r2, #16
10005cc4:	0c1e      	lsrs	r6, r3, #16
10005cc6:	4365      	muls	r5, r4
10005cc8:	4366      	muls	r6, r4
10005cca:	0436      	lsls	r6, r6, #16
10005ccc:	0c2f      	lsrs	r7, r5, #16
10005cce:	433e      	orrs	r6, r7
10005cd0:	042d      	lsls	r5, r5, #16
10005cd2:	1b40      	subs	r0, r0, r5
10005cd4:	41b1      	sbcs	r1, r6
10005cd6:	4299      	cmp	r1, r3
10005cd8:	d204      	bcs.n	10005ce4 <y64_x64+0x44>
10005cda:	0002      	movs	r2, r0
10005cdc:	000b      	movs	r3, r1
10005cde:	0020      	movs	r0, r4
10005ce0:	2100      	movs	r1, #0
10005ce2:	bdf0      	pop	{r4, r5, r6, r7, pc}
10005ce4:	d101      	bne.n	10005cea <y64_x64+0x4a>
10005ce6:	4290      	cmp	r0, r2
10005ce8:	d3f7      	bcc.n	10005cda <y64_x64+0x3a>
10005cea:	1a80      	subs	r0, r0, r2
10005cec:	4199      	sbcs	r1, r3
10005cee:	3401      	adds	r4, #1
10005cf0:	4299      	cmp	r1, r3
10005cf2:	d3f2      	bcc.n	10005cda <y64_x64+0x3a>
10005cf4:	e7f6      	b.n	10005ce4 <y64_x64+0x44>
10005cf6:	0000      	.short	0x0000
10005cf8:	d0000000 	.word	0xd0000000
10005cfc:	ffffffff 	.word	0xffffffff

10005d00 <__wrap___aeabi_drsub>:
10005d00:	4048      	eors	r0, r1
10005d02:	4041      	eors	r1, r0
10005d04:	4048      	eors	r0, r1

10005d06 <__wrap___aeabi_dsub>:
10005d06:	b418      	push	{r3, r4}
10005d08:	4b1b      	ldr	r3, [pc, #108]	; (10005d78 <__wrap___aeabi_dmul+0x12>)
10005d0a:	685b      	ldr	r3, [r3, #4]
10005d0c:	46fc      	mov	ip, pc
10005d0e:	9301      	str	r3, [sp, #4]
10005d10:	bd08      	pop	{r3, pc}
10005d12:	df04      	.short	0xdf04
10005d14:	10005f9f 	.word	0x10005f9f

10005d18 <__wrap___aeabi_dadd>:
10005d18:	b418      	push	{r3, r4}
10005d1a:	4b17      	ldr	r3, [pc, #92]	; (10005d78 <__wrap___aeabi_dmul+0x12>)
10005d1c:	681b      	ldr	r3, [r3, #0]
10005d1e:	46fc      	mov	ip, pc
10005d20:	9301      	str	r3, [sp, #4]
10005d22:	bd08      	pop	{r3, pc}
10005d24:	5fa9df00 	.word	0x5fa9df00
10005d28:	1000      	.short	0x1000

10005d2a <__wrap___aeabi_ddiv>:
10005d2a:	4694      	mov	ip, r2
10005d2c:	4a13      	ldr	r2, [pc, #76]	; (10005d7c <__wrap___aeabi_dmul+0x16>)
10005d2e:	6f92      	ldr	r2, [r2, #120]	; 0x78
10005d30:	0892      	lsrs	r2, r2, #2
10005d32:	d209      	bcs.n	10005d48 <ddiv_save_state>
10005d34:	4662      	mov	r2, ip

10005d36 <ddiv_shim_call>:
10005d36:	b418      	push	{r3, r4}
10005d38:	4b0f      	ldr	r3, [pc, #60]	; (10005d78 <__wrap___aeabi_dmul+0x12>)
10005d3a:	68db      	ldr	r3, [r3, #12]
10005d3c:	46fc      	mov	ip, pc
10005d3e:	9301      	str	r3, [sp, #4]
10005d40:	bd08      	pop	{r3, pc}
10005d42:	df0c      	.short	0xdf0c
10005d44:	10006261 	.word	0x10006261

10005d48 <ddiv_save_state>:
10005d48:	4a0c      	ldr	r2, [pc, #48]	; (10005d7c <__wrap___aeabi_dmul+0x16>)
10005d4a:	b5f0      	push	{r4, r5, r6, r7, lr}
10005d4c:	6e14      	ldr	r4, [r2, #96]	; 0x60
10005d4e:	6e55      	ldr	r5, [r2, #100]	; 0x64
10005d50:	6f57      	ldr	r7, [r2, #116]	; 0x74
10005d52:	6f16      	ldr	r6, [r2, #112]	; 0x70
10005d54:	4662      	mov	r2, ip
10005d56:	f7ff ffee 	bl	10005d36 <ddiv_shim_call>
10005d5a:	4a08      	ldr	r2, [pc, #32]	; (10005d7c <__wrap___aeabi_dmul+0x16>)
10005d5c:	6614      	str	r4, [r2, #96]	; 0x60
10005d5e:	6655      	str	r5, [r2, #100]	; 0x64
10005d60:	6757      	str	r7, [r2, #116]	; 0x74
10005d62:	6716      	str	r6, [r2, #112]	; 0x70
10005d64:	bdf0      	pop	{r4, r5, r6, r7, pc}

10005d66 <__wrap___aeabi_dmul>:
10005d66:	b418      	push	{r3, r4}
10005d68:	4b03      	ldr	r3, [pc, #12]	; (10005d78 <__wrap___aeabi_dmul+0x12>)
10005d6a:	689b      	ldr	r3, [r3, #8]
10005d6c:	46fc      	mov	ip, pc
10005d6e:	9301      	str	r3, [sp, #4]
10005d70:	bd08      	pop	{r3, pc}
10005d72:	df08      	.short	0xdf08
10005d74:	10006105 	.word	0x10006105
10005d78:	20000370 	.word	0x20000370
10005d7c:	d0000000 	.word	0xd0000000

10005d80 <__wrap___aeabi_cdrcmple>:
10005d80:	b5ff      	push	{r0, r1, r2, r3, r4, r5, r6, r7, lr}
10005d82:	4050      	eors	r0, r2
10005d84:	4042      	eors	r2, r0
10005d86:	4050      	eors	r0, r2
10005d88:	4059      	eors	r1, r3
10005d8a:	404b      	eors	r3, r1
10005d8c:	4059      	eors	r1, r3
10005d8e:	e000      	b.n	10005d92 <__aeabi_dfcmple_guts>

10005d90 <__wrap___aeabi_cdcmpeq>:
10005d90:	b5ff      	push	{r0, r1, r2, r3, r4, r5, r6, r7, lr}

10005d92 <__aeabi_dfcmple_guts>:
10005d92:	4f15      	ldr	r7, [pc, #84]	; (10005de8 <__aeabi_dfcmple_guts+0x56>)
10005d94:	004c      	lsls	r4, r1, #1
10005d96:	0d64      	lsrs	r4, r4, #21
10005d98:	d003      	beq.n	10005da2 <__aeabi_dfcmple_guts+0x10>
10005d9a:	42bc      	cmp	r4, r7
10005d9c:	d104      	bne.n	10005da8 <__aeabi_dfcmple_guts+0x16>
10005d9e:	030c      	lsls	r4, r1, #12
10005da0:	d814      	bhi.n	10005dcc <__aeabi_dfcmple_guts+0x3a>
10005da2:	2000      	movs	r0, #0
10005da4:	0d09      	lsrs	r1, r1, #20
10005da6:	0509      	lsls	r1, r1, #20
10005da8:	005c      	lsls	r4, r3, #1
10005daa:	0d64      	lsrs	r4, r4, #21
10005dac:	d003      	beq.n	10005db6 <__aeabi_dfcmple_guts+0x24>
10005dae:	42bc      	cmp	r4, r7
10005db0:	d104      	bne.n	10005dbc <__aeabi_dfcmple_guts+0x2a>
10005db2:	031c      	lsls	r4, r3, #12
10005db4:	d80a      	bhi.n	10005dcc <__aeabi_dfcmple_guts+0x3a>
10005db6:	2200      	movs	r2, #0
10005db8:	0d1b      	lsrs	r3, r3, #20
10005dba:	051b      	lsls	r3, r3, #20
10005dbc:	2601      	movs	r6, #1
10005dbe:	404b      	eors	r3, r1
10005dc0:	d409      	bmi.n	10005dd6 <__aeabi_dfcmple_guts+0x44>
10005dc2:	404b      	eors	r3, r1
10005dc4:	d503      	bpl.n	10005dce <__aeabi_dfcmple_guts+0x3c>
10005dc6:	428b      	cmp	r3, r1
10005dc8:	d100      	bne.n	10005dcc <__aeabi_dfcmple_guts+0x3a>
10005dca:	4282      	cmp	r2, r0
10005dcc:	bdff      	pop	{r0, r1, r2, r3, r4, r5, r6, r7, pc}
10005dce:	4299      	cmp	r1, r3
10005dd0:	d1fc      	bne.n	10005dcc <__aeabi_dfcmple_guts+0x3a>
10005dd2:	4290      	cmp	r0, r2
10005dd4:	bdff      	pop	{r0, r1, r2, r3, r4, r5, r6, r7, pc}
10005dd6:	430b      	orrs	r3, r1
10005dd8:	18db      	adds	r3, r3, r3
10005dda:	4303      	orrs	r3, r0
10005ddc:	4313      	orrs	r3, r2
10005dde:	d0f5      	beq.n	10005dcc <__aeabi_dfcmple_guts+0x3a>
10005de0:	43c9      	mvns	r1, r1
10005de2:	1849      	adds	r1, r1, r1
10005de4:	bdff      	pop	{r0, r1, r2, r3, r4, r5, r6, r7, pc}
10005de6:	0000      	.short	0x0000
10005de8:	000007ff 	.word	0x000007ff

10005dec <__wrap___aeabi_dcmplt>:
10005dec:	b500      	push	{lr}
10005dee:	f7ff ffcf 	bl	10005d90 <__wrap___aeabi_cdcmpeq>
10005df2:	4180      	sbcs	r0, r0
10005df4:	bd00      	pop	{pc}
10005df6:	46c0      	nop			; (mov r8, r8)

10005df8 <__wrap___aeabi_dcmple>:
10005df8:	b500      	push	{lr}
10005dfa:	f7ff ffc9 	bl	10005d90 <__wrap___aeabi_cdcmpeq>
10005dfe:	d901      	bls.n	10005e04 <__wrap___aeabi_dcmple+0xc>
10005e00:	2000      	movs	r0, #0
10005e02:	bd00      	pop	{pc}
10005e04:	2001      	movs	r0, #1
10005e06:	bd00      	pop	{pc}

10005e08 <__wrap___aeabi_dcmpge>:
10005e08:	b500      	push	{lr}
10005e0a:	f7ff ffb9 	bl	10005d80 <__wrap___aeabi_cdrcmple>
10005e0e:	d901      	bls.n	10005e14 <__wrap___aeabi_dcmpge+0xc>
10005e10:	2000      	movs	r0, #0
10005e12:	bd00      	pop	{pc}
10005e14:	2001      	movs	r0, #1
10005e16:	bd00      	pop	{pc}

10005e18 <__wrap___aeabi_dcmpgt>:
10005e18:	b500      	push	{lr}
10005e1a:	f7ff ffb1 	bl	10005d80 <__wrap___aeabi_cdrcmple>
10005e1e:	4180      	sbcs	r0, r0
10005e20:	bd00      	pop	{pc}

10005e22 <__wrap___aeabi_dcmpun>:
10005e22:	2001      	movs	r0, #1
10005e24:	0540      	lsls	r0, r0, #21
10005e26:	004a      	lsls	r2, r1, #1
10005e28:	1812      	adds	r2, r2, r0
10005e2a:	d804      	bhi.n	10005e36 <__wrap___aeabi_dcmpun+0x14>
10005e2c:	005a      	lsls	r2, r3, #1
10005e2e:	1812      	adds	r2, r2, r0
10005e30:	d801      	bhi.n	10005e36 <__wrap___aeabi_dcmpun+0x14>
10005e32:	2000      	movs	r0, #0
10005e34:	4770      	bx	lr
10005e36:	2001      	movs	r0, #1
10005e38:	4770      	bx	lr
10005e3a:	2000      	movs	r0, #0
10005e3c:	4770      	bx	lr
	...

10005e40 <__wrap___aeabi_ui2d>:
10005e40:	2100      	movs	r1, #0
10005e42:	2800      	cmp	r0, #0
10005e44:	d105      	bne.n	10005e52 <__wrap___aeabi_i2d+0xa>
10005e46:	4770      	bx	lr

10005e48 <__wrap___aeabi_i2d>:
10005e48:	17c1      	asrs	r1, r0, #31
10005e4a:	4048      	eors	r0, r1
10005e4c:	1a40      	subs	r0, r0, r1
10005e4e:	d0fa      	beq.n	10005e46 <__wrap___aeabi_ui2d+0x6>
10005e50:	07c9      	lsls	r1, r1, #31
10005e52:	b513      	push	{r0, r1, r4, lr}
10005e54:	4b06      	ldr	r3, [pc, #24]	; (10005e70 <__wrap___aeabi_i2d+0x28>)
10005e56:	681b      	ldr	r3, [r3, #0]
10005e58:	4798      	blx	r3
10005e5a:	bc0c      	pop	{r2, r3}
10005e5c:	1c44      	adds	r4, r0, #1
10005e5e:	40a2      	lsls	r2, r4
10005e60:	0510      	lsls	r0, r2, #20
10005e62:	0b12      	lsrs	r2, r2, #12
10005e64:	4903      	ldr	r1, [pc, #12]	; (10005e74 <__wrap___aeabi_i2d+0x2c>)
10005e66:	1b09      	subs	r1, r1, r4
10005e68:	0509      	lsls	r1, r1, #20
10005e6a:	4319      	orrs	r1, r3
10005e6c:	4311      	orrs	r1, r2
10005e6e:	bd10      	pop	{r4, pc}
10005e70:	2000062c 	.word	0x2000062c
10005e74:	0000041f 	.word	0x0000041f

10005e78 <__wrap___aeabi_d2iz>:
10005e78:	b510      	push	{r4, lr}
10005e7a:	004c      	lsls	r4, r1, #1
10005e7c:	0d62      	lsrs	r2, r4, #21
10005e7e:	2380      	movs	r3, #128	; 0x80
10005e80:	18d2      	adds	r2, r2, r3
10005e82:	00db      	lsls	r3, r3, #3
10005e84:	1ad2      	subs	r2, r2, r3
10005e86:	055b      	lsls	r3, r3, #21
10005e88:	2a7e      	cmp	r2, #126	; 0x7e
10005e8a:	dd10      	ble.n	10005eae <__wrap___aeabi_d2iz+0x36>
10005e8c:	3a9e      	subs	r2, #158	; 0x9e
10005e8e:	da13      	bge.n	10005eb8 <__wrap___aeabi_d2iz+0x40>
10005e90:	17cc      	asrs	r4, r1, #31
10005e92:	0309      	lsls	r1, r1, #12
10005e94:	0849      	lsrs	r1, r1, #1
10005e96:	4319      	orrs	r1, r3
10005e98:	4252      	negs	r2, r2
10005e9a:	40d1      	lsrs	r1, r2
10005e9c:	0064      	lsls	r4, r4, #1
10005e9e:	3401      	adds	r4, #1
10005ea0:	3215      	adds	r2, #21
10005ea2:	2a20      	cmp	r2, #32
10005ea4:	da05      	bge.n	10005eb2 <__wrap___aeabi_d2iz+0x3a>
10005ea6:	40d0      	lsrs	r0, r2
10005ea8:	4308      	orrs	r0, r1
10005eaa:	4360      	muls	r0, r4
10005eac:	bd10      	pop	{r4, pc}
10005eae:	2000      	movs	r0, #0
10005eb0:	bd10      	pop	{r4, pc}
10005eb2:	4608      	mov	r0, r1
10005eb4:	4360      	muls	r0, r4
10005eb6:	bd10      	pop	{r4, pc}
10005eb8:	0fc8      	lsrs	r0, r1, #31
10005eba:	18c0      	adds	r0, r0, r3
10005ebc:	3801      	subs	r0, #1
10005ebe:	bd10      	pop	{r4, pc}

10005ec0 <__wrap___aeabi_d2uiz>:
10005ec0:	b418      	push	{r3, r4}
10005ec2:	4b04      	ldr	r3, [pc, #16]	; (10005ed4 <__wrap___aeabi_d2uiz+0x14>)
10005ec4:	6a5b      	ldr	r3, [r3, #36]	; 0x24
10005ec6:	46fc      	mov	ip, pc
10005ec8:	9301      	str	r3, [sp, #4]
10005eca:	bd08      	pop	{r3, pc}
10005ecc:	6411df24 	.word	0x6411df24
10005ed0:	00001000 	.word	0x00001000
10005ed4:	20000370 	.word	0x20000370

10005ed8 <__aeabi_double_init>:
10005ed8:	2313      	movs	r3, #19
10005eda:	b570      	push	{r4, r5, r6, lr}
10005edc:	781d      	ldrb	r5, [r3, #0]
10005ede:	2d01      	cmp	r5, #1
10005ee0:	d015      	beq.n	10005f0e <__aeabi_double_init+0x36>
10005ee2:	dd10      	ble.n	10005f06 <__aeabi_double_init+0x2e>
10005ee4:	481c      	ldr	r0, [pc, #112]	; (10005f58 <__aeabi_double_init+0x80>)
10005ee6:	f7ff fc81 	bl	100057ec <rom_data_lookup>
10005eea:	4c1c      	ldr	r4, [pc, #112]	; (10005f5c <__aeabi_double_init+0x84>)
10005eec:	0001      	movs	r1, r0
10005eee:	2280      	movs	r2, #128	; 0x80
10005ef0:	0020      	movs	r0, r4
10005ef2:	f000 fc0d 	bl	10006710 <__wrap___aeabi_memcpy>
10005ef6:	2d02      	cmp	r5, #2
10005ef8:	d006      	beq.n	10005f08 <__aeabi_double_init+0x30>
10005efa:	4819      	ldr	r0, [pc, #100]	; (10005f60 <__aeabi_double_init+0x88>)
10005efc:	f7ff fc6e 	bl	100057dc <rom_func_lookup>
10005f00:	4b18      	ldr	r3, [pc, #96]	; (10005f64 <__aeabi_double_init+0x8c>)
10005f02:	6018      	str	r0, [r3, #0]
10005f04:	bd70      	pop	{r4, r5, r6, pc}
10005f06:	4c15      	ldr	r4, [pc, #84]	; (10005f5c <__aeabi_double_init+0x84>)
10005f08:	4b17      	ldr	r3, [pc, #92]	; (10005f68 <__aeabi_double_init+0x90>)
10005f0a:	64a3      	str	r3, [r4, #72]	; 0x48
10005f0c:	e7f5      	b.n	10005efa <__aeabi_double_init+0x22>
10005f0e:	4b16      	ldr	r3, [pc, #88]	; (10005f68 <__aeabi_double_init+0x90>)
10005f10:	4c12      	ldr	r4, [pc, #72]	; (10005f5c <__aeabi_double_init+0x84>)
10005f12:	6023      	str	r3, [r4, #0]
10005f14:	6063      	str	r3, [r4, #4]
10005f16:	60a3      	str	r3, [r4, #8]
10005f18:	60e3      	str	r3, [r4, #12]
10005f1a:	6123      	str	r3, [r4, #16]
10005f1c:	6163      	str	r3, [r4, #20]
10005f1e:	61a3      	str	r3, [r4, #24]
10005f20:	61e3      	str	r3, [r4, #28]
10005f22:	6223      	str	r3, [r4, #32]
10005f24:	6263      	str	r3, [r4, #36]	; 0x24
10005f26:	62a3      	str	r3, [r4, #40]	; 0x28
10005f28:	62e3      	str	r3, [r4, #44]	; 0x2c
10005f2a:	6323      	str	r3, [r4, #48]	; 0x30
10005f2c:	6363      	str	r3, [r4, #52]	; 0x34
10005f2e:	63a3      	str	r3, [r4, #56]	; 0x38
10005f30:	63e3      	str	r3, [r4, #60]	; 0x3c
10005f32:	6423      	str	r3, [r4, #64]	; 0x40
10005f34:	6463      	str	r3, [r4, #68]	; 0x44
10005f36:	64a3      	str	r3, [r4, #72]	; 0x48
10005f38:	64e3      	str	r3, [r4, #76]	; 0x4c
10005f3a:	6523      	str	r3, [r4, #80]	; 0x50
10005f3c:	6563      	str	r3, [r4, #84]	; 0x54
10005f3e:	65a3      	str	r3, [r4, #88]	; 0x58
10005f40:	65e3      	str	r3, [r4, #92]	; 0x5c
10005f42:	6623      	str	r3, [r4, #96]	; 0x60
10005f44:	6663      	str	r3, [r4, #100]	; 0x64
10005f46:	66a3      	str	r3, [r4, #104]	; 0x68
10005f48:	66e3      	str	r3, [r4, #108]	; 0x6c
10005f4a:	6723      	str	r3, [r4, #112]	; 0x70
10005f4c:	6763      	str	r3, [r4, #116]	; 0x74
10005f4e:	67a3      	str	r3, [r4, #120]	; 0x78
10005f50:	67e3      	str	r3, [r4, #124]	; 0x7c
10005f52:	64a3      	str	r3, [r4, #72]	; 0x48
10005f54:	e7d1      	b.n	10005efa <__aeabi_double_init+0x22>
10005f56:	46c0      	nop			; (mov r8, r8)
10005f58:	00004453 	.word	0x00004453
10005f5c:	20000370 	.word	0x20000370
10005f60:	0000334c 	.word	0x0000334c
10005f64:	2000062c 	.word	0x2000062c
10005f68:	10005f6d 	.word	0x10005f6d

10005f6c <double_table_shim_on_use_helper>:
10005f6c:	b507      	push	{r0, r1, r2, lr}
10005f6e:	4660      	mov	r0, ip
10005f70:	8801      	ldrh	r1, [r0, #0]
10005f72:	0a0a      	lsrs	r2, r1, #8
10005f74:	3002      	adds	r0, #2
10005f76:	2adf      	cmp	r2, #223	; 0xdf
10005f78:	d1fa      	bne.n	10005f70 <double_table_shim_on_use_helper+0x4>
10005f7a:	b2c9      	uxtb	r1, r1
10005f7c:	0882      	lsrs	r2, r0, #2
10005f7e:	d304      	bcc.n	10005f8a <double_table_shim_on_use_helper+0x1e>
10005f80:	8802      	ldrh	r2, [r0, #0]
10005f82:	8840      	ldrh	r0, [r0, #2]
10005f84:	0400      	lsls	r0, r0, #16
10005f86:	4310      	orrs	r0, r2
10005f88:	e000      	b.n	10005f8c <double_table_shim_on_use_helper+0x20>
10005f8a:	6800      	ldr	r0, [r0, #0]
10005f8c:	4a01      	ldr	r2, [pc, #4]	; (10005f94 <double_table_shim_on_use_helper+0x28>)
10005f8e:	5050      	str	r0, [r2, r1]
10005f90:	9003      	str	r0, [sp, #12]
10005f92:	bd07      	pop	{r0, r1, r2, pc}
10005f94:	20000370 	.word	0x20000370

10005f98 <drsub_shim>:
10005f98:	b40f      	push	{r0, r1, r2, r3}
10005f9a:	bc03      	pop	{r0, r1}
10005f9c:	bc0c      	pop	{r2, r3}

10005f9e <dsub_shim>:
10005f9e:	b5f0      	push	{r4, r5, r6, r7, lr}
10005fa0:	2401      	movs	r4, #1
10005fa2:	07e4      	lsls	r4, r4, #31
10005fa4:	4063      	eors	r3, r4
10005fa6:	e000      	b.n	10005faa <da_entry>

10005fa8 <dadd_shim>:
10005fa8:	b5f0      	push	{r4, r5, r6, r7, lr}

10005faa <da_entry>:
10005faa:	0d0c      	lsrs	r4, r1, #20
10005fac:	0fcf      	lsrs	r7, r1, #31
10005fae:	1e66      	subs	r6, r4, #1
10005fb0:	0536      	lsls	r6, r6, #20
10005fb2:	1b89      	subs	r1, r1, r6
10005fb4:	0564      	lsls	r4, r4, #21
10005fb6:	d303      	bcc.n	10005fc0 <l8_1>
10005fb8:	43c9      	mvns	r1, r1
10005fba:	4240      	negs	r0, r0
10005fbc:	d300      	bcc.n	10005fc0 <l8_1>
10005fbe:	3101      	adds	r1, #1

10005fc0 <l8_1>:
10005fc0:	0d64      	lsrs	r4, r4, #21
10005fc2:	d003      	beq.n	10005fcc <l8_2>
10005fc4:	1c66      	adds	r6, r4, #1
10005fc6:	0af6      	lsrs	r6, r6, #11
10005fc8:	d007      	beq.n	10005fda <l8_3>
10005fca:	1be4      	subs	r4, r4, r7

10005fcc <l8_2>:
10005fcc:	2000      	movs	r0, #0
10005fce:	007f      	lsls	r7, r7, #1
10005fd0:	1c79      	adds	r1, r7, #1
10005fd2:	0789      	lsls	r1, r1, #30
10005fd4:	1289      	asrs	r1, r1, #10
10005fd6:	3c80      	subs	r4, #128	; 0x80
10005fd8:	0324      	lsls	r4, r4, #12

10005fda <l8_3>:
10005fda:	0d1d      	lsrs	r5, r3, #20
10005fdc:	0fdf      	lsrs	r7, r3, #31
10005fde:	1e6e      	subs	r6, r5, #1
10005fe0:	0536      	lsls	r6, r6, #20
10005fe2:	1b9b      	subs	r3, r3, r6
10005fe4:	056d      	lsls	r5, r5, #21
10005fe6:	d303      	bcc.n	10005ff0 <l9_1>
10005fe8:	43db      	mvns	r3, r3
10005fea:	4252      	negs	r2, r2
10005fec:	d300      	bcc.n	10005ff0 <l9_1>
10005fee:	3301      	adds	r3, #1

10005ff0 <l9_1>:
10005ff0:	0d6d      	lsrs	r5, r5, #21
10005ff2:	d003      	beq.n	10005ffc <l9_2>
10005ff4:	1c6e      	adds	r6, r5, #1
10005ff6:	0af6      	lsrs	r6, r6, #11
10005ff8:	d007      	beq.n	1000600a <l9_3>
10005ffa:	1bed      	subs	r5, r5, r7

10005ffc <l9_2>:
10005ffc:	2200      	movs	r2, #0
10005ffe:	007f      	lsls	r7, r7, #1
10006000:	1c7b      	adds	r3, r7, #1
10006002:	079b      	lsls	r3, r3, #30
10006004:	129b      	asrs	r3, r3, #10
10006006:	3d80      	subs	r5, #128	; 0x80
10006008:	032d      	lsls	r5, r5, #12

1000600a <l9_3>:
1000600a:	1b2f      	subs	r7, r5, r4
1000600c:	1b66      	subs	r6, r4, r5
1000600e:	d458      	bmi.n	100060c2 <da_ygtx>
10006010:	46a4      	mov	ip, r4
10006012:	2e20      	cmp	r6, #32
10006014:	da46      	bge.n	100060a4 <da_xrgty>
10006016:	3720      	adds	r7, #32
10006018:	0014      	movs	r4, r2
1000601a:	40bc      	lsls	r4, r7

1000601c <da_xgty0>:
1000601c:	001d      	movs	r5, r3
1000601e:	40bd      	lsls	r5, r7
10006020:	40f2      	lsrs	r2, r6
10006022:	4133      	asrs	r3, r6
10006024:	432a      	orrs	r2, r5

10006026 <da_add>:
10006026:	1880      	adds	r0, r0, r2
10006028:	4159      	adcs	r1, r3

1000602a <da_pack>:
1000602a:	0fcb      	lsrs	r3, r1, #31
1000602c:	d005      	beq.n	1000603a <da_pack+0x10>
1000602e:	43c9      	mvns	r1, r1
10006030:	43c0      	mvns	r0, r0
10006032:	2200      	movs	r2, #0
10006034:	4264      	negs	r4, r4
10006036:	4150      	adcs	r0, r2
10006038:	4151      	adcs	r1, r2
1000603a:	4662      	mov	r2, ip
1000603c:	0d4d      	lsrs	r5, r1, #21
1000603e:	d128      	bne.n	10006092 <da_0>
10006040:	0d0d      	lsrs	r5, r1, #20
10006042:	d107      	bne.n	10006054 <da_1>
10006044:	2800      	cmp	r0, #0
10006046:	d01f      	beq.n	10006088 <da_5>

10006048 <da_2>:
10006048:	1924      	adds	r4, r4, r4
1000604a:	4140      	adcs	r0, r0
1000604c:	4149      	adcs	r1, r1
1000604e:	3a01      	subs	r2, #1
10006050:	0d0d      	lsrs	r5, r1, #20
10006052:	d0f9      	beq.n	10006048 <da_2>

10006054 <da_1>:
10006054:	0064      	lsls	r4, r4, #1
10006056:	d306      	bcc.n	10006066 <da_3>

10006058 <da_4>:
10006058:	3001      	adds	r0, #1
1000605a:	d300      	bcc.n	1000605e <da_4+0x6>
1000605c:	3101      	adds	r1, #1
1000605e:	2c00      	cmp	r4, #0
10006060:	d101      	bne.n	10006066 <da_3>
10006062:	0840      	lsrs	r0, r0, #1
10006064:	0040      	lsls	r0, r0, #1

10006066 <da_3>:
10006066:	3a01      	subs	r2, #1
10006068:	d40b      	bmi.n	10006082 <da_6>
1000606a:	1c94      	adds	r4, r2, #2
1000606c:	0ae4      	lsrs	r4, r4, #11
1000606e:	d104      	bne.n	1000607a <da_7>
10006070:	0512      	lsls	r2, r2, #20
10006072:	4411      	add	r1, r2
10006074:	07db      	lsls	r3, r3, #31
10006076:	4419      	add	r1, r3
10006078:	bdf0      	pop	{r4, r5, r6, r7, pc}

1000607a <da_7>:
1000607a:	07d9      	lsls	r1, r3, #31
1000607c:	4b20      	ldr	r3, [pc, #128]	; (10006100 <da_xmgty+0x4>)
1000607e:	4319      	orrs	r1, r3
10006080:	e000      	b.n	10006084 <da_6+0x2>

10006082 <da_6>:
10006082:	07d9      	lsls	r1, r3, #31
10006084:	2000      	movs	r0, #0
10006086:	bdf0      	pop	{r4, r5, r6, r7, pc}

10006088 <da_5>:
10006088:	2900      	cmp	r1, #0
1000608a:	d1dd      	bne.n	10006048 <da_2>
1000608c:	2c00      	cmp	r4, #0
1000608e:	d1db      	bne.n	10006048 <da_2>
10006090:	bdf0      	pop	{r4, r5, r6, r7, pc}

10006092 <da_0>:
10006092:	3201      	adds	r2, #1
10006094:	07c6      	lsls	r6, r0, #31
10006096:	0840      	lsrs	r0, r0, #1
10006098:	07cd      	lsls	r5, r1, #31
1000609a:	4328      	orrs	r0, r5
1000609c:	0849      	lsrs	r1, r1, #1
1000609e:	2e00      	cmp	r6, #0
100060a0:	d0e1      	beq.n	10006066 <da_3>
100060a2:	e7d9      	b.n	10006058 <da_4>

100060a4 <da_xrgty>:
100060a4:	2e3c      	cmp	r6, #60	; 0x3c
100060a6:	da29      	bge.n	100060fc <da_xmgty>
100060a8:	3e20      	subs	r6, #32
100060aa:	3740      	adds	r7, #64	; 0x40
100060ac:	0014      	movs	r4, r2
100060ae:	40bc      	lsls	r4, r7
100060b0:	d000      	beq.n	100060b4 <da_xrgty+0x10>
100060b2:	2401      	movs	r4, #1
100060b4:	40f2      	lsrs	r2, r6
100060b6:	4314      	orrs	r4, r2
100060b8:	001a      	movs	r2, r3
100060ba:	40bb      	lsls	r3, r7
100060bc:	431c      	orrs	r4, r3
100060be:	17d3      	asrs	r3, r2, #31
100060c0:	e7ac      	b.n	1000601c <da_xgty0>

100060c2 <da_ygtx>:
100060c2:	46ac      	mov	ip, r5
100060c4:	2f20      	cmp	r7, #32
100060c6:	da08      	bge.n	100060da <da_yrgtx>
100060c8:	3620      	adds	r6, #32
100060ca:	0004      	movs	r4, r0
100060cc:	40b4      	lsls	r4, r6

100060ce <da_ygtx0>:
100060ce:	000d      	movs	r5, r1
100060d0:	40b5      	lsls	r5, r6
100060d2:	40f8      	lsrs	r0, r7
100060d4:	4139      	asrs	r1, r7
100060d6:	4328      	orrs	r0, r5
100060d8:	e7a5      	b.n	10006026 <da_add>

100060da <da_yrgtx>:
100060da:	2f3c      	cmp	r7, #60	; 0x3c
100060dc:	da0c      	bge.n	100060f8 <da_ymgtx>
100060de:	3f20      	subs	r7, #32
100060e0:	3640      	adds	r6, #64	; 0x40
100060e2:	0004      	movs	r4, r0
100060e4:	40b4      	lsls	r4, r6
100060e6:	d000      	beq.n	100060ea <da_yrgtx+0x10>
100060e8:	2401      	movs	r4, #1
100060ea:	40f8      	lsrs	r0, r7
100060ec:	4304      	orrs	r4, r0
100060ee:	0008      	movs	r0, r1
100060f0:	40b1      	lsls	r1, r6
100060f2:	430c      	orrs	r4, r1
100060f4:	17c1      	asrs	r1, r0, #31
100060f6:	e7ea      	b.n	100060ce <da_ygtx0>

100060f8 <da_ymgtx>:
100060f8:	0010      	movs	r0, r2
100060fa:	0019      	movs	r1, r3

100060fc <da_xmgty>:
100060fc:	2400      	movs	r4, #0
100060fe:	e794      	b.n	1000602a <da_pack>
10006100:	7ff00000 	.word	0x7ff00000

10006104 <dmul_shim>:
10006104:	b5f0      	push	{r4, r5, r6, r7, lr}
10006106:	0d0c      	lsrs	r4, r1, #20
10006108:	1e66      	subs	r6, r4, #1
1000610a:	0536      	lsls	r6, r6, #20
1000610c:	1b89      	subs	r1, r1, r6
1000610e:	0ae6      	lsrs	r6, r4, #11
10006110:	0564      	lsls	r4, r4, #21
10006112:	0d64      	lsrs	r4, r4, #21
10006114:	d002      	beq.n	1000611c <l12_1>
10006116:	1c65      	adds	r5, r4, #1
10006118:	0aed      	lsrs	r5, r5, #11
1000611a:	d004      	beq.n	10006126 <l12_2>

1000611c <l12_1>:
1000611c:	2000      	movs	r0, #0
1000611e:	2101      	movs	r1, #1
10006120:	0509      	lsls	r1, r1, #20
10006122:	3c80      	subs	r4, #128	; 0x80
10006124:	0324      	lsls	r4, r4, #12

10006126 <l12_2>:
10006126:	46a4      	mov	ip, r4
10006128:	0d1c      	lsrs	r4, r3, #20
1000612a:	1e67      	subs	r7, r4, #1
1000612c:	053f      	lsls	r7, r7, #20
1000612e:	1bdb      	subs	r3, r3, r7
10006130:	0ae7      	lsrs	r7, r4, #11
10006132:	0564      	lsls	r4, r4, #21
10006134:	0d64      	lsrs	r4, r4, #21
10006136:	d002      	beq.n	1000613e <l13_1>
10006138:	1c65      	adds	r5, r4, #1
1000613a:	0aed      	lsrs	r5, r5, #11
1000613c:	d004      	beq.n	10006148 <l13_2>

1000613e <l13_1>:
1000613e:	2200      	movs	r2, #0
10006140:	2301      	movs	r3, #1
10006142:	051b      	lsls	r3, r3, #20
10006144:	3c80      	subs	r4, #128	; 0x80
10006146:	0324      	lsls	r4, r4, #12

10006148 <l13_2>:
10006148:	4077      	eors	r7, r6
1000614a:	4464      	add	r4, ip
1000614c:	b497      	push	{r0, r1, r2, r4, r7}
1000614e:	b284      	uxth	r4, r0
10006150:	b296      	uxth	r6, r2
10006152:	4374      	muls	r4, r6
10006154:	0c07      	lsrs	r7, r0, #16
10006156:	437e      	muls	r6, r7
10006158:	0c15      	lsrs	r5, r2, #16
1000615a:	436f      	muls	r7, r5
1000615c:	b280      	uxth	r0, r0
1000615e:	4368      	muls	r0, r5
10006160:	1836      	adds	r6, r6, r0
10006162:	d302      	bcc.n	1000616a <l14_1>
10006164:	2001      	movs	r0, #1
10006166:	0400      	lsls	r0, r0, #16
10006168:	183f      	adds	r7, r7, r0

1000616a <l14_1>:
1000616a:	0430      	lsls	r0, r6, #16
1000616c:	0c35      	lsrs	r5, r6, #16
1000616e:	1900      	adds	r0, r0, r4
10006170:	417d      	adcs	r5, r7
10006172:	4684      	mov	ip, r0
10006174:	b288      	uxth	r0, r1
10006176:	b29a      	uxth	r2, r3
10006178:	4350      	muls	r0, r2
1000617a:	0c0c      	lsrs	r4, r1, #16
1000617c:	4362      	muls	r2, r4
1000617e:	0c1f      	lsrs	r7, r3, #16
10006180:	437c      	muls	r4, r7
10006182:	b28e      	uxth	r6, r1
10006184:	437e      	muls	r6, r7
10006186:	1992      	adds	r2, r2, r6
10006188:	d302      	bcc.n	10006190 <l15_1>
1000618a:	2601      	movs	r6, #1
1000618c:	0436      	lsls	r6, r6, #16
1000618e:	19a4      	adds	r4, r4, r6

10006190 <l15_1>:
10006190:	0416      	lsls	r6, r2, #16
10006192:	0c17      	lsrs	r7, r2, #16
10006194:	1836      	adds	r6, r6, r0
10006196:	4167      	adcs	r7, r4
10006198:	bc01      	pop	{r0}
1000619a:	b281      	uxth	r1, r0
1000619c:	b29a      	uxth	r2, r3
1000619e:	4351      	muls	r1, r2
100061a0:	0c04      	lsrs	r4, r0, #16
100061a2:	4362      	muls	r2, r4
100061a4:	0c1b      	lsrs	r3, r3, #16
100061a6:	435c      	muls	r4, r3
100061a8:	b280      	uxth	r0, r0
100061aa:	4358      	muls	r0, r3
100061ac:	1812      	adds	r2, r2, r0
100061ae:	d302      	bcc.n	100061b6 <l16_1>
100061b0:	2001      	movs	r0, #1
100061b2:	0400      	lsls	r0, r0, #16
100061b4:	1824      	adds	r4, r4, r0

100061b6 <l16_1>:
100061b6:	0410      	lsls	r0, r2, #16
100061b8:	0c13      	lsrs	r3, r2, #16
100061ba:	1840      	adds	r0, r0, r1
100061bc:	4163      	adcs	r3, r4
100061be:	182d      	adds	r5, r5, r0
100061c0:	415e      	adcs	r6, r3
100061c2:	2000      	movs	r0, #0
100061c4:	4147      	adcs	r7, r0
100061c6:	bc06      	pop	{r1, r2}
100061c8:	b288      	uxth	r0, r1
100061ca:	b293      	uxth	r3, r2
100061cc:	4358      	muls	r0, r3
100061ce:	0c0c      	lsrs	r4, r1, #16
100061d0:	4363      	muls	r3, r4
100061d2:	0c12      	lsrs	r2, r2, #16
100061d4:	4354      	muls	r4, r2
100061d6:	b289      	uxth	r1, r1
100061d8:	4351      	muls	r1, r2
100061da:	185b      	adds	r3, r3, r1
100061dc:	d302      	bcc.n	100061e4 <l17_1>
100061de:	2101      	movs	r1, #1
100061e0:	0409      	lsls	r1, r1, #16
100061e2:	1864      	adds	r4, r4, r1

100061e4 <l17_1>:
100061e4:	0419      	lsls	r1, r3, #16
100061e6:	0c1a      	lsrs	r2, r3, #16
100061e8:	1809      	adds	r1, r1, r0
100061ea:	4162      	adcs	r2, r4
100061ec:	186d      	adds	r5, r5, r1
100061ee:	4156      	adcs	r6, r2
100061f0:	2000      	movs	r0, #0
100061f2:	4147      	adcs	r7, r0
100061f4:	bc18      	pop	{r3, r4}
100061f6:	02f9      	lsls	r1, r7, #11
100061f8:	0d72      	lsrs	r2, r6, #21
100061fa:	4311      	orrs	r1, r2
100061fc:	02f0      	lsls	r0, r6, #11
100061fe:	0d6a      	lsrs	r2, r5, #21
10006200:	4310      	orrs	r0, r2
10006202:	02ed      	lsls	r5, r5, #11
10006204:	0d0a      	lsrs	r2, r1, #20
10006206:	d103      	bne.n	10006210 <l17_1+0x2c>
10006208:	196d      	adds	r5, r5, r5
1000620a:	4140      	adcs	r0, r0
1000620c:	4149      	adcs	r1, r1
1000620e:	3b01      	subs	r3, #1
10006210:	4e12      	ldr	r6, [pc, #72]	; (1000625c <dm_1+0xa>)
10006212:	1b9b      	subs	r3, r3, r6
10006214:	0076      	lsls	r6, r6, #1
10006216:	42b3      	cmp	r3, r6
10006218:	d20e      	bcs.n	10006238 <dm_0>
1000621a:	006d      	lsls	r5, r5, #1
1000621c:	d307      	bcc.n	1000622e <l17_1+0x4a>
1000621e:	3001      	adds	r0, #1
10006220:	2600      	movs	r6, #0
10006222:	4171      	adcs	r1, r6
10006224:	4666      	mov	r6, ip
10006226:	4335      	orrs	r5, r6
10006228:	d101      	bne.n	1000622e <l17_1+0x4a>
1000622a:	0840      	lsrs	r0, r0, #1
1000622c:	0040      	lsls	r0, r0, #1
1000622e:	051b      	lsls	r3, r3, #20
10006230:	18c9      	adds	r1, r1, r3

10006232 <dm_2>:
10006232:	07e4      	lsls	r4, r4, #31
10006234:	4421      	add	r1, r4
10006236:	bdf0      	pop	{r4, r5, r6, r7, pc}

10006238 <dm_0>:
10006238:	da0b      	bge.n	10006252 <dm_1>
1000623a:	3301      	adds	r3, #1
1000623c:	d106      	bne.n	1000624c <dm_0+0x14>
1000623e:	3001      	adds	r0, #1
10006240:	d104      	bne.n	1000624c <dm_0+0x14>
10006242:	3101      	adds	r1, #1
10006244:	0d4f      	lsrs	r7, r1, #21
10006246:	d001      	beq.n	1000624c <dm_0+0x14>
10006248:	0849      	lsrs	r1, r1, #1
1000624a:	e7f2      	b.n	10006232 <dm_2>
1000624c:	07e1      	lsls	r1, r4, #31
1000624e:	2000      	movs	r0, #0
10006250:	bdf0      	pop	{r4, r5, r6, r7, pc}

10006252 <dm_1>:
10006252:	3601      	adds	r6, #1
10006254:	0531      	lsls	r1, r6, #20
10006256:	2000      	movs	r0, #0
10006258:	e7eb      	b.n	10006232 <dm_2>
1000625a:	0000      	.short	0x0000
1000625c:	000003ff 	.word	0x000003ff

10006260 <ddiv_shim>:
10006260:	b5f0      	push	{r4, r5, r6, r7, lr}

10006262 <ddiv0>:
10006262:	0d1c      	lsrs	r4, r3, #20
10006264:	1e67      	subs	r7, r4, #1
10006266:	053f      	lsls	r7, r7, #20
10006268:	1bdb      	subs	r3, r3, r7
1000626a:	0ae7      	lsrs	r7, r4, #11
1000626c:	0564      	lsls	r4, r4, #21
1000626e:	0d64      	lsrs	r4, r4, #21
10006270:	d002      	beq.n	10006278 <l20_1>
10006272:	1c66      	adds	r6, r4, #1
10006274:	0af6      	lsrs	r6, r6, #11
10006276:	d004      	beq.n	10006282 <l20_2>

10006278 <l20_1>:
10006278:	2200      	movs	r2, #0
1000627a:	2301      	movs	r3, #1
1000627c:	051b      	lsls	r3, r3, #20
1000627e:	3c80      	subs	r4, #128	; 0x80
10006280:	0324      	lsls	r4, r4, #12

10006282 <l20_2>:
10006282:	25d0      	movs	r5, #208	; 0xd0
10006284:	062d      	lsls	r5, r5, #24
10006286:	2600      	movs	r6, #0
10006288:	43f6      	mvns	r6, r6
1000628a:	662e      	str	r6, [r5, #96]	; 0x60
1000628c:	091e      	lsrs	r6, r3, #4
1000628e:	666e      	str	r6, [r5, #100]	; 0x64
10006290:	0fce      	lsrs	r6, r1, #31
10006292:	19f6      	adds	r6, r6, r7
10006294:	46b4      	mov	ip, r6
10006296:	0049      	lsls	r1, r1, #1
10006298:	0d4f      	lsrs	r7, r1, #21
1000629a:	d002      	beq.n	100062a2 <l20_2+0x20>
1000629c:	1c7e      	adds	r6, r7, #1
1000629e:	0af6      	lsrs	r6, r6, #11
100062a0:	d003      	beq.n	100062aa <l20_2+0x28>
100062a2:	2000      	movs	r0, #0
100062a4:	2100      	movs	r1, #0
100062a6:	3f40      	subs	r7, #64	; 0x40
100062a8:	033f      	lsls	r7, r7, #12
100062aa:	1b3e      	subs	r6, r7, r4
100062ac:	00b6      	lsls	r6, r6, #2
100062ae:	44b4      	add	ip, r6
100062b0:	3f01      	subs	r7, #1
100062b2:	057f      	lsls	r7, r7, #21
100062b4:	1bc9      	subs	r1, r1, r7
100062b6:	0849      	lsrs	r1, r1, #1
100062b8:	6f2e      	ldr	r6, [r5, #112]	; 0x70
100062ba:	3601      	adds	r6, #1
100062bc:	0876      	lsrs	r6, r6, #1
100062be:	029c      	lsls	r4, r3, #10
100062c0:	0d95      	lsrs	r5, r2, #22
100062c2:	4325      	orrs	r5, r4
100062c4:	4375      	muls	r5, r6
100062c6:	13ed      	asrs	r5, r5, #15
100062c8:	4375      	muls	r5, r6
100062ca:	13ad      	asrs	r5, r5, #14
100062cc:	3501      	adds	r5, #1
100062ce:	106d      	asrs	r5, r5, #1
100062d0:	03f6      	lsls	r6, r6, #15
100062d2:	1b76      	subs	r6, r6, r5
100062d4:	b40c      	push	{r2, r3}
100062d6:	02cc      	lsls	r4, r1, #11
100062d8:	0d45      	lsrs	r5, r0, #21
100062da:	432c      	orrs	r4, r5
100062dc:	b2a2      	uxth	r2, r4
100062de:	b2b3      	uxth	r3, r6
100062e0:	435a      	muls	r2, r3
100062e2:	0c27      	lsrs	r7, r4, #16
100062e4:	437b      	muls	r3, r7
100062e6:	0c35      	lsrs	r5, r6, #16
100062e8:	436f      	muls	r7, r5
100062ea:	b2a4      	uxth	r4, r4
100062ec:	436c      	muls	r4, r5
100062ee:	191b      	adds	r3, r3, r4
100062f0:	d302      	bcc.n	100062f8 <l21_1>
100062f2:	2401      	movs	r4, #1
100062f4:	0424      	lsls	r4, r4, #16
100062f6:	193f      	adds	r7, r7, r4

100062f8 <l21_1>:
100062f8:	041c      	lsls	r4, r3, #16
100062fa:	0c1d      	lsrs	r5, r3, #16
100062fc:	18a4      	adds	r4, r4, r2
100062fe:	417d      	adcs	r5, r7
10006300:	1924      	adds	r4, r4, r4
10006302:	416d      	adcs	r5, r5
10006304:	9a00      	ldr	r2, [sp, #0]
10006306:	b291      	uxth	r1, r2
10006308:	b2ac      	uxth	r4, r5
1000630a:	4361      	muls	r1, r4
1000630c:	0c17      	lsrs	r7, r2, #16
1000630e:	437c      	muls	r4, r7
10006310:	0c2b      	lsrs	r3, r5, #16
10006312:	435f      	muls	r7, r3
10006314:	b292      	uxth	r2, r2
10006316:	435a      	muls	r2, r3
10006318:	18a4      	adds	r4, r4, r2
1000631a:	d302      	bcc.n	10006322 <l22_1>
1000631c:	2201      	movs	r2, #1
1000631e:	0412      	lsls	r2, r2, #16
10006320:	18bf      	adds	r7, r7, r2

10006322 <l22_1>:
10006322:	0422      	lsls	r2, r4, #16
10006324:	0c23      	lsrs	r3, r4, #16
10006326:	1852      	adds	r2, r2, r1
10006328:	417b      	adcs	r3, r7
1000632a:	9c01      	ldr	r4, [sp, #4]
1000632c:	436c      	muls	r4, r5
1000632e:	191b      	adds	r3, r3, r4
10006330:	0e52      	lsrs	r2, r2, #25
10006332:	01d9      	lsls	r1, r3, #7
10006334:	430a      	orrs	r2, r1
10006336:	0144      	lsls	r4, r0, #5
10006338:	1aa0      	subs	r0, r4, r2
1000633a:	b281      	uxth	r1, r0
1000633c:	b2b2      	uxth	r2, r6
1000633e:	4351      	muls	r1, r2
10006340:	1403      	asrs	r3, r0, #16
10006342:	435a      	muls	r2, r3
10006344:	0c36      	lsrs	r6, r6, #16
10006346:	4373      	muls	r3, r6
10006348:	b287      	uxth	r7, r0
1000634a:	4377      	muls	r7, r6
1000634c:	17d6      	asrs	r6, r2, #31
1000634e:	19d2      	adds	r2, r2, r7
10006350:	2700      	movs	r7, #0
10006352:	417e      	adcs	r6, r7
10006354:	0436      	lsls	r6, r6, #16
10006356:	199b      	adds	r3, r3, r6
10006358:	0417      	lsls	r7, r2, #16
1000635a:	0c16      	lsrs	r6, r2, #16
1000635c:	187f      	adds	r7, r7, r1
1000635e:	415e      	adcs	r6, r3
10006360:	1673      	asrs	r3, r6, #25
10006362:	18ed      	adds	r5, r5, r3
10006364:	01f3      	lsls	r3, r6, #7
10006366:	2600      	movs	r6, #0
10006368:	3380      	adds	r3, #128	; 0x80
1000636a:	4175      	adcs	r5, r6
1000636c:	0fa9      	lsrs	r1, r5, #30
1000636e:	d106      	bne.n	1000637e <dd_0>
10006370:	0064      	lsls	r4, r4, #1
10006372:	0a69      	lsrs	r1, r5, #9
10006374:	05e8      	lsls	r0, r5, #23
10006376:	0a5b      	lsrs	r3, r3, #9
10006378:	4318      	orrs	r0, r3
1000637a:	d209      	bcs.n	10006390 <dd_1>
1000637c:	e02f      	b.n	100063de <dd_2>

1000637e <dd_0>:
1000637e:	2204      	movs	r2, #4
10006380:	4494      	add	ip, r2
10006382:	3380      	adds	r3, #128	; 0x80
10006384:	4175      	adcs	r5, r6
10006386:	0aa9      	lsrs	r1, r5, #10
10006388:	05a8      	lsls	r0, r5, #22
1000638a:	0a9b      	lsrs	r3, r3, #10
1000638c:	4318      	orrs	r0, r3
1000638e:	d326      	bcc.n	100063de <dd_2>

10006390 <dd_1>:
10006390:	4140      	adcs	r0, r0
10006392:	4149      	adcs	r1, r1
10006394:	0424      	lsls	r4, r4, #16
10006396:	9a00      	ldr	r2, [sp, #0]
10006398:	9b01      	ldr	r3, [sp, #4]
1000639a:	000d      	movs	r5, r1
1000639c:	4355      	muls	r5, r2
1000639e:	1b64      	subs	r4, r4, r5
100063a0:	4343      	muls	r3, r0
100063a2:	1ae4      	subs	r4, r4, r3
100063a4:	b295      	uxth	r5, r2
100063a6:	b286      	uxth	r6, r0
100063a8:	4375      	muls	r5, r6
100063aa:	0c17      	lsrs	r7, r2, #16
100063ac:	437e      	muls	r6, r7
100063ae:	0c03      	lsrs	r3, r0, #16
100063b0:	435f      	muls	r7, r3
100063b2:	b292      	uxth	r2, r2
100063b4:	435a      	muls	r2, r3
100063b6:	18b6      	adds	r6, r6, r2
100063b8:	d302      	bcc.n	100063c0 <l24_1>
100063ba:	2201      	movs	r2, #1
100063bc:	0412      	lsls	r2, r2, #16
100063be:	18bf      	adds	r7, r7, r2

100063c0 <l24_1>:
100063c0:	0432      	lsls	r2, r6, #16
100063c2:	0c33      	lsrs	r3, r6, #16
100063c4:	1952      	adds	r2, r2, r5
100063c6:	417b      	adcs	r3, r7
100063c8:	4252      	negs	r2, r2
100063ca:	419c      	sbcs	r4, r3
100063cc:	2c00      	cmp	r4, #0
100063ce:	d402      	bmi.n	100063d6 <l24_1+0x16>
100063d0:	2200      	movs	r2, #0
100063d2:	3001      	adds	r0, #1
100063d4:	4151      	adcs	r1, r2
100063d6:	0840      	lsrs	r0, r0, #1
100063d8:	07ca      	lsls	r2, r1, #31
100063da:	4310      	orrs	r0, r2
100063dc:	0849      	lsrs	r1, r1, #1

100063de <dd_2>:
100063de:	b002      	add	sp, #8
100063e0:	4662      	mov	r2, ip
100063e2:	07d7      	lsls	r7, r2, #31
100063e4:	1092      	asrs	r2, r2, #2
100063e6:	4b08      	ldr	r3, [pc, #32]	; (10006408 <dd_4+0x6>)
100063e8:	18d2      	adds	r2, r2, r3
100063ea:	4b08      	ldr	r3, [pc, #32]	; (1000640c <dd_4+0xa>)
100063ec:	429a      	cmp	r2, r3
100063ee:	d203      	bcs.n	100063f8 <dd_3>
100063f0:	0512      	lsls	r2, r2, #20
100063f2:	1889      	adds	r1, r1, r2

100063f4 <dd_5>:
100063f4:	19c9      	adds	r1, r1, r7
100063f6:	bdf0      	pop	{r4, r5, r6, r7, pc}

100063f8 <dd_3>:
100063f8:	2000      	movs	r0, #0
100063fa:	2a00      	cmp	r2, #0
100063fc:	dc01      	bgt.n	10006402 <dd_4>
100063fe:	0039      	movs	r1, r7
10006400:	bdf0      	pop	{r4, r5, r6, r7, pc}

10006402 <dd_4>:
10006402:	3301      	adds	r3, #1
10006404:	0519      	lsls	r1, r3, #20
10006406:	e7f5      	b.n	100063f4 <dd_5>
10006408:	000003fd 	.word	0x000003fd
1000640c:	000007fe 	.word	0x000007fe

10006410 <double2uint_shim>:
10006410:	2200      	movs	r2, #0

10006412 <double2ufix_shim>:
10006412:	b500      	push	{lr}
10006414:	3220      	adds	r2, #32
10006416:	f000 f804 	bl	10006422 <double2ufix64_shim>
1000641a:	0008      	movs	r0, r1
1000641c:	bd00      	pop	{pc}
	...

10006420 <double2uint64_shim>:
10006420:	2200      	movs	r2, #0

10006422 <double2ufix64_shim>:
10006422:	150b      	asrs	r3, r1, #20
10006424:	d40a      	bmi.n	1000643c <ret_dzero>

10006426 <d2fix>:
10006426:	b510      	push	{r4, lr}
10006428:	4694      	mov	ip, r2
1000642a:	f000 f831 	bl	10006490 <dunpacks>
1000642e:	1414      	asrs	r4, r2, #16
10006430:	3401      	adds	r4, #1
10006432:	da00      	bge.n	10006436 <d2fix+0x10>
10006434:	2100      	movs	r1, #0
10006436:	17cb      	asrs	r3, r1, #31
10006438:	4c14      	ldr	r4, [pc, #80]	; (1000648c <d2fix_a+0x4a>)
1000643a:	4720      	bx	r4

1000643c <ret_dzero>:
1000643c:	2000      	movs	r0, #0
1000643e:	2100      	movs	r1, #0
10006440:	4770      	bx	lr

10006442 <d2fix_a>:
10006442:	4462      	add	r2, ip
10006444:	3a34      	subs	r2, #52	; 0x34
10006446:	d40c      	bmi.n	10006462 <d2fix_a+0x20>
10006448:	2a0c      	cmp	r2, #12
1000644a:	da07      	bge.n	1000645c <d2fix_a+0x1a>
1000644c:	0004      	movs	r4, r0
1000644e:	4091      	lsls	r1, r2
10006450:	4090      	lsls	r0, r2
10006452:	4252      	negs	r2, r2
10006454:	3220      	adds	r2, #32
10006456:	40d4      	lsrs	r4, r2
10006458:	4321      	orrs	r1, r4
1000645a:	bd10      	pop	{r4, pc}
1000645c:	43d8      	mvns	r0, r3
1000645e:	43d9      	mvns	r1, r3
10006460:	bd10      	pop	{r4, pc}
10006462:	3220      	adds	r2, #32
10006464:	d407      	bmi.n	10006476 <d2fix_a+0x34>
10006466:	460c      	mov	r4, r1
10006468:	4094      	lsls	r4, r2
1000646a:	4252      	negs	r2, r2
1000646c:	3220      	adds	r2, #32
1000646e:	4111      	asrs	r1, r2
10006470:	40d0      	lsrs	r0, r2
10006472:	4320      	orrs	r0, r4
10006474:	bd10      	pop	{r4, pc}
10006476:	0008      	movs	r0, r1
10006478:	17c9      	asrs	r1, r1, #31
1000647a:	3220      	adds	r2, #32
1000647c:	d403      	bmi.n	10006486 <d2fix_a+0x44>
1000647e:	4252      	negs	r2, r2
10006480:	3220      	adds	r2, #32
10006482:	4110      	asrs	r0, r2
10006484:	bd10      	pop	{r4, pc}
10006486:	0018      	movs	r0, r3
10006488:	0019      	movs	r1, r3
1000648a:	bd10      	pop	{r4, pc}
1000648c:	10006443 	.word	0x10006443

10006490 <dunpacks>:
10006490:	0d0a      	lsrs	r2, r1, #20
10006492:	0fcc      	lsrs	r4, r1, #31
10006494:	1e53      	subs	r3, r2, #1
10006496:	051b      	lsls	r3, r3, #20
10006498:	1ac9      	subs	r1, r1, r3
1000649a:	0552      	lsls	r2, r2, #21
1000649c:	d303      	bcc.n	100064a6 <l60_1>
1000649e:	43c9      	mvns	r1, r1
100064a0:	4240      	negs	r0, r0
100064a2:	d300      	bcc.n	100064a6 <l60_1>
100064a4:	3101      	adds	r1, #1

100064a6 <l60_1>:
100064a6:	0d52      	lsrs	r2, r2, #21
100064a8:	d003      	beq.n	100064b2 <l60_2>
100064aa:	1c53      	adds	r3, r2, #1
100064ac:	0adb      	lsrs	r3, r3, #11
100064ae:	d007      	beq.n	100064c0 <l60_3>
100064b0:	1b12      	subs	r2, r2, r4

100064b2 <l60_2>:
100064b2:	2000      	movs	r0, #0
100064b4:	0064      	lsls	r4, r4, #1
100064b6:	1c61      	adds	r1, r4, #1
100064b8:	0789      	lsls	r1, r1, #30
100064ba:	1289      	asrs	r1, r1, #10
100064bc:	3a80      	subs	r2, #128	; 0x80
100064be:	0312      	lsls	r2, r2, #12

100064c0 <l60_3>:
100064c0:	4b01      	ldr	r3, [pc, #4]	; (100064c8 <l60_3+0x8>)
100064c2:	1ad2      	subs	r2, r2, r3
100064c4:	4770      	bx	lr
100064c6:	0000      	.short	0x0000
100064c8:	000003ff 	.word	0x000003ff

100064cc <__wrap___aeabi_lmul>:
100064cc:	4351      	muls	r1, r2
100064ce:	4343      	muls	r3, r0
100064d0:	18c9      	adds	r1, r1, r3
100064d2:	468c      	mov	ip, r1
100064d4:	0c11      	lsrs	r1, r2, #16
100064d6:	b283      	uxth	r3, r0
100064d8:	434b      	muls	r3, r1
100064da:	b410      	push	{r4}
100064dc:	0c04      	lsrs	r4, r0, #16
100064de:	4361      	muls	r1, r4
100064e0:	b292      	uxth	r2, r2
100064e2:	b280      	uxth	r0, r0
100064e4:	4350      	muls	r0, r2
100064e6:	4362      	muls	r2, r4
100064e8:	041c      	lsls	r4, r3, #16
100064ea:	0c1b      	lsrs	r3, r3, #16
100064ec:	1900      	adds	r0, r0, r4
100064ee:	bc10      	pop	{r4}
100064f0:	4159      	adcs	r1, r3
100064f2:	0413      	lsls	r3, r2, #16
100064f4:	0c12      	lsrs	r2, r2, #16
100064f6:	18c0      	adds	r0, r0, r3
100064f8:	4151      	adcs	r1, r2
100064fa:	4461      	add	r1, ip
100064fc:	4770      	bx	lr
	...

10006500 <__wrap___aeabi_frsub>:
10006500:	4048      	eors	r0, r1
10006502:	4041      	eors	r1, r0
10006504:	4048      	eors	r0, r1

10006506 <__wrap___aeabi_fsub>:
10006506:	4b0e      	ldr	r3, [pc, #56]	; (10006540 <__wrap___aeabi_fmul+0x6>)
10006508:	685b      	ldr	r3, [r3, #4]
1000650a:	4718      	bx	r3

1000650c <__wrap___aeabi_fadd>:
1000650c:	4b0c      	ldr	r3, [pc, #48]	; (10006540 <__wrap___aeabi_fmul+0x6>)
1000650e:	681b      	ldr	r3, [r3, #0]
10006510:	4718      	bx	r3

10006512 <__wrap___aeabi_fdiv>:
10006512:	4a0c      	ldr	r2, [pc, #48]	; (10006544 <__wrap___aeabi_fmul+0xa>)
10006514:	6f93      	ldr	r3, [r2, #120]	; 0x78
10006516:	089b      	lsrs	r3, r3, #2
10006518:	d202      	bcs.n	10006520 <fdiv_save_state>

1000651a <fdiv_shim_call>:
1000651a:	4b09      	ldr	r3, [pc, #36]	; (10006540 <__wrap___aeabi_fmul+0x6>)
1000651c:	68db      	ldr	r3, [r3, #12]
1000651e:	4718      	bx	r3

10006520 <fdiv_save_state>:
10006520:	b5f0      	push	{r4, r5, r6, r7, lr}
10006522:	6e14      	ldr	r4, [r2, #96]	; 0x60
10006524:	6e55      	ldr	r5, [r2, #100]	; 0x64
10006526:	6f57      	ldr	r7, [r2, #116]	; 0x74
10006528:	6f16      	ldr	r6, [r2, #112]	; 0x70
1000652a:	f7ff fff6 	bl	1000651a <fdiv_shim_call>
1000652e:	4a05      	ldr	r2, [pc, #20]	; (10006544 <__wrap___aeabi_fmul+0xa>)
10006530:	6614      	str	r4, [r2, #96]	; 0x60
10006532:	6655      	str	r5, [r2, #100]	; 0x64
10006534:	6757      	str	r7, [r2, #116]	; 0x74
10006536:	6716      	str	r6, [r2, #112]	; 0x70
10006538:	bdf0      	pop	{r4, r5, r6, r7, pc}

1000653a <__wrap___aeabi_fmul>:
1000653a:	4b01      	ldr	r3, [pc, #4]	; (10006540 <__wrap___aeabi_fmul+0x6>)
1000653c:	689b      	ldr	r3, [r3, #8]
1000653e:	4718      	bx	r3
10006540:	20000470 	.word	0x20000470
10006544:	d0000000 	.word	0xd0000000

10006548 <__wrap___aeabi_cfrcmple>:
10006548:	b507      	push	{r0, r1, r2, lr}
1000654a:	4048      	eors	r0, r1
1000654c:	4041      	eors	r1, r0
1000654e:	4048      	eors	r0, r1
10006550:	e001      	b.n	10006556 <__aeabi_cfcmple_guts>
10006552:	46c0      	nop			; (mov r8, r8)

10006554 <__wrap___aeabi_cfcmpeq>:
10006554:	b507      	push	{r0, r1, r2, lr}

10006556 <__aeabi_cfcmple_guts>:
10006556:	0042      	lsls	r2, r0, #1
10006558:	0e12      	lsrs	r2, r2, #24
1000655a:	d003      	beq.n	10006564 <__aeabi_cfcmple_guts+0xe>
1000655c:	2aff      	cmp	r2, #255	; 0xff
1000655e:	d103      	bne.n	10006568 <__aeabi_cfcmple_guts+0x12>
10006560:	0242      	lsls	r2, r0, #9
10006562:	d818      	bhi.n	10006596 <__aeabi_cfcmple_guts+0x40>
10006564:	0dc0      	lsrs	r0, r0, #23
10006566:	05c0      	lsls	r0, r0, #23
10006568:	004a      	lsls	r2, r1, #1
1000656a:	0e12      	lsrs	r2, r2, #24
1000656c:	d003      	beq.n	10006576 <__aeabi_cfcmple_guts+0x20>
1000656e:	2aff      	cmp	r2, #255	; 0xff
10006570:	d103      	bne.n	1000657a <__aeabi_cfcmple_guts+0x24>
10006572:	024a      	lsls	r2, r1, #9
10006574:	d80f      	bhi.n	10006596 <__aeabi_cfcmple_guts+0x40>
10006576:	0dc9      	lsrs	r1, r1, #23
10006578:	05c9      	lsls	r1, r1, #23
1000657a:	2201      	movs	r2, #1
1000657c:	4041      	eors	r1, r0
1000657e:	d405      	bmi.n	1000658c <__aeabi_cfcmple_guts+0x36>
10006580:	4041      	eors	r1, r0
10006582:	d501      	bpl.n	10006588 <__aeabi_cfcmple_guts+0x32>
10006584:	4281      	cmp	r1, r0
10006586:	bd07      	pop	{r0, r1, r2, pc}
10006588:	4288      	cmp	r0, r1
1000658a:	bd07      	pop	{r0, r1, r2, pc}
1000658c:	4301      	orrs	r1, r0
1000658e:	1849      	adds	r1, r1, r1
10006590:	d001      	beq.n	10006596 <__aeabi_cfcmple_guts+0x40>
10006592:	43c0      	mvns	r0, r0
10006594:	1800      	adds	r0, r0, r0
10006596:	bd07      	pop	{r0, r1, r2, pc}

10006598 <__wrap___aeabi_fcmpgt>:
10006598:	b500      	push	{lr}
1000659a:	f7ff ffd5 	bl	10006548 <__wrap___aeabi_cfrcmple>
1000659e:	4180      	sbcs	r0, r0
100065a0:	bd00      	pop	{pc}
	...

100065a4 <__wrap___aeabi_i2f>:
100065a4:	0fc1      	lsrs	r1, r0, #31
100065a6:	07c9      	lsls	r1, r1, #31
100065a8:	d500      	bpl.n	100065ac <__wrap___aeabi_i2f+0x8>
100065aa:	4240      	negs	r0, r0
100065ac:	2800      	cmp	r0, #0
100065ae:	d017      	beq.n	100065e0 <__aeabi_i2f_main+0x30>

100065b0 <__aeabi_i2f_main>:
100065b0:	46f4      	mov	ip, lr
100065b2:	b403      	push	{r0, r1}
100065b4:	4b0b      	ldr	r3, [pc, #44]	; (100065e4 <__aeabi_i2f_main+0x34>)
100065b6:	681b      	ldr	r3, [r3, #0]
100065b8:	4798      	blx	r3
100065ba:	bc06      	pop	{r1, r2}
100065bc:	4081      	lsls	r1, r0
100065be:	389e      	subs	r0, #158	; 0x9e
100065c0:	4240      	negs	r0, r0
100065c2:	3180      	adds	r1, #128	; 0x80
100065c4:	d207      	bcs.n	100065d6 <__aeabi_i2f_main+0x26>
100065c6:	060b      	lsls	r3, r1, #24
100065c8:	d007      	beq.n	100065da <__aeabi_i2f_main+0x2a>
100065ca:	0049      	lsls	r1, r1, #1
100065cc:	0a49      	lsrs	r1, r1, #9
100065ce:	05c0      	lsls	r0, r0, #23
100065d0:	4310      	orrs	r0, r2
100065d2:	4308      	orrs	r0, r1
100065d4:	4760      	bx	ip
100065d6:	3001      	adds	r0, #1
100065d8:	e7f8      	b.n	100065cc <__aeabi_i2f_main+0x1c>
100065da:	0a49      	lsrs	r1, r1, #9
100065dc:	0289      	lsls	r1, r1, #10
100065de:	e7f5      	b.n	100065cc <__aeabi_i2f_main+0x1c>
100065e0:	4770      	bx	lr
100065e2:	0000      	.short	0x0000
100065e4:	2000062c 	.word	0x2000062c

100065e8 <__wrap___aeabi_f2iz>:
100065e8:	0041      	lsls	r1, r0, #1
100065ea:	0e0a      	lsrs	r2, r1, #24
100065ec:	2380      	movs	r3, #128	; 0x80
100065ee:	061b      	lsls	r3, r3, #24
100065f0:	2a7e      	cmp	r2, #126	; 0x7e
100065f2:	dd0b      	ble.n	1000660c <__wrap___aeabi_f2iz+0x24>
100065f4:	3a9e      	subs	r2, #158	; 0x9e
100065f6:	da0b      	bge.n	10006610 <__wrap___aeabi_f2iz+0x28>
100065f8:	17c1      	asrs	r1, r0, #31
100065fa:	0240      	lsls	r0, r0, #9
100065fc:	0840      	lsrs	r0, r0, #1
100065fe:	4318      	orrs	r0, r3
10006600:	4252      	negs	r2, r2
10006602:	40d0      	lsrs	r0, r2
10006604:	0049      	lsls	r1, r1, #1
10006606:	3101      	adds	r1, #1
10006608:	4348      	muls	r0, r1
1000660a:	4770      	bx	lr
1000660c:	2000      	movs	r0, #0
1000660e:	4770      	bx	lr
10006610:	0fc0      	lsrs	r0, r0, #31
10006612:	18c0      	adds	r0, r0, r3
10006614:	3801      	subs	r0, #1
10006616:	4770      	bx	lr
10006618:	42c0      	cmn	r0, r0
1000661a:	d30d      	bcc.n	10006638 <float2int>
1000661c:	b500      	push	{lr}
1000661e:	0040      	lsls	r0, r0, #1
10006620:	0840      	lsrs	r0, r0, #1
10006622:	2100      	movs	r1, #0
10006624:	f000 f812 	bl	1000664c <__wrap___aeabi_f2uiz>
10006628:	2800      	cmp	r0, #0
1000662a:	d401      	bmi.n	10006630 <__wrap___aeabi_f2iz+0x48>
1000662c:	4240      	negs	r0, r0
1000662e:	bd00      	pop	{pc}
10006630:	2080      	movs	r0, #128	; 0x80
10006632:	0600      	lsls	r0, r0, #24
10006634:	bd00      	pop	{pc}
	...

10006638 <float2int>:
10006638:	4b03      	ldr	r3, [pc, #12]	; (10006648 <float2int+0x10>)
1000663a:	69db      	ldr	r3, [r3, #28]
1000663c:	46fc      	mov	ip, pc
1000663e:	4718      	bx	r3
10006640:	66e9df1c 	.word	0x66e9df1c
10006644:	00001000 	.word	0x00001000
10006648:	20000470 	.word	0x20000470

1000664c <__wrap___aeabi_f2uiz>:
1000664c:	4b01      	ldr	r3, [pc, #4]	; (10006654 <__wrap___aeabi_f2uiz+0x8>)
1000664e:	6a5b      	ldr	r3, [r3, #36]	; 0x24
10006650:	4718      	bx	r3
10006652:	0000      	.short	0x0000
10006654:	20000470 	.word	0x20000470

10006658 <__aeabi_float_init>:
10006658:	2313      	movs	r3, #19
1000665a:	b510      	push	{r4, lr}
1000665c:	4812      	ldr	r0, [pc, #72]	; (100066a8 <__aeabi_float_init+0x50>)
1000665e:	781c      	ldrb	r4, [r3, #0]
10006660:	f7ff f8c4 	bl	100057ec <rom_data_lookup>
10006664:	0001      	movs	r1, r0
10006666:	2c01      	cmp	r4, #1
10006668:	d00a      	beq.n	10006680 <__aeabi_float_init+0x28>
1000666a:	dd03      	ble.n	10006674 <__aeabi_float_init+0x1c>
1000666c:	2280      	movs	r2, #128	; 0x80
1000666e:	480f      	ldr	r0, [pc, #60]	; (100066ac <__aeabi_float_init+0x54>)
10006670:	f000 f84e 	bl	10006710 <__wrap___aeabi_memcpy>
10006674:	480e      	ldr	r0, [pc, #56]	; (100066b0 <__aeabi_float_init+0x58>)
10006676:	f7ff f8b1 	bl	100057dc <rom_func_lookup>
1000667a:	4b0e      	ldr	r3, [pc, #56]	; (100066b4 <__aeabi_float_init+0x5c>)
1000667c:	6018      	str	r0, [r3, #0]
1000667e:	bd10      	pop	{r4, pc}
10006680:	4c0a      	ldr	r4, [pc, #40]	; (100066ac <__aeabi_float_init+0x54>)
10006682:	2254      	movs	r2, #84	; 0x54
10006684:	0020      	movs	r0, r4
10006686:	f000 f843 	bl	10006710 <__wrap___aeabi_memcpy>
1000668a:	4b0b      	ldr	r3, [pc, #44]	; (100066b8 <__aeabi_float_init+0x60>)
1000668c:	6563      	str	r3, [r4, #84]	; 0x54
1000668e:	65a3      	str	r3, [r4, #88]	; 0x58
10006690:	65e3      	str	r3, [r4, #92]	; 0x5c
10006692:	6623      	str	r3, [r4, #96]	; 0x60
10006694:	6663      	str	r3, [r4, #100]	; 0x64
10006696:	66a3      	str	r3, [r4, #104]	; 0x68
10006698:	66e3      	str	r3, [r4, #108]	; 0x6c
1000669a:	6723      	str	r3, [r4, #112]	; 0x70
1000669c:	6763      	str	r3, [r4, #116]	; 0x74
1000669e:	67a3      	str	r3, [r4, #120]	; 0x78
100066a0:	67e3      	str	r3, [r4, #124]	; 0x7c
100066a2:	6223      	str	r3, [r4, #32]
100066a4:	61e3      	str	r3, [r4, #28]
100066a6:	e7e5      	b.n	10006674 <__aeabi_float_init+0x1c>
100066a8:	00004653 	.word	0x00004653
100066ac:	20000470 	.word	0x20000470
100066b0:	0000334c 	.word	0x0000334c
100066b4:	2000062c 	.word	0x2000062c
100066b8:	100066bd 	.word	0x100066bd

100066bc <float_table_shim_on_use_helper>:
100066bc:	b507      	push	{r0, r1, r2, lr}
100066be:	4660      	mov	r0, ip
100066c0:	8801      	ldrh	r1, [r0, #0]
100066c2:	0a0a      	lsrs	r2, r1, #8
100066c4:	3002      	adds	r0, #2
100066c6:	2adf      	cmp	r2, #223	; 0xdf
100066c8:	d1fa      	bne.n	100066c0 <float_table_shim_on_use_helper+0x4>
100066ca:	b2c9      	uxtb	r1, r1
100066cc:	0882      	lsrs	r2, r0, #2
100066ce:	d304      	bcc.n	100066da <float_table_shim_on_use_helper+0x1e>
100066d0:	8802      	ldrh	r2, [r0, #0]
100066d2:	8840      	ldrh	r0, [r0, #2]
100066d4:	0400      	lsls	r0, r0, #16
100066d6:	4310      	orrs	r0, r2
100066d8:	e000      	b.n	100066dc <float_table_shim_on_use_helper+0x20>
100066da:	6800      	ldr	r0, [r0, #0]
100066dc:	4a01      	ldr	r2, [pc, #4]	; (100066e4 <float_table_shim_on_use_helper+0x28>)
100066de:	5050      	str	r0, [r2, r1]
100066e0:	9003      	str	r0, [sp, #12]
100066e2:	bd07      	pop	{r0, r1, r2, pc}
100066e4:	20000470 	.word	0x20000470

100066e8 <float2int_shim>:
100066e8:	2100      	movs	r1, #0

100066ea <float2fix_shim>:
100066ea:	15c2      	asrs	r2, r0, #23
100066ec:	3280      	adds	r2, #128	; 0x80
100066ee:	3280      	adds	r2, #128	; 0x80
100066f0:	d001      	beq.n	100066f6 <float2fix_shim+0xc>
100066f2:	4a02      	ldr	r2, [pc, #8]	; (100066fc <float2fix_shim+0x12>)
100066f4:	4710      	bx	r2
100066f6:	2000      	movs	r0, #0
100066f8:	4770      	bx	lr
100066fa:	0000      	.short	0x0000
100066fc:	00002acd 	.word	0x00002acd

10006700 <__aeabi_mem_init>:
10006700:	4801      	ldr	r0, [pc, #4]	; (10006708 <__aeabi_mem_init+0x8>)
10006702:	2104      	movs	r1, #4
10006704:	4b01      	ldr	r3, [pc, #4]	; (1000670c <__aeabi_mem_init+0xc>)
10006706:	4718      	bx	r3
10006708:	20000230 	.word	0x20000230
1000670c:	100057fd 	.word	0x100057fd

10006710 <__wrap___aeabi_memcpy>:
10006710:	4b01      	ldr	r3, [pc, #4]	; (10006718 <__wrap___aeabi_memcpy+0x8>)
10006712:	685b      	ldr	r3, [r3, #4]
10006714:	4718      	bx	r3
10006716:	0000      	.short	0x0000
10006718:	20000230 	.word	0x20000230

1000671c <stdio_out_chars_no_crlf>:
1000671c:	0003      	movs	r3, r0
1000671e:	b510      	push	{r4, lr}
10006720:	0008      	movs	r0, r1
10006722:	0011      	movs	r1, r2
10006724:	681b      	ldr	r3, [r3, #0]
10006726:	4798      	blx	r3
10006728:	bd10      	pop	{r4, pc}
1000672a:	46c0      	nop			; (mov r8, r8)

1000672c <stdio_out_chars_crlf>:
1000672c:	b5f0      	push	{r4, r5, r6, r7, lr}
1000672e:	4646      	mov	r6, r8
10006730:	464f      	mov	r7, r9
10006732:	46d6      	mov	lr, sl
10006734:	b5c0      	push	{r6, r7, lr}
10006736:	7d43      	ldrb	r3, [r0, #21]
10006738:	4680      	mov	r8, r0
1000673a:	000e      	movs	r6, r1
1000673c:	0017      	movs	r7, r2
1000673e:	2b00      	cmp	r3, #0
10006740:	d046      	beq.n	100067d0 <stdio_out_chars_crlf+0xa4>
10006742:	2a00      	cmp	r2, #0
10006744:	dd3f      	ble.n	100067c6 <stdio_out_chars_crlf+0x9a>
10006746:	1e4b      	subs	r3, r1, #1
10006748:	4699      	mov	r9, r3
1000674a:	4b24      	ldr	r3, [pc, #144]	; (100067dc <stdio_out_chars_crlf+0xb0>)
1000674c:	2501      	movs	r5, #1
1000674e:	2400      	movs	r4, #0
10006750:	2000      	movs	r0, #0
10006752:	469a      	mov	sl, r3
10006754:	e00d      	b.n	10006772 <stdio_out_chars_crlf+0x46>
10006756:	464b      	mov	r3, r9
10006758:	5d1b      	ldrb	r3, [r3, r4]
1000675a:	3b0d      	subs	r3, #13
1000675c:	425a      	negs	r2, r3
1000675e:	4153      	adcs	r3, r2
10006760:	5d32      	ldrb	r2, [r6, r4]
10006762:	b2db      	uxtb	r3, r3
10006764:	2a0a      	cmp	r2, #10
10006766:	d00b      	beq.n	10006780 <stdio_out_chars_crlf+0x54>
10006768:	002b      	movs	r3, r5
1000676a:	3401      	adds	r4, #1
1000676c:	3501      	adds	r5, #1
1000676e:	429f      	cmp	r7, r3
10006770:	dd1a      	ble.n	100067a8 <stdio_out_chars_crlf+0x7c>
10006772:	2c00      	cmp	r4, #0
10006774:	d1ef      	bne.n	10006756 <stdio_out_chars_crlf+0x2a>
10006776:	4643      	mov	r3, r8
10006778:	5d32      	ldrb	r2, [r6, r4]
1000677a:	7d1b      	ldrb	r3, [r3, #20]
1000677c:	2a0a      	cmp	r2, #10
1000677e:	d1f3      	bne.n	10006768 <stdio_out_chars_crlf+0x3c>
10006780:	2b00      	cmp	r3, #0
10006782:	d1f1      	bne.n	10006768 <stdio_out_chars_crlf+0x3c>
10006784:	42a0      	cmp	r0, r4
10006786:	da04      	bge.n	10006792 <stdio_out_chars_crlf+0x66>
10006788:	4643      	mov	r3, r8
1000678a:	1a21      	subs	r1, r4, r0
1000678c:	681b      	ldr	r3, [r3, #0]
1000678e:	1830      	adds	r0, r6, r0
10006790:	4798      	blx	r3
10006792:	4643      	mov	r3, r8
10006794:	4650      	mov	r0, sl
10006796:	681b      	ldr	r3, [r3, #0]
10006798:	2102      	movs	r1, #2
1000679a:	4798      	blx	r3
1000679c:	3401      	adds	r4, #1
1000679e:	0028      	movs	r0, r5
100067a0:	002b      	movs	r3, r5
100067a2:	3501      	adds	r5, #1
100067a4:	429f      	cmp	r7, r3
100067a6:	dce4      	bgt.n	10006772 <stdio_out_chars_crlf+0x46>
100067a8:	4287      	cmp	r7, r0
100067aa:	dd04      	ble.n	100067b6 <stdio_out_chars_crlf+0x8a>
100067ac:	4643      	mov	r3, r8
100067ae:	1a39      	subs	r1, r7, r0
100067b0:	681b      	ldr	r3, [r3, #0]
100067b2:	1830      	adds	r0, r6, r0
100067b4:	4798      	blx	r3
100067b6:	19f6      	adds	r6, r6, r7
100067b8:	3e01      	subs	r6, #1
100067ba:	7833      	ldrb	r3, [r6, #0]
100067bc:	3b0d      	subs	r3, #13
100067be:	425a      	negs	r2, r3
100067c0:	4153      	adcs	r3, r2
100067c2:	4642      	mov	r2, r8
100067c4:	7513      	strb	r3, [r2, #20]
100067c6:	bce0      	pop	{r5, r6, r7}
100067c8:	46ba      	mov	sl, r7
100067ca:	46b1      	mov	r9, r6
100067cc:	46a8      	mov	r8, r5
100067ce:	bdf0      	pop	{r4, r5, r6, r7, pc}
100067d0:	6803      	ldr	r3, [r0, #0]
100067d2:	0011      	movs	r1, r2
100067d4:	0030      	movs	r0, r6
100067d6:	4798      	blx	r3
100067d8:	e7f5      	b.n	100067c6 <stdio_out_chars_crlf+0x9a>
100067da:	46c0      	nop			; (mov r8, r8)
100067dc:	100075ac 	.word	0x100075ac

100067e0 <stdio_put_string.isra.0>:
100067e0:	b5f0      	push	{r4, r5, r6, r7, lr}
100067e2:	46de      	mov	lr, fp
100067e4:	4657      	mov	r7, sl
100067e6:	464e      	mov	r6, r9
100067e8:	4645      	mov	r5, r8
100067ea:	b5e0      	push	{r5, r6, r7, lr}
100067ec:	b085      	sub	sp, #20
100067ee:	0017      	movs	r7, r2
100067f0:	001c      	movs	r4, r3
100067f2:	0006      	movs	r6, r0
100067f4:	000d      	movs	r5, r1
100067f6:	f7fc ffa5 	bl	10003744 <time_us_64>
100067fa:	2300      	movs	r3, #0
100067fc:	4a30      	ldr	r2, [pc, #192]	; (100068c0 <stdio_put_string.isra.0+0xe0>)
100067fe:	1812      	adds	r2, r2, r0
10006800:	414b      	adcs	r3, r1
10006802:	2b00      	cmp	r3, #0
10006804:	db58      	blt.n	100068b8 <stdio_put_string.isra.0+0xd8>
10006806:	492f      	ldr	r1, [pc, #188]	; (100068c4 <stdio_put_string.isra.0+0xe4>)
10006808:	0008      	movs	r0, r1
1000680a:	468a      	mov	sl, r1
1000680c:	f000 fab4 	bl	10006d78 <__mutex_try_enter_block_until_veneer>
10006810:	9001      	str	r0, [sp, #4]
10006812:	1c6b      	adds	r3, r5, #1
10006814:	d103      	bne.n	1000681e <stdio_put_string.isra.0+0x3e>
10006816:	0030      	movs	r0, r6
10006818:	f000 fa64 	bl	10006ce4 <strlen>
1000681c:	0005      	movs	r5, r0
1000681e:	2c00      	cmp	r4, #0
10006820:	d125      	bne.n	1000686e <stdio_put_string.isra.0+0x8e>
10006822:	4b29      	ldr	r3, [pc, #164]	; (100068c8 <stdio_put_string.isra.0+0xe8>)
10006824:	4698      	mov	r8, r3
10006826:	4b29      	ldr	r3, [pc, #164]	; (100068cc <stdio_put_string.isra.0+0xec>)
10006828:	681c      	ldr	r4, [r3, #0]
1000682a:	2c00      	cmp	r4, #0
1000682c:	d015      	beq.n	1000685a <stdio_put_string.isra.0+0x7a>
1000682e:	2f00      	cmp	r7, #0
10006830:	d120      	bne.n	10006874 <stdio_put_string.isra.0+0x94>
10006832:	4f27      	ldr	r7, [pc, #156]	; (100068d0 <stdio_put_string.isra.0+0xf0>)
10006834:	e002      	b.n	1000683c <stdio_put_string.isra.0+0x5c>
10006836:	6924      	ldr	r4, [r4, #16]
10006838:	2c00      	cmp	r4, #0
1000683a:	d00e      	beq.n	1000685a <stdio_put_string.isra.0+0x7a>
1000683c:	6823      	ldr	r3, [r4, #0]
1000683e:	2b00      	cmp	r3, #0
10006840:	d0f9      	beq.n	10006836 <stdio_put_string.isra.0+0x56>
10006842:	683b      	ldr	r3, [r7, #0]
10006844:	2b00      	cmp	r3, #0
10006846:	d001      	beq.n	1000684c <stdio_put_string.isra.0+0x6c>
10006848:	42a3      	cmp	r3, r4
1000684a:	d1f4      	bne.n	10006836 <stdio_put_string.isra.0+0x56>
1000684c:	0020      	movs	r0, r4
1000684e:	002a      	movs	r2, r5
10006850:	0031      	movs	r1, r6
10006852:	47c0      	blx	r8
10006854:	6924      	ldr	r4, [r4, #16]
10006856:	2c00      	cmp	r4, #0
10006858:	d1f0      	bne.n	1000683c <stdio_put_string.isra.0+0x5c>
1000685a:	9b01      	ldr	r3, [sp, #4]
1000685c:	2b00      	cmp	r3, #0
1000685e:	d127      	bne.n	100068b0 <stdio_put_string.isra.0+0xd0>
10006860:	b005      	add	sp, #20
10006862:	bcf0      	pop	{r4, r5, r6, r7}
10006864:	46bb      	mov	fp, r7
10006866:	46b2      	mov	sl, r6
10006868:	46a9      	mov	r9, r5
1000686a:	46a0      	mov	r8, r4
1000686c:	bdf0      	pop	{r4, r5, r6, r7, pc}
1000686e:	4b19      	ldr	r3, [pc, #100]	; (100068d4 <stdio_put_string.isra.0+0xf4>)
10006870:	4698      	mov	r8, r3
10006872:	e7d8      	b.n	10006826 <stdio_put_string.isra.0+0x46>
10006874:	4b16      	ldr	r3, [pc, #88]	; (100068d0 <stdio_put_string.isra.0+0xf0>)
10006876:	4699      	mov	r9, r3
10006878:	ab02      	add	r3, sp, #8
1000687a:	1ddf      	adds	r7, r3, #7
1000687c:	230a      	movs	r3, #10
1000687e:	469b      	mov	fp, r3
10006880:	e002      	b.n	10006888 <stdio_put_string.isra.0+0xa8>
10006882:	6924      	ldr	r4, [r4, #16]
10006884:	2c00      	cmp	r4, #0
10006886:	d0e8      	beq.n	1000685a <stdio_put_string.isra.0+0x7a>
10006888:	6823      	ldr	r3, [r4, #0]
1000688a:	2b00      	cmp	r3, #0
1000688c:	d0f9      	beq.n	10006882 <stdio_put_string.isra.0+0xa2>
1000688e:	464b      	mov	r3, r9
10006890:	681b      	ldr	r3, [r3, #0]
10006892:	2b00      	cmp	r3, #0
10006894:	d001      	beq.n	1000689a <stdio_put_string.isra.0+0xba>
10006896:	42a3      	cmp	r3, r4
10006898:	d1f3      	bne.n	10006882 <stdio_put_string.isra.0+0xa2>
1000689a:	002a      	movs	r2, r5
1000689c:	0031      	movs	r1, r6
1000689e:	0020      	movs	r0, r4
100068a0:	47c0      	blx	r8
100068a2:	465b      	mov	r3, fp
100068a4:	2201      	movs	r2, #1
100068a6:	0039      	movs	r1, r7
100068a8:	0020      	movs	r0, r4
100068aa:	703b      	strb	r3, [r7, #0]
100068ac:	47c0      	blx	r8
100068ae:	e7e8      	b.n	10006882 <stdio_put_string.isra.0+0xa2>
100068b0:	4650      	mov	r0, sl
100068b2:	f000 fa49 	bl	10006d48 <__mutex_exit_veneer>
100068b6:	e7d3      	b.n	10006860 <stdio_put_string.isra.0+0x80>
100068b8:	2201      	movs	r2, #1
100068ba:	4b07      	ldr	r3, [pc, #28]	; (100068d8 <stdio_put_string.isra.0+0xf8>)
100068bc:	4252      	negs	r2, r2
100068be:	e7a2      	b.n	10006806 <stdio_put_string.isra.0+0x26>
100068c0:	000f4240 	.word	0x000f4240
100068c4:	20000240 	.word	0x20000240
100068c8:	1000672d 	.word	0x1000672d
100068cc:	2000060c 	.word	0x2000060c
100068d0:	20000610 	.word	0x20000610
100068d4:	1000671d 	.word	0x1000671d
100068d8:	7fffffff 	.word	0x7fffffff

100068dc <__wrap_putchar>:
100068dc:	b5f0      	push	{r4, r5, r6, r7, lr}
100068de:	46ce      	mov	lr, r9
100068e0:	4647      	mov	r7, r8
100068e2:	b580      	push	{r7, lr}
100068e4:	b083      	sub	sp, #12
100068e6:	466b      	mov	r3, sp
100068e8:	0006      	movs	r6, r0
100068ea:	1ddd      	adds	r5, r3, #7
100068ec:	7028      	strb	r0, [r5, #0]
100068ee:	f7fc ff29 	bl	10003744 <time_us_64>
100068f2:	2300      	movs	r3, #0
100068f4:	4a1a      	ldr	r2, [pc, #104]	; (10006960 <__wrap_putchar+0x84>)
100068f6:	1812      	adds	r2, r2, r0
100068f8:	414b      	adcs	r3, r1
100068fa:	2b00      	cmp	r3, #0
100068fc:	db2b      	blt.n	10006956 <__wrap_putchar+0x7a>
100068fe:	4919      	ldr	r1, [pc, #100]	; (10006964 <__wrap_putchar+0x88>)
10006900:	0008      	movs	r0, r1
10006902:	4688      	mov	r8, r1
10006904:	f000 fa38 	bl	10006d78 <__mutex_try_enter_block_until_veneer>
10006908:	4b17      	ldr	r3, [pc, #92]	; (10006968 <__wrap_putchar+0x8c>)
1000690a:	4681      	mov	r9, r0
1000690c:	681c      	ldr	r4, [r3, #0]
1000690e:	2c00      	cmp	r4, #0
10006910:	d014      	beq.n	1000693c <__wrap_putchar+0x60>
10006912:	4f16      	ldr	r7, [pc, #88]	; (1000696c <__wrap_putchar+0x90>)
10006914:	e002      	b.n	1000691c <__wrap_putchar+0x40>
10006916:	6924      	ldr	r4, [r4, #16]
10006918:	2c00      	cmp	r4, #0
1000691a:	d00f      	beq.n	1000693c <__wrap_putchar+0x60>
1000691c:	6823      	ldr	r3, [r4, #0]
1000691e:	2b00      	cmp	r3, #0
10006920:	d0f9      	beq.n	10006916 <__wrap_putchar+0x3a>
10006922:	683b      	ldr	r3, [r7, #0]
10006924:	2b00      	cmp	r3, #0
10006926:	d001      	beq.n	1000692c <__wrap_putchar+0x50>
10006928:	42a3      	cmp	r3, r4
1000692a:	d1f4      	bne.n	10006916 <__wrap_putchar+0x3a>
1000692c:	0020      	movs	r0, r4
1000692e:	2201      	movs	r2, #1
10006930:	0029      	movs	r1, r5
10006932:	f7ff fefb 	bl	1000672c <stdio_out_chars_crlf>
10006936:	6924      	ldr	r4, [r4, #16]
10006938:	2c00      	cmp	r4, #0
1000693a:	d1ef      	bne.n	1000691c <__wrap_putchar+0x40>
1000693c:	464b      	mov	r3, r9
1000693e:	2b00      	cmp	r3, #0
10006940:	d105      	bne.n	1000694e <__wrap_putchar+0x72>
10006942:	0030      	movs	r0, r6
10006944:	b003      	add	sp, #12
10006946:	bcc0      	pop	{r6, r7}
10006948:	46b9      	mov	r9, r7
1000694a:	46b0      	mov	r8, r6
1000694c:	bdf0      	pop	{r4, r5, r6, r7, pc}
1000694e:	4640      	mov	r0, r8
10006950:	f000 f9fa 	bl	10006d48 <__mutex_exit_veneer>
10006954:	e7f5      	b.n	10006942 <__wrap_putchar+0x66>
10006956:	2201      	movs	r2, #1
10006958:	4b05      	ldr	r3, [pc, #20]	; (10006970 <__wrap_putchar+0x94>)
1000695a:	4252      	negs	r2, r2
1000695c:	e7cf      	b.n	100068fe <__wrap_putchar+0x22>
1000695e:	46c0      	nop			; (mov r8, r8)
10006960:	000f4240 	.word	0x000f4240
10006964:	20000240 	.word	0x20000240
10006968:	2000060c 	.word	0x2000060c
1000696c:	20000610 	.word	0x20000610
10006970:	7fffffff 	.word	0x7fffffff

10006974 <__wrap_puts>:
10006974:	b570      	push	{r4, r5, r6, lr}
10006976:	0004      	movs	r4, r0
10006978:	f000 f9b4 	bl	10006ce4 <strlen>
1000697c:	2300      	movs	r3, #0
1000697e:	0001      	movs	r1, r0
10006980:	0005      	movs	r5, r0
10006982:	2201      	movs	r2, #1
10006984:	0020      	movs	r0, r4
10006986:	f7ff ff2b 	bl	100067e0 <stdio_put_string.isra.0>
1000698a:	4b08      	ldr	r3, [pc, #32]	; (100069ac <__wrap_puts+0x38>)
1000698c:	681c      	ldr	r4, [r3, #0]
1000698e:	2c00      	cmp	r4, #0
10006990:	d006      	beq.n	100069a0 <__wrap_puts+0x2c>
10006992:	6863      	ldr	r3, [r4, #4]
10006994:	2b00      	cmp	r3, #0
10006996:	d005      	beq.n	100069a4 <__wrap_puts+0x30>
10006998:	4798      	blx	r3
1000699a:	6924      	ldr	r4, [r4, #16]
1000699c:	2c00      	cmp	r4, #0
1000699e:	d1f8      	bne.n	10006992 <__wrap_puts+0x1e>
100069a0:	0028      	movs	r0, r5
100069a2:	bd70      	pop	{r4, r5, r6, pc}
100069a4:	6924      	ldr	r4, [r4, #16]
100069a6:	2c00      	cmp	r4, #0
100069a8:	d1f3      	bne.n	10006992 <__wrap_puts+0x1e>
100069aa:	e7f9      	b.n	100069a0 <__wrap_puts+0x2c>
100069ac:	2000060c 	.word	0x2000060c

100069b0 <adc_init>:
100069b0:	2301      	movs	r3, #1
100069b2:	2101      	movs	r1, #1
100069b4:	4a08      	ldr	r2, [pc, #32]	; (100069d8 <adc_init+0x28>)
100069b6:	6013      	str	r3, [r2, #0]
100069b8:	4a08      	ldr	r2, [pc, #32]	; (100069dc <adc_init+0x2c>)
100069ba:	6013      	str	r3, [r2, #0]
100069bc:	4a08      	ldr	r2, [pc, #32]	; (100069e0 <adc_init+0x30>)
100069be:	0008      	movs	r0, r1
100069c0:	6893      	ldr	r3, [r2, #8]
100069c2:	4398      	bics	r0, r3
100069c4:	d1fb      	bne.n	100069be <adc_init+0xe>
100069c6:	4a07      	ldr	r2, [pc, #28]	; (100069e4 <adc_init+0x34>)
100069c8:	6011      	str	r1, [r2, #0]
100069ca:	2180      	movs	r1, #128	; 0x80
100069cc:	0049      	lsls	r1, r1, #1
100069ce:	6813      	ldr	r3, [r2, #0]
100069d0:	420b      	tst	r3, r1
100069d2:	d0fc      	beq.n	100069ce <adc_init+0x1e>
100069d4:	4770      	bx	lr
100069d6:	46c0      	nop			; (mov r8, r8)
100069d8:	4000e000 	.word	0x4000e000
100069dc:	4000f000 	.word	0x4000f000
100069e0:	4000c000 	.word	0x4000c000
100069e4:	4004c000 	.word	0x4004c000

100069e8 <pio_add_program>:
100069e8:	b5f0      	push	{r4, r5, r6, r7, lr}
100069ea:	46d6      	mov	lr, sl
100069ec:	464f      	mov	r7, r9
100069ee:	4646      	mov	r6, r8
100069f0:	4688      	mov	r8, r1
100069f2:	b5c0      	push	{r6, r7, lr}
100069f4:	2405      	movs	r4, #5
100069f6:	0006      	movs	r6, r0
100069f8:	f7fc f8d4 	bl	10002ba4 <hw_claim_lock>
100069fc:	4643      	mov	r3, r8
100069fe:	791f      	ldrb	r7, [r3, #4]
10006a00:	571c      	ldrsb	r4, [r3, r4]
10006a02:	4b28      	ldr	r3, [pc, #160]	; (10006aa4 <pio_add_program+0xbc>)
10006a04:	4681      	mov	r9, r0
10006a06:	18f0      	adds	r0, r6, r3
10006a08:	4243      	negs	r3, r0
10006a0a:	4158      	adcs	r0, r3
10006a0c:	4b26      	ldr	r3, [pc, #152]	; (10006aa8 <pio_add_program+0xc0>)
10006a0e:	469a      	mov	sl, r3
10006a10:	0083      	lsls	r3, r0, #2
10006a12:	469c      	mov	ip, r3
10006a14:	4653      	mov	r3, sl
10006a16:	4662      	mov	r2, ip
10006a18:	5898      	ldr	r0, [r3, r2]
10006a1a:	2201      	movs	r2, #1
10006a1c:	2320      	movs	r3, #32
10006a1e:	40ba      	lsls	r2, r7
10006a20:	1bdb      	subs	r3, r3, r7
10006a22:	3a01      	subs	r2, #1
10006a24:	2c00      	cmp	r4, #0
10006a26:	db32      	blt.n	10006a8e <pio_add_program+0xa6>
10006a28:	429c      	cmp	r4, r3
10006a2a:	dc2d      	bgt.n	10006a88 <pio_add_program+0xa0>
10006a2c:	40a2      	lsls	r2, r4
10006a2e:	0015      	movs	r5, r2
10006a30:	4210      	tst	r0, r2
10006a32:	d129      	bne.n	10006a88 <pio_add_program+0xa0>
10006a34:	2f00      	cmp	r7, #0
10006a36:	d01a      	beq.n	10006a6e <pio_add_program+0x86>
10006a38:	4643      	mov	r3, r8
10006a3a:	785a      	ldrb	r2, [r3, #1]
10006a3c:	7819      	ldrb	r1, [r3, #0]
10006a3e:	0212      	lsls	r2, r2, #8
10006a40:	4311      	orrs	r1, r2
10006a42:	4642      	mov	r2, r8
10006a44:	789b      	ldrb	r3, [r3, #2]
10006a46:	78d2      	ldrb	r2, [r2, #3]
10006a48:	041b      	lsls	r3, r3, #16
10006a4a:	430b      	orrs	r3, r1
10006a4c:	0612      	lsls	r2, r2, #24
10006a4e:	431a      	orrs	r2, r3
10006a50:	4690      	mov	r8, r2
10006a52:	2200      	movs	r2, #0
10006a54:	4641      	mov	r1, r8
10006a56:	0053      	lsls	r3, r2, #1
10006a58:	5ac9      	ldrh	r1, [r1, r3]
10006a5a:	0b4b      	lsrs	r3, r1, #13
10006a5c:	d100      	bne.n	10006a60 <pio_add_program+0x78>
10006a5e:	1909      	adds	r1, r1, r4
10006a60:	1913      	adds	r3, r2, r4
10006a62:	3312      	adds	r3, #18
10006a64:	009b      	lsls	r3, r3, #2
10006a66:	3201      	adds	r2, #1
10006a68:	5199      	str	r1, [r3, r6]
10006a6a:	4297      	cmp	r7, r2
10006a6c:	d8f2      	bhi.n	10006a54 <pio_add_program+0x6c>
10006a6e:	4653      	mov	r3, sl
10006a70:	4662      	mov	r2, ip
10006a72:	4305      	orrs	r5, r0
10006a74:	509d      	str	r5, [r3, r2]
10006a76:	4648      	mov	r0, r9
10006a78:	f7fc f8a0 	bl	10002bbc <hw_claim_unlock>
10006a7c:	0020      	movs	r0, r4
10006a7e:	bce0      	pop	{r5, r6, r7}
10006a80:	46ba      	mov	sl, r7
10006a82:	46b1      	mov	r9, r6
10006a84:	46a8      	mov	r8, r5
10006a86:	bdf0      	pop	{r4, r5, r6, r7, pc}
10006a88:	4808      	ldr	r0, [pc, #32]	; (10006aac <pio_add_program+0xc4>)
10006a8a:	f7fd fb99 	bl	100041c0 <panic>
10006a8e:	2b00      	cmp	r3, #0
10006a90:	da02      	bge.n	10006a98 <pio_add_program+0xb0>
10006a92:	e7f9      	b.n	10006a88 <pio_add_program+0xa0>
10006a94:	3b01      	subs	r3, #1
10006a96:	d3f7      	bcc.n	10006a88 <pio_add_program+0xa0>
10006a98:	0015      	movs	r5, r2
10006a9a:	409d      	lsls	r5, r3
10006a9c:	001c      	movs	r4, r3
10006a9e:	4205      	tst	r5, r0
10006aa0:	d1f8      	bne.n	10006a94 <pio_add_program+0xac>
10006aa2:	e7c7      	b.n	10006a34 <pio_add_program+0x4c>
10006aa4:	afd00000 	.word	0xafd00000
10006aa8:	2000058c 	.word	0x2000058c
10006aac:	100075b0 	.word	0x100075b0

10006ab0 <pio_sm_set_pins_with_mask>:
10006ab0:	b5f0      	push	{r4, r5, r6, r7, lr}
10006ab2:	46de      	mov	lr, fp
10006ab4:	4657      	mov	r7, sl
10006ab6:	464e      	mov	r6, r9
10006ab8:	4645      	mov	r5, r8
10006aba:	468b      	mov	fp, r1
10006abc:	b5e0      	push	{r5, r6, r7, lr}
10006abe:	001c      	movs	r4, r3
10006ac0:	b085      	sub	sp, #20
10006ac2:	004b      	lsls	r3, r1, #1
10006ac4:	9303      	str	r3, [sp, #12]
10006ac6:	445b      	add	r3, fp
10006ac8:	00db      	lsls	r3, r3, #3
10006aca:	18c5      	adds	r5, r0, r3
10006acc:	002f      	movs	r7, r5
10006ace:	37dc      	adds	r7, #220	; 0xdc
10006ad0:	0016      	movs	r6, r2
10006ad2:	683a      	ldr	r2, [r7, #0]
10006ad4:	4684      	mov	ip, r0
10006ad6:	9200      	str	r2, [sp, #0]
10006ad8:	002a      	movs	r2, r5
10006ada:	32cc      	adds	r2, #204	; 0xcc
10006adc:	6812      	ldr	r2, [r2, #0]
10006ade:	33cc      	adds	r3, #204	; 0xcc
10006ae0:	9201      	str	r2, [sp, #4]
10006ae2:	22c0      	movs	r2, #192	; 0xc0
10006ae4:	4463      	add	r3, ip
10006ae6:	0192      	lsls	r2, r2, #6
10006ae8:	4313      	orrs	r3, r2
10006aea:	2280      	movs	r2, #128	; 0x80
10006aec:	0292      	lsls	r2, r2, #10
10006aee:	9002      	str	r0, [sp, #8]
10006af0:	601a      	str	r2, [r3, #0]
10006af2:	2c00      	cmp	r4, #0
10006af4:	d019      	beq.n	10006b2a <pio_sm_set_pins_with_mask+0x7a>
10006af6:	2380      	movs	r3, #128	; 0x80
10006af8:	04db      	lsls	r3, r3, #19
10006afa:	469a      	mov	sl, r3
10006afc:	2301      	movs	r3, #1
10006afe:	4699      	mov	r9, r3
10006b00:	23e0      	movs	r3, #224	; 0xe0
10006b02:	021b      	lsls	r3, r3, #8
10006b04:	4698      	mov	r8, r3
10006b06:	35d8      	adds	r5, #216	; 0xd8
10006b08:	0020      	movs	r0, r4
10006b0a:	f7fe fe61 	bl	100057d0 <__wrap___ctzsi2>
10006b0e:	4652      	mov	r2, sl
10006b10:	0143      	lsls	r3, r0, #5
10006b12:	4313      	orrs	r3, r2
10006b14:	603b      	str	r3, [r7, #0]
10006b16:	0033      	movs	r3, r6
10006b18:	464a      	mov	r2, r9
10006b1a:	40c3      	lsrs	r3, r0
10006b1c:	4013      	ands	r3, r2
10006b1e:	4642      	mov	r2, r8
10006b20:	4313      	orrs	r3, r2
10006b22:	602b      	str	r3, [r5, #0]
10006b24:	1e63      	subs	r3, r4, #1
10006b26:	401c      	ands	r4, r3
10006b28:	d1ee      	bne.n	10006b08 <pio_sm_set_pins_with_mask+0x58>
10006b2a:	9b02      	ldr	r3, [sp, #8]
10006b2c:	9803      	ldr	r0, [sp, #12]
10006b2e:	469c      	mov	ip, r3
10006b30:	4458      	add	r0, fp
10006b32:	00c0      	lsls	r0, r0, #3
10006b34:	4460      	add	r0, ip
10006b36:	0003      	movs	r3, r0
10006b38:	9a00      	ldr	r2, [sp, #0]
10006b3a:	33dc      	adds	r3, #220	; 0xdc
10006b3c:	601a      	str	r2, [r3, #0]
10006b3e:	9b01      	ldr	r3, [sp, #4]
10006b40:	30cc      	adds	r0, #204	; 0xcc
10006b42:	6003      	str	r3, [r0, #0]
10006b44:	b005      	add	sp, #20
10006b46:	bcf0      	pop	{r4, r5, r6, r7}
10006b48:	46bb      	mov	fp, r7
10006b4a:	46b2      	mov	sl, r6
10006b4c:	46a9      	mov	r9, r5
10006b4e:	46a0      	mov	r8, r4
10006b50:	bdf0      	pop	{r4, r5, r6, r7, pc}
10006b52:	46c0      	nop			; (mov r8, r8)

10006b54 <pio_sm_set_pindirs_with_mask>:
10006b54:	b5f0      	push	{r4, r5, r6, r7, lr}
10006b56:	46de      	mov	lr, fp
10006b58:	4657      	mov	r7, sl
10006b5a:	464e      	mov	r6, r9
10006b5c:	4645      	mov	r5, r8
10006b5e:	468b      	mov	fp, r1
10006b60:	b5e0      	push	{r5, r6, r7, lr}
10006b62:	001c      	movs	r4, r3
10006b64:	b085      	sub	sp, #20
10006b66:	004b      	lsls	r3, r1, #1
10006b68:	9303      	str	r3, [sp, #12]
10006b6a:	445b      	add	r3, fp
10006b6c:	00db      	lsls	r3, r3, #3
10006b6e:	18c5      	adds	r5, r0, r3
10006b70:	002f      	movs	r7, r5
10006b72:	37dc      	adds	r7, #220	; 0xdc
10006b74:	0016      	movs	r6, r2
10006b76:	683a      	ldr	r2, [r7, #0]
10006b78:	4684      	mov	ip, r0
10006b7a:	9200      	str	r2, [sp, #0]
10006b7c:	002a      	movs	r2, r5
10006b7e:	32cc      	adds	r2, #204	; 0xcc
10006b80:	6812      	ldr	r2, [r2, #0]
10006b82:	33cc      	adds	r3, #204	; 0xcc
10006b84:	9201      	str	r2, [sp, #4]
10006b86:	22c0      	movs	r2, #192	; 0xc0
10006b88:	4463      	add	r3, ip
10006b8a:	0192      	lsls	r2, r2, #6
10006b8c:	4313      	orrs	r3, r2
10006b8e:	2280      	movs	r2, #128	; 0x80
10006b90:	0292      	lsls	r2, r2, #10
10006b92:	9002      	str	r0, [sp, #8]
10006b94:	601a      	str	r2, [r3, #0]
10006b96:	2c00      	cmp	r4, #0
10006b98:	d018      	beq.n	10006bcc <pio_sm_set_pindirs_with_mask+0x78>
10006b9a:	2380      	movs	r3, #128	; 0x80
10006b9c:	04db      	lsls	r3, r3, #19
10006b9e:	469a      	mov	sl, r3
10006ba0:	2301      	movs	r3, #1
10006ba2:	4699      	mov	r9, r3
10006ba4:	4b13      	ldr	r3, [pc, #76]	; (10006bf4 <pio_sm_set_pindirs_with_mask+0xa0>)
10006ba6:	35d8      	adds	r5, #216	; 0xd8
10006ba8:	4698      	mov	r8, r3
10006baa:	0020      	movs	r0, r4
10006bac:	f7fe fe10 	bl	100057d0 <__wrap___ctzsi2>
10006bb0:	4652      	mov	r2, sl
10006bb2:	0143      	lsls	r3, r0, #5
10006bb4:	4313      	orrs	r3, r2
10006bb6:	603b      	str	r3, [r7, #0]
10006bb8:	0033      	movs	r3, r6
10006bba:	464a      	mov	r2, r9
10006bbc:	40c3      	lsrs	r3, r0
10006bbe:	4013      	ands	r3, r2
10006bc0:	4642      	mov	r2, r8
10006bc2:	4313      	orrs	r3, r2
10006bc4:	602b      	str	r3, [r5, #0]
10006bc6:	1e63      	subs	r3, r4, #1
10006bc8:	401c      	ands	r4, r3
10006bca:	d1ee      	bne.n	10006baa <pio_sm_set_pindirs_with_mask+0x56>
10006bcc:	9b02      	ldr	r3, [sp, #8]
10006bce:	9803      	ldr	r0, [sp, #12]
10006bd0:	469c      	mov	ip, r3
10006bd2:	4458      	add	r0, fp
10006bd4:	00c0      	lsls	r0, r0, #3
10006bd6:	4460      	add	r0, ip
10006bd8:	0003      	movs	r3, r0
10006bda:	9a00      	ldr	r2, [sp, #0]
10006bdc:	33dc      	adds	r3, #220	; 0xdc
10006bde:	601a      	str	r2, [r3, #0]
10006be0:	9b01      	ldr	r3, [sp, #4]
10006be2:	30cc      	adds	r0, #204	; 0xcc
10006be4:	6003      	str	r3, [r0, #0]
10006be6:	b005      	add	sp, #20
10006be8:	bcf0      	pop	{r4, r5, r6, r7}
10006bea:	46bb      	mov	fp, r7
10006bec:	46b2      	mov	sl, r6
10006bee:	46a9      	mov	r9, r5
10006bf0:	46a0      	mov	r8, r4
10006bf2:	bdf0      	pop	{r4, r5, r6, r7, pc}
10006bf4:	0000e080 	.word	0x0000e080

10006bf8 <pio_sm_init>:
10006bf8:	b5f0      	push	{r4, r5, r6, r7, lr}
10006bfa:	2501      	movs	r5, #1
10006bfc:	408d      	lsls	r5, r1
10006bfe:	6804      	ldr	r4, [r0, #0]
10006c00:	43ac      	bics	r4, r5
10006c02:	004d      	lsls	r5, r1, #1
10006c04:	6004      	str	r4, [r0, #0]
10006c06:	186c      	adds	r4, r5, r1
10006c08:	00e4      	lsls	r4, r4, #3
10006c0a:	1904      	adds	r4, r0, r4
10006c0c:	0026      	movs	r6, r4
10006c0e:	36c8      	adds	r6, #200	; 0xc8
10006c10:	2b00      	cmp	r3, #0
10006c12:	d028      	beq.n	10006c66 <pio_sm_init+0x6e>
10006c14:	681f      	ldr	r7, [r3, #0]
10006c16:	34dc      	adds	r4, #220	; 0xdc
10006c18:	6037      	str	r7, [r6, #0]
10006c1a:	685f      	ldr	r7, [r3, #4]
10006c1c:	6077      	str	r7, [r6, #4]
10006c1e:	689f      	ldr	r7, [r3, #8]
10006c20:	68db      	ldr	r3, [r3, #12]
10006c22:	60b7      	str	r7, [r6, #8]
10006c24:	6023      	str	r3, [r4, #0]
10006c26:	186d      	adds	r5, r5, r1
10006c28:	00eb      	lsls	r3, r5, #3
10006c2a:	001d      	movs	r5, r3
10006c2c:	2480      	movs	r4, #128	; 0x80
10006c2e:	35d0      	adds	r5, #208	; 0xd0
10006c30:	1945      	adds	r5, r0, r5
10006c32:	0164      	lsls	r4, r4, #5
10006c34:	432c      	orrs	r4, r5
10006c36:	2580      	movs	r5, #128	; 0x80
10006c38:	062d      	lsls	r5, r5, #24
10006c3a:	6025      	str	r5, [r4, #0]
10006c3c:	6025      	str	r5, [r4, #0]
10006c3e:	2501      	movs	r5, #1
10006c40:	4c0f      	ldr	r4, [pc, #60]	; (10006c80 <pio_sm_init+0x88>)
10006c42:	002e      	movs	r6, r5
10006c44:	408c      	lsls	r4, r1
10006c46:	6084      	str	r4, [r0, #8]
10006c48:	1d0c      	adds	r4, r1, #4
10006c4a:	40a6      	lsls	r6, r4
10006c4c:	2480      	movs	r4, #128	; 0x80
10006c4e:	3108      	adds	r1, #8
10006c50:	408d      	lsls	r5, r1
10006c52:	211f      	movs	r1, #31
10006c54:	01a4      	lsls	r4, r4, #6
10006c56:	4304      	orrs	r4, r0
10006c58:	18c0      	adds	r0, r0, r3
10006c5a:	400a      	ands	r2, r1
10006c5c:	30d8      	adds	r0, #216	; 0xd8
10006c5e:	6026      	str	r6, [r4, #0]
10006c60:	6025      	str	r5, [r4, #0]
10006c62:	6002      	str	r2, [r0, #0]
10006c64:	bdf0      	pop	{r4, r5, r6, r7, pc}
10006c66:	2780      	movs	r7, #128	; 0x80
10006c68:	027f      	lsls	r7, r7, #9
10006c6a:	6037      	str	r7, [r6, #0]
10006c6c:	27f8      	movs	r7, #248	; 0xf8
10006c6e:	027f      	lsls	r7, r7, #9
10006c70:	6077      	str	r7, [r6, #4]
10006c72:	27c0      	movs	r7, #192	; 0xc0
10006c74:	34dc      	adds	r4, #220	; 0xdc
10006c76:	033f      	lsls	r7, r7, #12
10006c78:	60b7      	str	r7, [r6, #8]
10006c7a:	6023      	str	r3, [r4, #0]
10006c7c:	e7d3      	b.n	10006c26 <pio_sm_init+0x2e>
10006c7e:	46c0      	nop			; (mov r8, r8)
10006c80:	01010101 	.word	0x01010101

10006c84 <boot_double_tap_check>:
10006c84:	b510      	push	{r4, lr}
10006c86:	4c11      	ldr	r4, [pc, #68]	; (10006ccc <boot_double_tap_check+0x48>)
10006c88:	4b11      	ldr	r3, [pc, #68]	; (10006cd0 <boot_double_tap_check+0x4c>)
10006c8a:	6822      	ldr	r2, [r4, #0]
10006c8c:	429a      	cmp	r2, r3
10006c8e:	d110      	bne.n	10006cb2 <boot_double_tap_check+0x2e>
10006c90:	4b10      	ldr	r3, [pc, #64]	; (10006cd4 <boot_double_tap_check+0x50>)
10006c92:	6862      	ldr	r2, [r4, #4]
10006c94:	429a      	cmp	r2, r3
10006c96:	d10c      	bne.n	10006cb2 <boot_double_tap_check+0x2e>
10006c98:	4b0f      	ldr	r3, [pc, #60]	; (10006cd8 <boot_double_tap_check+0x54>)
10006c9a:	68a2      	ldr	r2, [r4, #8]
10006c9c:	429a      	cmp	r2, r3
10006c9e:	d108      	bne.n	10006cb2 <boot_double_tap_check+0x2e>
10006ca0:	2300      	movs	r3, #0
10006ca2:	480e      	ldr	r0, [pc, #56]	; (10006cdc <boot_double_tap_check+0x58>)
10006ca4:	6023      	str	r3, [r4, #0]
10006ca6:	f7fe fd99 	bl	100057dc <rom_func_lookup>
10006caa:	2100      	movs	r1, #0
10006cac:	0003      	movs	r3, r0
10006cae:	2000      	movs	r0, #0
10006cb0:	4798      	blx	r3
10006cb2:	4b07      	ldr	r3, [pc, #28]	; (10006cd0 <boot_double_tap_check+0x4c>)
10006cb4:	2100      	movs	r1, #0
10006cb6:	6023      	str	r3, [r4, #0]
10006cb8:	4b06      	ldr	r3, [pc, #24]	; (10006cd4 <boot_double_tap_check+0x50>)
10006cba:	4809      	ldr	r0, [pc, #36]	; (10006ce0 <boot_double_tap_check+0x5c>)
10006cbc:	6063      	str	r3, [r4, #4]
10006cbe:	4b06      	ldr	r3, [pc, #24]	; (10006cd8 <boot_double_tap_check+0x54>)
10006cc0:	60a3      	str	r3, [r4, #8]
10006cc2:	f7fc fd49 	bl	10003758 <busy_wait_us>
10006cc6:	2300      	movs	r3, #0
10006cc8:	6023      	str	r3, [r4, #0]
10006cca:	bd10      	pop	{r4, pc}
10006ccc:	20000260 	.word	0x20000260
10006cd0:	f01681de 	.word	0xf01681de
10006cd4:	bd729b29 	.word	0xbd729b29
10006cd8:	d359be7a 	.word	0xd359be7a
10006cdc:	00004255 	.word	0x00004255
10006ce0:	00030d40 	.word	0x00030d40

10006ce4 <strlen>:
10006ce4:	b510      	push	{r4, lr}
10006ce6:	0783      	lsls	r3, r0, #30
10006ce8:	d00a      	beq.n	10006d00 <strlen+0x1c>
10006cea:	0003      	movs	r3, r0
10006cec:	2103      	movs	r1, #3
10006cee:	e002      	b.n	10006cf6 <strlen+0x12>
10006cf0:	3301      	adds	r3, #1
10006cf2:	420b      	tst	r3, r1
10006cf4:	d005      	beq.n	10006d02 <strlen+0x1e>
10006cf6:	781a      	ldrb	r2, [r3, #0]
10006cf8:	2a00      	cmp	r2, #0
10006cfa:	d1f9      	bne.n	10006cf0 <strlen+0xc>
10006cfc:	1a18      	subs	r0, r3, r0
10006cfe:	bd10      	pop	{r4, pc}
10006d00:	0003      	movs	r3, r0
10006d02:	6819      	ldr	r1, [r3, #0]
10006d04:	4a0c      	ldr	r2, [pc, #48]	; (10006d38 <strlen+0x54>)
10006d06:	4c0d      	ldr	r4, [pc, #52]	; (10006d3c <strlen+0x58>)
10006d08:	188a      	adds	r2, r1, r2
10006d0a:	438a      	bics	r2, r1
10006d0c:	4222      	tst	r2, r4
10006d0e:	d10f      	bne.n	10006d30 <strlen+0x4c>
10006d10:	6859      	ldr	r1, [r3, #4]
10006d12:	4a09      	ldr	r2, [pc, #36]	; (10006d38 <strlen+0x54>)
10006d14:	3304      	adds	r3, #4
10006d16:	188a      	adds	r2, r1, r2
10006d18:	438a      	bics	r2, r1
10006d1a:	4222      	tst	r2, r4
10006d1c:	d108      	bne.n	10006d30 <strlen+0x4c>
10006d1e:	6859      	ldr	r1, [r3, #4]
10006d20:	4a05      	ldr	r2, [pc, #20]	; (10006d38 <strlen+0x54>)
10006d22:	3304      	adds	r3, #4
10006d24:	188a      	adds	r2, r1, r2
10006d26:	438a      	bics	r2, r1
10006d28:	4222      	tst	r2, r4
10006d2a:	d0f1      	beq.n	10006d10 <strlen+0x2c>
10006d2c:	e000      	b.n	10006d30 <strlen+0x4c>
10006d2e:	3301      	adds	r3, #1
10006d30:	781a      	ldrb	r2, [r3, #0]
10006d32:	2a00      	cmp	r2, #0
10006d34:	d1fb      	bne.n	10006d2e <strlen+0x4a>
10006d36:	e7e1      	b.n	10006cfc <strlen+0x18>
10006d38:	fefefeff 	.word	0xfefefeff
10006d3c:	80808080 	.word	0x80808080

10006d40 <_fini>:
10006d40:	b5f8      	push	{r3, r4, r5, r6, r7, lr}
10006d42:	46c0      	nop			; (mov r8, r8)
10006d44:	0000      	movs	r0, r0
	...

10006d48 <__mutex_exit_veneer>:
10006d48:	b401      	push	{r0}
10006d4a:	4802      	ldr	r0, [pc, #8]	; (10006d54 <__mutex_exit_veneer+0xc>)
10006d4c:	4684      	mov	ip, r0
10006d4e:	bc01      	pop	{r0}
10006d50:	4760      	bx	ip
10006d52:	bf00      	nop
10006d54:	2000015d 	.word	0x2000015d

10006d58 <____aeabi_ldiv0_veneer>:
10006d58:	b401      	push	{r0}
10006d5a:	4802      	ldr	r0, [pc, #8]	; (10006d64 <____aeabi_ldiv0_veneer+0xc>)
10006d5c:	4684      	mov	ip, r0
10006d5e:	bc01      	pop	{r0}
10006d60:	4760      	bx	ip
10006d62:	bf00      	nop
10006d64:	20000185 	.word	0x20000185

10006d68 <____aeabi_idiv0_veneer>:
10006d68:	b401      	push	{r0}
10006d6a:	4802      	ldr	r0, [pc, #8]	; (10006d74 <____aeabi_idiv0_veneer+0xc>)
10006d6c:	4684      	mov	ip, r0
10006d6e:	bc01      	pop	{r0}
10006d70:	4760      	bx	ip
10006d72:	bf00      	nop
10006d74:	20000185 	.word	0x20000185

10006d78 <__mutex_try_enter_block_until_veneer>:
10006d78:	b401      	push	{r0}
10006d7a:	4802      	ldr	r0, [pc, #8]	; (10006d84 <__mutex_try_enter_block_until_veneer+0xc>)
10006d7c:	4684      	mov	ip, r0
10006d7e:	bc01      	pop	{r0}
10006d80:	4760      	bx	ip
10006d82:	bf00      	nop
10006d84:	200000c1 	.word	0x200000c1

Disassembly of section .data:

200000c0 <mutex_try_enter_block_until>:
200000c0:	b5f0      	push	{r4, r5, r6, r7, lr}
200000c2:	46c6      	mov	lr, r8
200000c4:	0015      	movs	r5, r2
200000c6:	b500      	push	{lr}
200000c8:	0004      	movs	r4, r0
200000ca:	001e      	movs	r6, r3
200000cc:	6802      	ldr	r2, [r0, #0]
200000ce:	f3ef 8110 	mrs	r1, PRIMASK
200000d2:	b672      	cpsid	i
200000d4:	6813      	ldr	r3, [r2, #0]
200000d6:	2b00      	cmp	r3, #0
200000d8:	d0fc      	beq.n	200000d4 <mutex_try_enter_block_until+0x14>
200000da:	f3bf 8f5f 	dmb	sy
200000de:	2304      	movs	r3, #4
200000e0:	56e3      	ldrsb	r3, [r4, r3]
200000e2:	2b00      	cmp	r3, #0
200000e4:	db2d      	blt.n	20000142 <mutex_try_enter_block_until+0x82>
200000e6:	6822      	ldr	r2, [r4, #0]
200000e8:	f3bf 8f5f 	dmb	sy
200000ec:	2000      	movs	r0, #0
200000ee:	6010      	str	r0, [r2, #0]
200000f0:	f381 8810 	msr	PRIMASK, r1
200000f4:	22d0      	movs	r2, #208	; 0xd0
200000f6:	0612      	lsls	r2, r2, #24
200000f8:	7812      	ldrb	r2, [r2, #0]
200000fa:	b252      	sxtb	r2, r2
200000fc:	4690      	mov	r8, r2
200000fe:	429a      	cmp	r2, r3
20000100:	d103      	bne.n	2000010a <mutex_try_enter_block_until+0x4a>
20000102:	2000      	movs	r0, #0
20000104:	bc80      	pop	{r7}
20000106:	46b8      	mov	r8, r7
20000108:	bdf0      	pop	{r4, r5, r6, r7, pc}
2000010a:	2700      	movs	r7, #0
2000010c:	e00b      	b.n	20000126 <mutex_try_enter_block_until+0x66>
2000010e:	6823      	ldr	r3, [r4, #0]
20000110:	f3bf 8f5f 	dmb	sy
20000114:	601f      	str	r7, [r3, #0]
20000116:	f381 8810 	msr	PRIMASK, r1
2000011a:	0028      	movs	r0, r5
2000011c:	0031      	movs	r1, r6
2000011e:	f000 f833 	bl	20000188 <__best_effort_wfe_or_timeout_veneer>
20000122:	2800      	cmp	r0, #0
20000124:	d1ed      	bne.n	20000102 <mutex_try_enter_block_until+0x42>
20000126:	6822      	ldr	r2, [r4, #0]
20000128:	f3ef 8110 	mrs	r1, PRIMASK
2000012c:	b672      	cpsid	i
2000012e:	6813      	ldr	r3, [r2, #0]
20000130:	2b00      	cmp	r3, #0
20000132:	d0fc      	beq.n	2000012e <mutex_try_enter_block_until+0x6e>
20000134:	f3bf 8f5f 	dmb	sy
20000138:	7923      	ldrb	r3, [r4, #4]
2000013a:	2b7f      	cmp	r3, #127	; 0x7f
2000013c:	d9e7      	bls.n	2000010e <mutex_try_enter_block_until+0x4e>
2000013e:	4643      	mov	r3, r8
20000140:	e002      	b.n	20000148 <mutex_try_enter_block_until+0x88>
20000142:	23d0      	movs	r3, #208	; 0xd0
20000144:	061b      	lsls	r3, r3, #24
20000146:	681b      	ldr	r3, [r3, #0]
20000148:	7123      	strb	r3, [r4, #4]
2000014a:	6823      	ldr	r3, [r4, #0]
2000014c:	f3bf 8f5f 	dmb	sy
20000150:	2200      	movs	r2, #0
20000152:	601a      	str	r2, [r3, #0]
20000154:	f381 8810 	msr	PRIMASK, r1
20000158:	2001      	movs	r0, #1
2000015a:	e7d3      	b.n	20000104 <mutex_try_enter_block_until+0x44>

2000015c <mutex_exit>:
2000015c:	6802      	ldr	r2, [r0, #0]
2000015e:	f3ef 8110 	mrs	r1, PRIMASK
20000162:	b672      	cpsid	i
20000164:	6813      	ldr	r3, [r2, #0]
20000166:	2b00      	cmp	r3, #0
20000168:	d0fc      	beq.n	20000164 <mutex_exit+0x8>
2000016a:	f3bf 8f5f 	dmb	sy
2000016e:	23ff      	movs	r3, #255	; 0xff
20000170:	7103      	strb	r3, [r0, #4]
20000172:	6803      	ldr	r3, [r0, #0]
20000174:	f3bf 8f5f 	dmb	sy
20000178:	2200      	movs	r2, #0
2000017a:	601a      	str	r2, [r3, #0]
2000017c:	f381 8810 	msr	PRIMASK, r1
20000180:	bf40      	sev
20000182:	4770      	bx	lr

20000184 <__aeabi_idiv0>:
20000184:	4770      	bx	lr
20000186:	46c0      	nop			; (mov r8, r8)

20000188 <__best_effort_wfe_or_timeout_veneer>:
20000188:	b401      	push	{r0}
2000018a:	4802      	ldr	r0, [pc, #8]	; (20000194 <__best_effort_wfe_or_timeout_veneer+0xc>)
2000018c:	4684      	mov	ip, r0
2000018e:	bc01      	pop	{r0}
20000190:	4760      	bx	ip
20000192:	bf00      	nop
20000194:	1000359d 	.word	0x1000359d

20000198 <flag>:
20000198:	00000001                                ....

2000019c <spi>:
2000019c:	50200000 00000000 00000012              .. P........

200001a8 <striped_spin_lock_num>:
200001a8:	00000010                                ....

200001ac <irq_handler_chain_slots>:
200001ac:	00000000 	.word	0x00000000
200001b0:	00010000 	.word	0x00010000
	...
200001bc:	00020000 	.word	0x00020000
	...
200001c8:	00030000 	.word	0x00030000
	...
200001d4:	00ff0000 	.word	0x00ff0000
200001d8:	00000000 	.word	0x00000000

200001dc <irq_handler_chain_first_slot>:
200001dc:	b501      	push	{r0, lr}
200001de:	6848      	ldr	r0, [r1, #4]
200001e0:	3101      	adds	r1, #1
200001e2:	468e      	mov	lr, r1
200001e4:	4700      	bx	r0

200001e6 <irq_handler_chain_remove_tail>:
200001e6:	4670      	mov	r0, lr
200001e8:	3809      	subs	r0, #9
200001ea:	4901      	ldr	r1, [pc, #4]	; (200001f0 <irq_handler_chain_remove_tail+0xa>)
200001ec:	4788      	blx	r1
200001ee:	bd01      	pop	{r0, pc}
200001f0:	10002e81 	.word	0x10002e81

200001f4 <default_alarm_pool>:
200001f4:	2000020c 00000000 20000270 200005cc     ... ....p.. ... 
	...

2000020c <default_alarm_pool_heap>:
2000020c:	200005dc 00000000 00000000 00000010     ... ............
2000021c:	00000000                                ....

20000220 <aeabi_bits_funcs>:
20000220:	00003350 	.word	0x00003350
20000224:	0000334c 	.word	0x0000334c
20000228:	00003354 	.word	0x00003354
2000022c:	00003352 	.word	0x00003352

20000230 <aeabi_bits_funcs_end>:
20000230:	0000534d 	.word	0x0000534d
20000234:	0000434d 	.word	0x0000434d
20000238:	00003453 	.word	0x00003453
2000023c:	00003443 	.word	0x00003443

20000240 <print_mutex>:
	...

20000248 <__mutex_array_end>:
20000248:	10006701 	.word	0x10006701
2000024c:	100057c1 	.word	0x100057c1
20000250:	10005ed9 	.word	0x10005ed9
20000254:	10006659 	.word	0x10006659

20000258 <__frame_dummy_init_array_entry>:
20000258:	100002e5 10006c85                       .....l..
